
LPC1768/rosserial_mbed_ServoControl.elf:     file format elf32-littlearm
architecture: arm, flags 0x00000112:
EXEC_P, HAS_SYMS, D_PAGED
start address 0x000039d5


Disassembly of section .text:

00000000 <__isr_vector>:
       0:	10008000 	.word	0x10008000
       4:	000039d5 	.word	0x000039d5
       8:	00003a05 	.word	0x00003a05
       c:	00003a07 	.word	0x00003a07
      10:	00003a09 	.word	0x00003a09
      14:	00003a0b 	.word	0x00003a0b
      18:	00003a0d 	.word	0x00003a0d
	...
      2c:	00003909 	.word	0x00003909
      30:	00003a11 	.word	0x00003a11
      34:	00000000 	.word	0x00000000
      38:	00003973 	.word	0x00003973
      3c:	000039a9 	.word	0x000039a9
      40:	00003a17 	.word	0x00003a17
      44:	00003a17 	.word	0x00003a17
      48:	00003a17 	.word	0x00003a17
      4c:	00003a17 	.word	0x00003a17
      50:	00003a17 	.word	0x00003a17
      54:	00003a17 	.word	0x00003a17
      58:	00003a17 	.word	0x00003a17
      5c:	00003a17 	.word	0x00003a17
      60:	00003a17 	.word	0x00003a17
      64:	00003a17 	.word	0x00003a17
      68:	00003a17 	.word	0x00003a17
      6c:	00003a17 	.word	0x00003a17
      70:	00003a17 	.word	0x00003a17
      74:	00003a17 	.word	0x00003a17
      78:	00003a17 	.word	0x00003a17
      7c:	00003a17 	.word	0x00003a17
      80:	00003a17 	.word	0x00003a17
      84:	00003a17 	.word	0x00003a17
      88:	00003a17 	.word	0x00003a17
      8c:	00003a17 	.word	0x00003a17
      90:	00003a17 	.word	0x00003a17
      94:	00003a17 	.word	0x00003a17
      98:	00003a17 	.word	0x00003a17
      9c:	00003a17 	.word	0x00003a17
      a0:	00003a17 	.word	0x00003a17
      a4:	00003a17 	.word	0x00003a17
      a8:	00003a17 	.word	0x00003a17
      ac:	00003a17 	.word	0x00003a17
      b0:	00003a17 	.word	0x00003a17
      b4:	00003a17 	.word	0x00003a17
      b8:	00003a17 	.word	0x00003a17
      bc:	00003a17 	.word	0x00003a17
      c0:	00003a17 	.word	0x00003a17
      c4:	00003a17 	.word	0x00003a17
      c8:	00003a17 	.word	0x00003a17

000000cc <__do_global_dtors_aux>:
      cc:	b510      	push	{r4, lr}
      ce:	4c05      	ldr	r4, [pc, #20]	; (e4 <__do_global_dtors_aux+0x18>)
      d0:	7823      	ldrb	r3, [r4, #0]
      d2:	b933      	cbnz	r3, e2 <__do_global_dtors_aux+0x16>
      d4:	4b04      	ldr	r3, [pc, #16]	; (e8 <__do_global_dtors_aux+0x1c>)
      d6:	b113      	cbz	r3, de <__do_global_dtors_aux+0x12>
      d8:	4804      	ldr	r0, [pc, #16]	; (ec <__do_global_dtors_aux+0x20>)
      da:	f3af 8000 	nop.w
      de:	2301      	movs	r3, #1
      e0:	7023      	strb	r3, [r4, #0]
      e2:	bd10      	pop	{r4, pc}
      e4:	10000178 	.word	0x10000178
      e8:	00000000 	.word	0x00000000
      ec:	00005bfc 	.word	0x00005bfc

000000f0 <frame_dummy>:
      f0:	4b0c      	ldr	r3, [pc, #48]	; (124 <frame_dummy+0x34>)
      f2:	b143      	cbz	r3, 106 <frame_dummy+0x16>
      f4:	480c      	ldr	r0, [pc, #48]	; (128 <frame_dummy+0x38>)
      f6:	b510      	push	{r4, lr}
      f8:	490c      	ldr	r1, [pc, #48]	; (12c <frame_dummy+0x3c>)
      fa:	f3af 8000 	nop.w
      fe:	480c      	ldr	r0, [pc, #48]	; (130 <frame_dummy+0x40>)
     100:	6803      	ldr	r3, [r0, #0]
     102:	b923      	cbnz	r3, 10e <frame_dummy+0x1e>
     104:	bd10      	pop	{r4, pc}
     106:	480a      	ldr	r0, [pc, #40]	; (130 <frame_dummy+0x40>)
     108:	6803      	ldr	r3, [r0, #0]
     10a:	b933      	cbnz	r3, 11a <frame_dummy+0x2a>
     10c:	4770      	bx	lr
     10e:	4b09      	ldr	r3, [pc, #36]	; (134 <frame_dummy+0x44>)
     110:	2b00      	cmp	r3, #0
     112:	d0f7      	beq.n	104 <frame_dummy+0x14>
     114:	e8bd 4010 	ldmia.w	sp!, {r4, lr}
     118:	4718      	bx	r3
     11a:	4b06      	ldr	r3, [pc, #24]	; (134 <frame_dummy+0x44>)
     11c:	2b00      	cmp	r3, #0
     11e:	d0f5      	beq.n	10c <frame_dummy+0x1c>
     120:	4718      	bx	r3
     122:	bf00      	nop
     124:	00000000 	.word	0x00000000
     128:	00005bfc 	.word	0x00005bfc
     12c:	1000017c 	.word	0x1000017c
     130:	10000178 	.word	0x10000178
     134:	00000000 	.word	0x00000000

00000138 <std_msgs::Time::serialize(unsigned char*) const>:
     138:	6843      	ldr	r3, [r0, #4]
     13a:	700b      	strb	r3, [r1, #0]
     13c:	6843      	ldr	r3, [r0, #4]
     13e:	0a1b      	lsrs	r3, r3, #8
     140:	704b      	strb	r3, [r1, #1]
     142:	88c3      	ldrh	r3, [r0, #6]
     144:	708b      	strb	r3, [r1, #2]
     146:	79c3      	ldrb	r3, [r0, #7]
     148:	70cb      	strb	r3, [r1, #3]
     14a:	6883      	ldr	r3, [r0, #8]
     14c:	710b      	strb	r3, [r1, #4]
     14e:	6883      	ldr	r3, [r0, #8]
     150:	0a1b      	lsrs	r3, r3, #8
     152:	714b      	strb	r3, [r1, #5]
     154:	8943      	ldrh	r3, [r0, #10]
     156:	718b      	strb	r3, [r1, #6]
     158:	7ac3      	ldrb	r3, [r0, #11]
     15a:	2008      	movs	r0, #8
     15c:	71cb      	strb	r3, [r1, #7]
     15e:	4770      	bx	lr

00000160 <std_msgs::Time::deserialize(unsigned char*)>:
     160:	780b      	ldrb	r3, [r1, #0]
     162:	6043      	str	r3, [r0, #4]
     164:	784a      	ldrb	r2, [r1, #1]
     166:	ea43 2302 	orr.w	r3, r3, r2, lsl #8
     16a:	6043      	str	r3, [r0, #4]
     16c:	788a      	ldrb	r2, [r1, #2]
     16e:	ea43 4302 	orr.w	r3, r3, r2, lsl #16
     172:	6043      	str	r3, [r0, #4]
     174:	78ca      	ldrb	r2, [r1, #3]
     176:	ea43 6302 	orr.w	r3, r3, r2, lsl #24
     17a:	6043      	str	r3, [r0, #4]
     17c:	790b      	ldrb	r3, [r1, #4]
     17e:	6083      	str	r3, [r0, #8]
     180:	794a      	ldrb	r2, [r1, #5]
     182:	ea43 2302 	orr.w	r3, r3, r2, lsl #8
     186:	6083      	str	r3, [r0, #8]
     188:	798a      	ldrb	r2, [r1, #6]
     18a:	ea43 4302 	orr.w	r3, r3, r2, lsl #16
     18e:	6083      	str	r3, [r0, #8]
     190:	79ca      	ldrb	r2, [r1, #7]
     192:	ea43 6302 	orr.w	r3, r3, r2, lsl #24
     196:	6083      	str	r3, [r0, #8]
     198:	2008      	movs	r0, #8
     19a:	4770      	bx	lr

0000019c <std_msgs::Time::getType()>:
     19c:	4800      	ldr	r0, [pc, #0]	; (1a0 <std_msgs::Time::getType()+0x4>)
     19e:	4770      	bx	lr
     1a0:	00005767 	.word	0x00005767

000001a4 <std_msgs::Time::getMD5()>:
     1a4:	4800      	ldr	r0, [pc, #0]	; (1a8 <std_msgs::Time::getMD5()+0x4>)
     1a6:	4770      	bx	lr
     1a8:	00005746 	.word	0x00005746

000001ac <rosserial_msgs::TopicInfo::getType()>:
     1ac:	4800      	ldr	r0, [pc, #0]	; (1b0 <rosserial_msgs::TopicInfo::getType()+0x4>)
     1ae:	4770      	bx	lr
     1b0:	000056d8 	.word	0x000056d8

000001b4 <rosserial_msgs::TopicInfo::getMD5()>:
     1b4:	4800      	ldr	r0, [pc, #0]	; (1b8 <rosserial_msgs::TopicInfo::getMD5()+0x4>)
     1b6:	4770      	bx	lr
     1b8:	000056b7 	.word	0x000056b7

000001bc <rosserial_msgs::Log::getType()>:
     1bc:	4800      	ldr	r0, [pc, #0]	; (1c0 <rosserial_msgs::Log::getType()+0x4>)
     1be:	4770      	bx	lr
     1c0:	000056a4 	.word	0x000056a4

000001c4 <rosserial_msgs::Log::getMD5()>:
     1c4:	4800      	ldr	r0, [pc, #0]	; (1c8 <rosserial_msgs::Log::getMD5()+0x4>)
     1c6:	4770      	bx	lr
     1c8:	00005683 	.word	0x00005683

000001cc <rosserial_msgs::RequestParamResponse::getType()>:
     1cc:	4800      	ldr	r0, [pc, #0]	; (1d0 <rosserial_msgs::RequestParamResponse::getType()+0x4>)
     1ce:	4770      	bx	lr
     1d0:	000056f1 	.word	0x000056f1

000001d4 <rosserial_msgs::RequestParamResponse::getMD5()>:
     1d4:	4800      	ldr	r0, [pc, #0]	; (1d8 <rosserial_msgs::RequestParamResponse::getMD5()+0x4>)
     1d6:	4770      	bx	lr
     1d8:	00005662 	.word	0x00005662

000001dc <std_msgs::UInt16::serialize(unsigned char*) const>:
     1dc:	8883      	ldrh	r3, [r0, #4]
     1de:	700b      	strb	r3, [r1, #0]
     1e0:	8883      	ldrh	r3, [r0, #4]
     1e2:	2002      	movs	r0, #2
     1e4:	0a1b      	lsrs	r3, r3, #8
     1e6:	704b      	strb	r3, [r1, #1]
     1e8:	4770      	bx	lr

000001ea <std_msgs::UInt16::deserialize(unsigned char*)>:
     1ea:	780b      	ldrb	r3, [r1, #0]
     1ec:	8083      	strh	r3, [r0, #4]
     1ee:	784a      	ldrb	r2, [r1, #1]
     1f0:	ea43 2302 	orr.w	r3, r3, r2, lsl #8
     1f4:	8083      	strh	r3, [r0, #4]
     1f6:	2002      	movs	r0, #2
     1f8:	4770      	bx	lr
	...

000001fc <std_msgs::UInt16::getType()>:
     1fc:	4800      	ldr	r0, [pc, #0]	; (200 <std_msgs::UInt16::getType()+0x4>)
     1fe:	4770      	bx	lr
     200:	00005796 	.word	0x00005796

00000204 <std_msgs::UInt16::getMD5()>:
     204:	4800      	ldr	r0, [pc, #0]	; (208 <std_msgs::UInt16::getMD5()+0x4>)
     206:	4770      	bx	lr
     208:	00005775 	.word	0x00005775

0000020c <ros::Subscriber<std_msgs::UInt16, void>::callback(unsigned char*)>:
     20c:	b570      	push	{r4, r5, r6, lr}
     20e:	4605      	mov	r5, r0
     210:	f100 040c 	add.w	r4, r0, #12
     214:	4620      	mov	r0, r4
     216:	f7ff ffe8 	bl	1ea <std_msgs::UInt16::deserialize(unsigned char*)>
     21a:	696b      	ldr	r3, [r5, #20]
     21c:	4620      	mov	r0, r4
     21e:	e8bd 4070 	ldmia.w	sp!, {r4, r5, r6, lr}
     222:	4718      	bx	r3

00000224 <ros::Subscriber<std_msgs::UInt16, void>::getEndpointType()>:
     224:	6980      	ldr	r0, [r0, #24]
     226:	4770      	bx	lr

00000228 <ros::Subscriber<std_msgs::UInt16, void>::getMsgType()>:
     228:	4800      	ldr	r0, [pc, #0]	; (22c <ros::Subscriber<std_msgs::UInt16, void>::getMsgType()+0x4>)
     22a:	4770      	bx	lr
     22c:	00005796 	.word	0x00005796

00000230 <ros::Subscriber<std_msgs::UInt16, void>::getMsgMD5()>:
     230:	4800      	ldr	r0, [pc, #0]	; (234 <ros::Subscriber<std_msgs::UInt16, void>::getMsgMD5()+0x4>)
     232:	4770      	bx	lr
     234:	00005775 	.word	0x00005775

00000238 <ros::NodeHandle_<MbedHardware, 25, 25, 512, 512>::connected()>:
     238:	f890 055c 	ldrb.w	r0, [r0, #1372]	; 0x55c
     23c:	4770      	bx	lr
	...

00000240 <servo_cb(std_msgs::UInt16 const&)>:
     240:	b508      	push	{r3, lr}
     242:	8880      	ldrh	r0, [r0, #4]
     244:	f004 f8b8 	bl	43b8 <__aeabi_ui2f>
     248:	4601      	mov	r1, r0
     24a:	4806      	ldr	r0, [pc, #24]	; (264 <servo_cb(std_msgs::UInt16 const&)+0x24>)
     24c:	f000 fd8c 	bl	d68 <Servo::position(float)>
     250:	4b05      	ldr	r3, [pc, #20]	; (268 <servo_cb(std_msgs::UInt16 const&)+0x28>)
     252:	695a      	ldr	r2, [r3, #20]
     254:	6811      	ldr	r1, [r2, #0]
     256:	685a      	ldr	r2, [r3, #4]
     258:	4211      	tst	r1, r2
     25a:	bf0c      	ite	eq
     25c:	68db      	ldreq	r3, [r3, #12]
     25e:	691b      	ldrne	r3, [r3, #16]
     260:	601a      	str	r2, [r3, #0]
     262:	bd08      	pop	{r3, pc}
     264:	10000744 	.word	0x10000744
     268:	10000194 	.word	0x10000194

0000026c <void ros::Msg::varToArr<unsigned char*, unsigned long>(unsigned char*, unsigned long)>:
     26c:	2300      	movs	r3, #0
     26e:	3801      	subs	r0, #1
     270:	fa21 f203 	lsr.w	r2, r1, r3
     274:	3308      	adds	r3, #8
     276:	2b20      	cmp	r3, #32
     278:	f800 2f01 	strb.w	r2, [r0, #1]!
     27c:	d1f8      	bne.n	270 <void ros::Msg::varToArr<unsigned char*, unsigned long>(unsigned char*, unsigned long)+0x4>
     27e:	4770      	bx	lr

00000280 <rosserial_msgs::RequestParamResponse::serialize(unsigned char*) const>:
     280:	6843      	ldr	r3, [r0, #4]
     282:	e92d 41f0 	stmdb	sp!, {r4, r5, r6, r7, r8, lr}
     286:	700b      	strb	r3, [r1, #0]
     288:	6843      	ldr	r3, [r0, #4]
     28a:	460d      	mov	r5, r1
     28c:	0a1b      	lsrs	r3, r3, #8
     28e:	704b      	strb	r3, [r1, #1]
     290:	88c3      	ldrh	r3, [r0, #6]
     292:	1d0a      	adds	r2, r1, #4
     294:	708b      	strb	r3, [r1, #2]
     296:	79c3      	ldrb	r3, [r0, #7]
     298:	4604      	mov	r4, r0
     29a:	70cb      	strb	r3, [r1, #3]
     29c:	2100      	movs	r1, #0
     29e:	6860      	ldr	r0, [r4, #4]
     2a0:	1b53      	subs	r3, r2, r5
     2a2:	4281      	cmp	r1, r0
     2a4:	f102 0204 	add.w	r2, r2, #4
     2a8:	d20f      	bcs.n	2ca <rosserial_msgs::RequestParamResponse::serialize(unsigned char*) const+0x4a>
     2aa:	68e3      	ldr	r3, [r4, #12]
     2ac:	f853 3021 	ldr.w	r3, [r3, r1, lsl #2]
     2b0:	3101      	adds	r1, #1
     2b2:	0a18      	lsrs	r0, r3, #8
     2b4:	f802 3c04 	strb.w	r3, [r2, #-4]
     2b8:	f802 0c03 	strb.w	r0, [r2, #-3]
     2bc:	0c18      	lsrs	r0, r3, #16
     2be:	0e1b      	lsrs	r3, r3, #24
     2c0:	f802 0c02 	strb.w	r0, [r2, #-2]
     2c4:	f802 3c01 	strb.w	r3, [r2, #-1]
     2c8:	e7e9      	b.n	29e <rosserial_msgs::RequestParamResponse::serialize(unsigned char*) const+0x1e>
     2ca:	6922      	ldr	r2, [r4, #16]
     2cc:	54ea      	strb	r2, [r5, r3]
     2ce:	6921      	ldr	r1, [r4, #16]
     2d0:	18ea      	adds	r2, r5, r3
     2d2:	0a09      	lsrs	r1, r1, #8
     2d4:	7051      	strb	r1, [r2, #1]
     2d6:	8a61      	ldrh	r1, [r4, #18]
     2d8:	3304      	adds	r3, #4
     2da:	7091      	strb	r1, [r2, #2]
     2dc:	7ce1      	ldrb	r1, [r4, #19]
     2de:	442b      	add	r3, r5
     2e0:	70d1      	strb	r1, [r2, #3]
     2e2:	2100      	movs	r1, #0
     2e4:	6922      	ldr	r2, [r4, #16]
     2e6:	1b5e      	subs	r6, r3, r5
     2e8:	4291      	cmp	r1, r2
     2ea:	f103 0304 	add.w	r3, r3, #4
     2ee:	d20f      	bcs.n	310 <rosserial_msgs::RequestParamResponse::serialize(unsigned char*) const+0x90>
     2f0:	69a2      	ldr	r2, [r4, #24]
     2f2:	f852 2021 	ldr.w	r2, [r2, r1, lsl #2]
     2f6:	3101      	adds	r1, #1
     2f8:	0a10      	lsrs	r0, r2, #8
     2fa:	f803 2c04 	strb.w	r2, [r3, #-4]
     2fe:	f803 0c03 	strb.w	r0, [r3, #-3]
     302:	0c10      	lsrs	r0, r2, #16
     304:	0e12      	lsrs	r2, r2, #24
     306:	f803 0c02 	strb.w	r0, [r3, #-2]
     30a:	f803 2c01 	strb.w	r2, [r3, #-1]
     30e:	e7e9      	b.n	2e4 <rosserial_msgs::RequestParamResponse::serialize(unsigned char*) const+0x64>
     310:	2700      	movs	r7, #0
     312:	69e3      	ldr	r3, [r4, #28]
     314:	55ab      	strb	r3, [r5, r6]
     316:	69e2      	ldr	r2, [r4, #28]
     318:	19ab      	adds	r3, r5, r6
     31a:	0a12      	lsrs	r2, r2, #8
     31c:	705a      	strb	r2, [r3, #1]
     31e:	8be2      	ldrh	r2, [r4, #30]
     320:	3604      	adds	r6, #4
     322:	709a      	strb	r2, [r3, #2]
     324:	7fe2      	ldrb	r2, [r4, #31]
     326:	70da      	strb	r2, [r3, #3]
     328:	69e3      	ldr	r3, [r4, #28]
     32a:	429f      	cmp	r7, r3
     32c:	d214      	bcs.n	358 <rosserial_msgs::RequestParamResponse::serialize(unsigned char*) const+0xd8>
     32e:	6a63      	ldr	r3, [r4, #36]	; 0x24
     330:	f853 0027 	ldr.w	r0, [r3, r7, lsl #2]
     334:	f004 ff6b 	bl	520e <strlen>
     338:	4680      	mov	r8, r0
     33a:	4601      	mov	r1, r0
     33c:	19a8      	adds	r0, r5, r6
     33e:	f7ff ff95 	bl	26c <void ros::Msg::varToArr<unsigned char*, unsigned long>(unsigned char*, unsigned long)>
     342:	6a63      	ldr	r3, [r4, #36]	; 0x24
     344:	3604      	adds	r6, #4
     346:	f853 1027 	ldr.w	r1, [r3, r7, lsl #2]
     34a:	19a8      	adds	r0, r5, r6
     34c:	4642      	mov	r2, r8
     34e:	f004 fc6d 	bl	4c2c <memcpy>
     352:	4446      	add	r6, r8
     354:	3701      	adds	r7, #1
     356:	e7e7      	b.n	328 <rosserial_msgs::RequestParamResponse::serialize(unsigned char*) const+0xa8>
     358:	4630      	mov	r0, r6
     35a:	e8bd 81f0 	ldmia.w	sp!, {r4, r5, r6, r7, r8, pc}

0000035e <rosserial_msgs::Log::serialize(unsigned char*) const>:
     35e:	b5f8      	push	{r3, r4, r5, r6, r7, lr}
     360:	460e      	mov	r6, r1
     362:	7903      	ldrb	r3, [r0, #4]
     364:	4605      	mov	r5, r0
     366:	f806 3b01 	strb.w	r3, [r6], #1
     36a:	6880      	ldr	r0, [r0, #8]
     36c:	460f      	mov	r7, r1
     36e:	f004 ff4e 	bl	520e <strlen>
     372:	4604      	mov	r4, r0
     374:	4601      	mov	r1, r0
     376:	4630      	mov	r0, r6
     378:	f7ff ff78 	bl	26c <void ros::Msg::varToArr<unsigned char*, unsigned long>(unsigned char*, unsigned long)>
     37c:	4622      	mov	r2, r4
     37e:	68a9      	ldr	r1, [r5, #8]
     380:	1d78      	adds	r0, r7, #5
     382:	f004 fc53 	bl	4c2c <memcpy>
     386:	1d60      	adds	r0, r4, #5
     388:	bdf8      	pop	{r3, r4, r5, r6, r7, pc}

0000038a <rosserial_msgs::TopicInfo::serialize(unsigned char*) const>:
     38a:	8883      	ldrh	r3, [r0, #4]
     38c:	e92d 41f0 	stmdb	sp!, {r4, r5, r6, r7, r8, lr}
     390:	700b      	strb	r3, [r1, #0]
     392:	8883      	ldrh	r3, [r0, #4]
     394:	4605      	mov	r5, r0
     396:	0a1b      	lsrs	r3, r3, #8
     398:	704b      	strb	r3, [r1, #1]
     39a:	6880      	ldr	r0, [r0, #8]
     39c:	460c      	mov	r4, r1
     39e:	f004 ff36 	bl	520e <strlen>
     3a2:	4607      	mov	r7, r0
     3a4:	4601      	mov	r1, r0
     3a6:	1ca0      	adds	r0, r4, #2
     3a8:	f7ff ff60 	bl	26c <void ros::Msg::varToArr<unsigned char*, unsigned long>(unsigned char*, unsigned long)>
     3ac:	463a      	mov	r2, r7
     3ae:	68a9      	ldr	r1, [r5, #8]
     3b0:	1da0      	adds	r0, r4, #6
     3b2:	f004 fc3b 	bl	4c2c <memcpy>
     3b6:	68e8      	ldr	r0, [r5, #12]
     3b8:	f004 ff29 	bl	520e <strlen>
     3bc:	4606      	mov	r6, r0
     3be:	f107 0806 	add.w	r8, r7, #6
     3c2:	4601      	mov	r1, r0
     3c4:	370a      	adds	r7, #10
     3c6:	eb04 0008 	add.w	r0, r4, r8
     3ca:	f7ff ff4f 	bl	26c <void ros::Msg::varToArr<unsigned char*, unsigned long>(unsigned char*, unsigned long)>
     3ce:	4632      	mov	r2, r6
     3d0:	68e9      	ldr	r1, [r5, #12]
     3d2:	19e0      	adds	r0, r4, r7
     3d4:	f004 fc2a 	bl	4c2c <memcpy>
     3d8:	6928      	ldr	r0, [r5, #16]
     3da:	f004 ff18 	bl	520e <strlen>
     3de:	443e      	add	r6, r7
     3e0:	4607      	mov	r7, r0
     3e2:	4601      	mov	r1, r0
     3e4:	19a0      	adds	r0, r4, r6
     3e6:	3604      	adds	r6, #4
     3e8:	f7ff ff40 	bl	26c <void ros::Msg::varToArr<unsigned char*, unsigned long>(unsigned char*, unsigned long)>
     3ec:	463a      	mov	r2, r7
     3ee:	19a0      	adds	r0, r4, r6
     3f0:	6929      	ldr	r1, [r5, #16]
     3f2:	f004 fc1b 	bl	4c2c <memcpy>
     3f6:	696b      	ldr	r3, [r5, #20]
     3f8:	443e      	add	r6, r7
     3fa:	55a3      	strb	r3, [r4, r6]
     3fc:	0a1a      	lsrs	r2, r3, #8
     3fe:	4434      	add	r4, r6
     400:	7062      	strb	r2, [r4, #1]
     402:	0c1a      	lsrs	r2, r3, #16
     404:	0e1b      	lsrs	r3, r3, #24
     406:	70a2      	strb	r2, [r4, #2]
     408:	70e3      	strb	r3, [r4, #3]
     40a:	1d30      	adds	r0, r6, #4
     40c:	e8bd 81f0 	ldmia.w	sp!, {r4, r5, r6, r7, r8, pc}

00000410 <void ros::Msg::arrToVar<unsigned long, unsigned char*>(unsigned long&, unsigned char*)>:
     410:	2300      	movs	r3, #0
     412:	b510      	push	{r4, lr}
     414:	6003      	str	r3, [r0, #0]
     416:	3901      	subs	r1, #1
     418:	f811 2f01 	ldrb.w	r2, [r1, #1]!
     41c:	fa02 f403 	lsl.w	r4, r2, r3
     420:	6802      	ldr	r2, [r0, #0]
     422:	3308      	adds	r3, #8
     424:	4322      	orrs	r2, r4
     426:	2b20      	cmp	r3, #32
     428:	6002      	str	r2, [r0, #0]
     42a:	d1f5      	bne.n	418 <void ros::Msg::arrToVar<unsigned long, unsigned char*>(unsigned long&, unsigned char*)+0x8>
     42c:	bd10      	pop	{r4, pc}

0000042e <rosserial_msgs::Log::deserialize(unsigned char*)>:
     42e:	b537      	push	{r0, r1, r2, r4, r5, lr}
     430:	460c      	mov	r4, r1
     432:	f811 3b01 	ldrb.w	r3, [r1], #1
     436:	4605      	mov	r5, r0
     438:	7103      	strb	r3, [r0, #4]
     43a:	a801      	add	r0, sp, #4
     43c:	f7ff ffe8 	bl	410 <void ros::Msg::arrToVar<unsigned long, unsigned char*>(unsigned long&, unsigned char*)>
     440:	9b01      	ldr	r3, [sp, #4]
     442:	1d62      	adds	r2, r4, #5
     444:	1d58      	adds	r0, r3, #5
     446:	1b11      	subs	r1, r2, r4
     448:	4288      	cmp	r0, r1
     44a:	d904      	bls.n	456 <rosserial_msgs::Log::deserialize(unsigned char*)+0x28>
     44c:	f812 1b01 	ldrb.w	r1, [r2], #1
     450:	f802 1c02 	strb.w	r1, [r2, #-2]
     454:	e7f7      	b.n	446 <rosserial_msgs::Log::deserialize(unsigned char*)+0x18>
     456:	2200      	movs	r2, #0
     458:	4423      	add	r3, r4
     45a:	3404      	adds	r4, #4
     45c:	711a      	strb	r2, [r3, #4]
     45e:	60ac      	str	r4, [r5, #8]
     460:	b003      	add	sp, #12
     462:	bd30      	pop	{r4, r5, pc}

00000464 <rosserial_msgs::TopicInfo::deserialize(unsigned char*)>:
     464:	b5f0      	push	{r4, r5, r6, r7, lr}
     466:	460c      	mov	r4, r1
     468:	780b      	ldrb	r3, [r1, #0]
     46a:	b085      	sub	sp, #20
     46c:	8083      	strh	r3, [r0, #4]
     46e:	784a      	ldrb	r2, [r1, #1]
     470:	4606      	mov	r6, r0
     472:	ea43 2302 	orr.w	r3, r3, r2, lsl #8
     476:	8083      	strh	r3, [r0, #4]
     478:	3102      	adds	r1, #2
     47a:	a801      	add	r0, sp, #4
     47c:	f7ff ffc8 	bl	410 <void ros::Msg::arrToVar<unsigned long, unsigned char*>(unsigned long&, unsigned char*)>
     480:	9f01      	ldr	r7, [sp, #4]
     482:	1da3      	adds	r3, r4, #6
     484:	1dbd      	adds	r5, r7, #6
     486:	1b1a      	subs	r2, r3, r4
     488:	4295      	cmp	r5, r2
     48a:	d904      	bls.n	496 <rosserial_msgs::TopicInfo::deserialize(unsigned char*)+0x32>
     48c:	f813 2b01 	ldrb.w	r2, [r3], #1
     490:	f803 2c02 	strb.w	r2, [r3, #-2]
     494:	e7f7      	b.n	486 <rosserial_msgs::TopicInfo::deserialize(unsigned char*)+0x22>
     496:	2200      	movs	r2, #0
     498:	19e3      	adds	r3, r4, r7
     49a:	715a      	strb	r2, [r3, #5]
     49c:	1d63      	adds	r3, r4, #5
     49e:	60b3      	str	r3, [r6, #8]
     4a0:	1961      	adds	r1, r4, r5
     4a2:	a802      	add	r0, sp, #8
     4a4:	f7ff ffb4 	bl	410 <void ros::Msg::arrToVar<unsigned long, unsigned char*>(unsigned long&, unsigned char*)>
     4a8:	1d2b      	adds	r3, r5, #4
     4aa:	9d02      	ldr	r5, [sp, #8]
     4ac:	f107 020a 	add.w	r2, r7, #10
     4b0:	441d      	add	r5, r3
     4b2:	4422      	add	r2, r4
     4b4:	1b11      	subs	r1, r2, r4
     4b6:	428d      	cmp	r5, r1
     4b8:	d904      	bls.n	4c4 <rosserial_msgs::TopicInfo::deserialize(unsigned char*)+0x60>
     4ba:	f812 1b01 	ldrb.w	r1, [r2], #1
     4be:	f802 1c02 	strb.w	r1, [r2, #-2]
     4c2:	e7f7      	b.n	4b4 <rosserial_msgs::TopicInfo::deserialize(unsigned char*)+0x50>
     4c4:	2200      	movs	r2, #0
     4c6:	3b01      	subs	r3, #1
     4c8:	1961      	adds	r1, r4, r5
     4ca:	4423      	add	r3, r4
     4cc:	f801 2c01 	strb.w	r2, [r1, #-1]
     4d0:	a803      	add	r0, sp, #12
     4d2:	60f3      	str	r3, [r6, #12]
     4d4:	f7ff ff9c 	bl	410 <void ros::Msg::arrToVar<unsigned long, unsigned char*>(unsigned long&, unsigned char*)>
     4d8:	9803      	ldr	r0, [sp, #12]
     4da:	3504      	adds	r5, #4
     4dc:	4428      	add	r0, r5
     4de:	1963      	adds	r3, r4, r5
     4e0:	1b1a      	subs	r2, r3, r4
     4e2:	4290      	cmp	r0, r2
     4e4:	d904      	bls.n	4f0 <rosserial_msgs::TopicInfo::deserialize(unsigned char*)+0x8c>
     4e6:	f813 2b01 	ldrb.w	r2, [r3], #1
     4ea:	f803 2c02 	strb.w	r2, [r3, #-2]
     4ee:	e7f7      	b.n	4e0 <rosserial_msgs::TopicInfo::deserialize(unsigned char*)+0x7c>
     4f0:	2300      	movs	r3, #0
     4f2:	3d01      	subs	r5, #1
     4f4:	1822      	adds	r2, r4, r0
     4f6:	4425      	add	r5, r4
     4f8:	f802 3c01 	strb.w	r3, [r2, #-1]
     4fc:	6135      	str	r5, [r6, #16]
     4fe:	7893      	ldrb	r3, [r2, #2]
     500:	7851      	ldrb	r1, [r2, #1]
     502:	041b      	lsls	r3, r3, #16
     504:	ea43 2301 	orr.w	r3, r3, r1, lsl #8
     508:	5c21      	ldrb	r1, [r4, r0]
     50a:	78d2      	ldrb	r2, [r2, #3]
     50c:	430b      	orrs	r3, r1
     50e:	ea43 6302 	orr.w	r3, r3, r2, lsl #24
     512:	3004      	adds	r0, #4
     514:	6173      	str	r3, [r6, #20]
     516:	b005      	add	sp, #20
     518:	bdf0      	pop	{r4, r5, r6, r7, pc}

0000051a <rosserial_msgs::RequestParamResponse::deserialize(unsigned char*)>:
     51a:	e92d 41f3 	stmdb	sp!, {r0, r1, r4, r5, r6, r7, r8, lr}
     51e:	6843      	ldr	r3, [r0, #4]
     520:	680d      	ldr	r5, [r1, #0]
     522:	4604      	mov	r4, r0
     524:	429d      	cmp	r5, r3
     526:	460e      	mov	r6, r1
     528:	d904      	bls.n	534 <rosserial_msgs::RequestParamResponse::deserialize(unsigned char*)+0x1a>
     52a:	00a9      	lsls	r1, r5, #2
     52c:	68c0      	ldr	r0, [r0, #12]
     52e:	f004 fe13 	bl	5158 <realloc>
     532:	60e0      	str	r0, [r4, #12]
     534:	2100      	movs	r1, #0
     536:	6065      	str	r5, [r4, #4]
     538:	1d32      	adds	r2, r6, #4
     53a:	6860      	ldr	r0, [r4, #4]
     53c:	1b93      	subs	r3, r2, r6
     53e:	4281      	cmp	r1, r0
     540:	f102 0204 	add.w	r2, r2, #4
     544:	d213      	bcs.n	56e <rosserial_msgs::RequestParamResponse::deserialize(unsigned char*)+0x54>
     546:	f812 3c02 	ldrb.w	r3, [r2, #-2]
     54a:	f812 0c03 	ldrb.w	r0, [r2, #-3]
     54e:	041b      	lsls	r3, r3, #16
     550:	ea43 2300 	orr.w	r3, r3, r0, lsl #8
     554:	f812 0c04 	ldrb.w	r0, [r2, #-4]
     558:	4303      	orrs	r3, r0
     55a:	f812 0c01 	ldrb.w	r0, [r2, #-1]
     55e:	ea43 6300 	orr.w	r3, r3, r0, lsl #24
     562:	68e0      	ldr	r0, [r4, #12]
     564:	60a3      	str	r3, [r4, #8]
     566:	f840 3021 	str.w	r3, [r0, r1, lsl #2]
     56a:	3101      	adds	r1, #1
     56c:	e7e5      	b.n	53a <rosserial_msgs::RequestParamResponse::deserialize(unsigned char*)+0x20>
     56e:	18f2      	adds	r2, r6, r3
     570:	7895      	ldrb	r5, [r2, #2]
     572:	7850      	ldrb	r0, [r2, #1]
     574:	5cf1      	ldrb	r1, [r6, r3]
     576:	042d      	lsls	r5, r5, #16
     578:	ea45 2500 	orr.w	r5, r5, r0, lsl #8
     57c:	78d2      	ldrb	r2, [r2, #3]
     57e:	430d      	orrs	r5, r1
     580:	1d1f      	adds	r7, r3, #4
     582:	6923      	ldr	r3, [r4, #16]
     584:	ea45 6502 	orr.w	r5, r5, r2, lsl #24
     588:	429d      	cmp	r5, r3
     58a:	d904      	bls.n	596 <rosserial_msgs::RequestParamResponse::deserialize(unsigned char*)+0x7c>
     58c:	00a9      	lsls	r1, r5, #2
     58e:	69a0      	ldr	r0, [r4, #24]
     590:	f004 fde2 	bl	5158 <realloc>
     594:	61a0      	str	r0, [r4, #24]
     596:	2100      	movs	r1, #0
     598:	6125      	str	r5, [r4, #16]
     59a:	19f3      	adds	r3, r6, r7
     59c:	6922      	ldr	r2, [r4, #16]
     59e:	1b9d      	subs	r5, r3, r6
     5a0:	4291      	cmp	r1, r2
     5a2:	f103 0304 	add.w	r3, r3, #4
     5a6:	d213      	bcs.n	5d0 <rosserial_msgs::RequestParamResponse::deserialize(unsigned char*)+0xb6>
     5a8:	f813 2c02 	ldrb.w	r2, [r3, #-2]
     5ac:	f813 0c03 	ldrb.w	r0, [r3, #-3]
     5b0:	0412      	lsls	r2, r2, #16
     5b2:	ea42 2200 	orr.w	r2, r2, r0, lsl #8
     5b6:	f813 0c04 	ldrb.w	r0, [r3, #-4]
     5ba:	4302      	orrs	r2, r0
     5bc:	f813 0c01 	ldrb.w	r0, [r3, #-1]
     5c0:	ea42 6200 	orr.w	r2, r2, r0, lsl #24
     5c4:	69a0      	ldr	r0, [r4, #24]
     5c6:	6162      	str	r2, [r4, #20]
     5c8:	f840 2021 	str.w	r2, [r0, r1, lsl #2]
     5cc:	3101      	adds	r1, #1
     5ce:	e7e5      	b.n	59c <rosserial_msgs::RequestParamResponse::deserialize(unsigned char*)+0x82>
     5d0:	1973      	adds	r3, r6, r5
     5d2:	789f      	ldrb	r7, [r3, #2]
     5d4:	7859      	ldrb	r1, [r3, #1]
     5d6:	5d72      	ldrb	r2, [r6, r5]
     5d8:	043f      	lsls	r7, r7, #16
     5da:	78db      	ldrb	r3, [r3, #3]
     5dc:	ea47 2701 	orr.w	r7, r7, r1, lsl #8
     5e0:	4317      	orrs	r7, r2
     5e2:	ea47 6703 	orr.w	r7, r7, r3, lsl #24
     5e6:	69e3      	ldr	r3, [r4, #28]
     5e8:	3504      	adds	r5, #4
     5ea:	429f      	cmp	r7, r3
     5ec:	d904      	bls.n	5f8 <rosserial_msgs::RequestParamResponse::deserialize(unsigned char*)+0xde>
     5ee:	00b9      	lsls	r1, r7, #2
     5f0:	6a60      	ldr	r0, [r4, #36]	; 0x24
     5f2:	f004 fdb1 	bl	5158 <realloc>
     5f6:	6260      	str	r0, [r4, #36]	; 0x24
     5f8:	61e7      	str	r7, [r4, #28]
     5fa:	2700      	movs	r7, #0
     5fc:	46b8      	mov	r8, r7
     5fe:	69e3      	ldr	r3, [r4, #28]
     600:	429f      	cmp	r7, r3
     602:	d21a      	bcs.n	63a <rosserial_msgs::RequestParamResponse::deserialize(unsigned char*)+0x120>
     604:	1971      	adds	r1, r6, r5
     606:	a801      	add	r0, sp, #4
     608:	f7ff ff02 	bl	410 <void ros::Msg::arrToVar<unsigned long, unsigned char*>(unsigned long&, unsigned char*)>
     60c:	1d2b      	adds	r3, r5, #4
     60e:	9d01      	ldr	r5, [sp, #4]
     610:	18f2      	adds	r2, r6, r3
     612:	441d      	add	r5, r3
     614:	1b91      	subs	r1, r2, r6
     616:	42a9      	cmp	r1, r5
     618:	d204      	bcs.n	624 <rosserial_msgs::RequestParamResponse::deserialize(unsigned char*)+0x10a>
     61a:	f812 1b01 	ldrb.w	r1, [r2], #1
     61e:	f802 1c02 	strb.w	r1, [r2, #-2]
     622:	e7f7      	b.n	614 <rosserial_msgs::RequestParamResponse::deserialize(unsigned char*)+0xfa>
     624:	1972      	adds	r2, r6, r5
     626:	f802 8c01 	strb.w	r8, [r2, #-1]
     62a:	3b01      	subs	r3, #1
     62c:	6a62      	ldr	r2, [r4, #36]	; 0x24
     62e:	4433      	add	r3, r6
     630:	6223      	str	r3, [r4, #32]
     632:	f842 3027 	str.w	r3, [r2, r7, lsl #2]
     636:	3701      	adds	r7, #1
     638:	e7e1      	b.n	5fe <rosserial_msgs::RequestParamResponse::deserialize(unsigned char*)+0xe4>
     63a:	4628      	mov	r0, r5
     63c:	b002      	add	sp, #8
     63e:	e8bd 81f0 	ldmia.w	sp!, {r4, r5, r6, r7, r8, pc}
	...

00000644 <ros::NodeHandle_<MbedHardware, 25, 25, 512, 512>::requestSyncTime()>:
     644:	b530      	push	{r4, r5, lr}
     646:	4b0a      	ldr	r3, [pc, #40]	; (670 <ros::NodeHandle_<MbedHardware, 25, 25, 512, 512>::requestSyncTime()+0x2c>)
     648:	b085      	sub	sp, #20
     64a:	4604      	mov	r4, r0
     64c:	9301      	str	r3, [sp, #4]
     64e:	2300      	movs	r3, #0
     650:	9302      	str	r3, [sp, #8]
     652:	9303      	str	r3, [sp, #12]
     654:	f854 3b60 	ldr.w	r3, [r4], #96
     658:	aa01      	add	r2, sp, #4
     65a:	681b      	ldr	r3, [r3, #0]
     65c:	210a      	movs	r1, #10
     65e:	4605      	mov	r5, r0
     660:	4798      	blx	r3
     662:	4620      	mov	r0, r4
     664:	f002 fee0 	bl	3428 <mbed::Timer::read_ms()>
     668:	6728      	str	r0, [r5, #112]	; 0x70
     66a:	b005      	add	sp, #20
     66c:	bd30      	pop	{r4, r5, pc}
     66e:	bf00      	nop
     670:	000055c0 	.word	0x000055c0

00000674 <ros::NodeHandle_<MbedHardware, 25, 25, 512, 512>::negotiateTopics()>:
     674:	2200      	movs	r2, #0
     676:	e92d 41f0 	stmdb	sp!, {r4, r5, r6, r7, r8, lr}
     67a:	4605      	mov	r5, r0
     67c:	f44f 7700 	mov.w	r7, #512	; 0x200
     680:	4b29      	ldr	r3, [pc, #164]	; (728 <ros::NodeHandle_<MbedHardware, 25, 25, 512, 512>::negotiateTopics()+0xb4>)
     682:	b086      	sub	sp, #24
     684:	9300      	str	r3, [sp, #0]
     686:	4b29      	ldr	r3, [pc, #164]	; (72c <ros::NodeHandle_<MbedHardware, 25, 25, 512, 512>::negotiateTopics()+0xb8>)
     688:	f8ad 2004 	strh.w	r2, [sp, #4]
     68c:	9302      	str	r3, [sp, #8]
     68e:	9303      	str	r3, [sp, #12]
     690:	9304      	str	r3, [sp, #16]
     692:	9205      	str	r2, [sp, #20]
     694:	f500 6490 	add.w	r4, r0, #1152	; 0x480
     698:	f200 46e4 	addw	r6, r0, #1252	; 0x4e4
     69c:	6823      	ldr	r3, [r4, #0]
     69e:	b1bb      	cbz	r3, 6d0 <ros::NodeHandle_<MbedHardware, 25, 25, 512, 512>::negotiateTopics()+0x5c>
     6a0:	689a      	ldr	r2, [r3, #8]
     6a2:	6858      	ldr	r0, [r3, #4]
     6a4:	f8ad 2004 	strh.w	r2, [sp, #4]
     6a8:	681a      	ldr	r2, [r3, #0]
     6aa:	6803      	ldr	r3, [r0, #0]
     6ac:	9202      	str	r2, [sp, #8]
     6ae:	689b      	ldr	r3, [r3, #8]
     6b0:	4798      	blx	r3
     6b2:	6823      	ldr	r3, [r4, #0]
     6b4:	9003      	str	r0, [sp, #12]
     6b6:	6858      	ldr	r0, [r3, #4]
     6b8:	6803      	ldr	r3, [r0, #0]
     6ba:	68db      	ldr	r3, [r3, #12]
     6bc:	4798      	blx	r3
     6be:	6821      	ldr	r1, [r4, #0]
     6c0:	682b      	ldr	r3, [r5, #0]
     6c2:	9004      	str	r0, [sp, #16]
     6c4:	9705      	str	r7, [sp, #20]
     6c6:	681b      	ldr	r3, [r3, #0]
     6c8:	466a      	mov	r2, sp
     6ca:	6909      	ldr	r1, [r1, #16]
     6cc:	4628      	mov	r0, r5
     6ce:	4798      	blx	r3
     6d0:	3404      	adds	r4, #4
     6d2:	42b4      	cmp	r4, r6
     6d4:	d1e2      	bne.n	69c <ros::NodeHandle_<MbedHardware, 25, 25, 512, 512>::negotiateTopics()+0x28>
     6d6:	f44f 7700 	mov.w	r7, #512	; 0x200
     6da:	f505 66a9 	add.w	r6, r5, #1352	; 0x548
     6de:	6820      	ldr	r0, [r4, #0]
     6e0:	b1c8      	cbz	r0, 716 <ros::NodeHandle_<MbedHardware, 25, 25, 512, 512>::negotiateTopics()+0xa2>
     6e2:	6843      	ldr	r3, [r0, #4]
     6e4:	f8ad 3004 	strh.w	r3, [sp, #4]
     6e8:	6883      	ldr	r3, [r0, #8]
     6ea:	9302      	str	r3, [sp, #8]
     6ec:	6803      	ldr	r3, [r0, #0]
     6ee:	689b      	ldr	r3, [r3, #8]
     6f0:	4798      	blx	r3
     6f2:	9003      	str	r0, [sp, #12]
     6f4:	6820      	ldr	r0, [r4, #0]
     6f6:	6803      	ldr	r3, [r0, #0]
     6f8:	68db      	ldr	r3, [r3, #12]
     6fa:	4798      	blx	r3
     6fc:	682b      	ldr	r3, [r5, #0]
     6fe:	9004      	str	r0, [sp, #16]
     700:	6820      	ldr	r0, [r4, #0]
     702:	f8d3 8000 	ldr.w	r8, [r3]
     706:	6803      	ldr	r3, [r0, #0]
     708:	9705      	str	r7, [sp, #20]
     70a:	685b      	ldr	r3, [r3, #4]
     70c:	4798      	blx	r3
     70e:	466a      	mov	r2, sp
     710:	4601      	mov	r1, r0
     712:	4628      	mov	r0, r5
     714:	47c0      	blx	r8
     716:	3404      	adds	r4, #4
     718:	42a6      	cmp	r6, r4
     71a:	d1e0      	bne.n	6de <ros::NodeHandle_<MbedHardware, 25, 25, 512, 512>::negotiateTopics()+0x6a>
     71c:	2301      	movs	r3, #1
     71e:	f885 355c 	strb.w	r3, [r5, #1372]	; 0x55c
     722:	b006      	add	sp, #24
     724:	e8bd 81f0 	ldmia.w	sp!, {r4, r5, r6, r7, r8, pc}
     728:	000055d8 	.word	0x000055d8
     72c:	0000582b 	.word	0x0000582b

00000730 <ros::NodeHandle_<MbedHardware, 25, 25, 512, 512>::syncTime(unsigned char*)>:
     730:	b5f0      	push	{r4, r5, r6, r7, lr}
     732:	4b1f      	ldr	r3, [pc, #124]	; (7b0 <ros::NodeHandle_<MbedHardware, 25, 25, 512, 512>::syncTime(unsigned char*)+0x80>)
     734:	b085      	sub	sp, #20
     736:	9301      	str	r3, [sp, #4]
     738:	2300      	movs	r3, #0
     73a:	460e      	mov	r6, r1
     73c:	4604      	mov	r4, r0
     73e:	f100 0560 	add.w	r5, r0, #96	; 0x60
     742:	4628      	mov	r0, r5
     744:	9302      	str	r3, [sp, #8]
     746:	9303      	str	r3, [sp, #12]
     748:	f002 fe6e 	bl	3428 <mbed::Timer::read_ms()>
     74c:	4631      	mov	r1, r6
     74e:	f44f 767a 	mov.w	r6, #1000	; 0x3e8
     752:	6f22      	ldr	r2, [r4, #112]	; 0x70
     754:	1a87      	subs	r7, r0, r2
     756:	a801      	add	r0, sp, #4
     758:	f7ff fd02 	bl	160 <std_msgs::Time::deserialize(unsigned char*)>
     75c:	fbb7 f2f6 	udiv	r2, r7, r6
     760:	9b02      	ldr	r3, [sp, #8]
     762:	4628      	mov	r0, r5
     764:	4413      	add	r3, r2
     766:	fb06 7212 	mls	r2, r6, r2, r7
     76a:	9302      	str	r3, [sp, #8]
     76c:	4f11      	ldr	r7, [pc, #68]	; (7b4 <ros::NodeHandle_<MbedHardware, 25, 25, 512, 512>::syncTime(unsigned char*)+0x84>)
     76e:	9b03      	ldr	r3, [sp, #12]
     770:	fb07 3202 	mla	r2, r7, r2, r3
     774:	9203      	str	r2, [sp, #12]
     776:	f002 fe57 	bl	3428 <mbed::Timer::read_ms()>
     77a:	fbb0 f3f6 	udiv	r3, r0, r6
     77e:	9a02      	ldr	r2, [sp, #8]
     780:	9903      	ldr	r1, [sp, #12]
     782:	3a01      	subs	r2, #1
     784:	1ad2      	subs	r2, r2, r3
     786:	6762      	str	r2, [r4, #116]	; 0x74
     788:	4a0b      	ldr	r2, [pc, #44]	; (7b8 <ros::NodeHandle_<MbedHardware, 25, 25, 512, 512>::syncTime(unsigned char*)+0x88>)
     78a:	fb06 0313 	mls	r3, r6, r3, r0
     78e:	440a      	add	r2, r1
     790:	4621      	mov	r1, r4
     792:	fb07 2313 	mls	r3, r7, r3, r2
     796:	f104 0074 	add.w	r0, r4, #116	; 0x74
     79a:	f841 3f78 	str.w	r3, [r1, #120]!
     79e:	f000 fb2f 	bl	e00 <ros::normalizeSecNSec(unsigned long&, unsigned long&)>
     7a2:	4628      	mov	r0, r5
     7a4:	f002 fe40 	bl	3428 <mbed::Timer::read_ms()>
     7a8:	f8c4 0564 	str.w	r0, [r4, #1380]	; 0x564
     7ac:	b005      	add	sp, #20
     7ae:	bdf0      	pop	{r4, r5, r6, r7, pc}
     7b0:	000055c0 	.word	0x000055c0
     7b4:	000f4240 	.word	0x000f4240
     7b8:	3b9aca00 	.word	0x3b9aca00

000007bc <_GLOBAL__sub_I_nh>:
     7bc:	b573      	push	{r0, r1, r4, r5, r6, lr}
     7be:	4c42      	ldr	r4, [pc, #264]	; (8c8 <Heap_Size+0xc8>)
     7c0:	4b42      	ldr	r3, [pc, #264]	; (8cc <Heap_Size+0xcc>)
     7c2:	4620      	mov	r0, r4
     7c4:	2500      	movs	r5, #0
     7c6:	f840 3b04 	str.w	r3, [r0], #4
     7ca:	2304      	movs	r3, #4
     7cc:	4a40      	ldr	r2, [pc, #256]	; (8d0 <Heap_Size+0xd0>)
     7ce:	4941      	ldr	r1, [pc, #260]	; (8d4 <Heap_Size+0xd4>)
     7d0:	f104 0660 	add.w	r6, r4, #96	; 0x60
     7d4:	e88d 0028 	stmia.w	sp, {r3, r5}
     7d8:	f44f 7380 	mov.w	r3, #256	; 0x100
     7dc:	f000 fbe4 	bl	fa8 <BufferedSerial::BufferedSerial(PinName, PinName, unsigned long, unsigned long, char const*)>
     7e0:	4630      	mov	r0, r6
     7e2:	f002 fe37 	bl	3454 <mbed::Timer::Timer()>
     7e6:	f44f 4361 	mov.w	r3, #57600	; 0xe100
     7ea:	4630      	mov	r0, r6
     7ec:	f44f 7600 	mov.w	r6, #512	; 0x200
     7f0:	65e3      	str	r3, [r4, #92]	; 0x5c
     7f2:	f002 fded 	bl	33d0 <mbed::Timer::start()>
     7f6:	4632      	mov	r2, r6
     7f8:	4629      	mov	r1, r5
     7fa:	f104 0080 	add.w	r0, r4, #128	; 0x80
     7fe:	6725      	str	r5, [r4, #112]	; 0x70
     800:	6765      	str	r5, [r4, #116]	; 0x74
     802:	67a5      	str	r5, [r4, #120]	; 0x78
     804:	67e5      	str	r5, [r4, #124]	; 0x7c
     806:	f004 fa36 	bl	4c76 <memset>
     80a:	4632      	mov	r2, r6
     80c:	2664      	movs	r6, #100	; 0x64
     80e:	4629      	mov	r1, r5
     810:	f504 7020 	add.w	r0, r4, #640	; 0x280
     814:	f004 fa2f 	bl	4c76 <memset>
     818:	4632      	mov	r2, r6
     81a:	4629      	mov	r1, r5
     81c:	f504 6090 	add.w	r0, r4, #1152	; 0x480
     820:	f004 fa29 	bl	4c76 <memset>
     824:	4632      	mov	r2, r6
     826:	4629      	mov	r1, r5
     828:	f204 40e4 	addw	r0, r4, #1252	; 0x4e4
     82c:	f004 fa23 	bl	4c76 <memset>
     830:	4b29      	ldr	r3, [pc, #164]	; (8d8 <Heap_Size+0xd8>)
     832:	f8c4 5548 	str.w	r5, [r4, #1352]	; 0x548
     836:	f8c4 3570 	str.w	r3, [r4, #1392]	; 0x570
     83a:	2300      	movs	r3, #0
     83c:	f8c4 554c 	str.w	r5, [r4, #1356]	; 0x54c
     840:	f8c4 3584 	str.w	r3, [r4, #1412]	; 0x584
     844:	f8c4 5550 	str.w	r5, [r4, #1360]	; 0x550
     848:	f8c4 5554 	str.w	r5, [r4, #1364]	; 0x554
     84c:	f8c4 5558 	str.w	r5, [r4, #1368]	; 0x558
     850:	f884 555c 	strb.w	r5, [r4, #1372]	; 0x55c
     854:	f8c4 5560 	str.w	r5, [r4, #1376]	; 0x560
     858:	f8c4 5564 	str.w	r5, [r4, #1380]	; 0x564
     85c:	f8c4 5568 	str.w	r5, [r4, #1384]	; 0x568
     860:	f884 556c 	strb.w	r5, [r4, #1388]	; 0x56c
     864:	f8c4 5574 	str.w	r5, [r4, #1396]	; 0x574
     868:	f8c4 5578 	str.w	r5, [r4, #1400]	; 0x578
     86c:	f8c4 557c 	str.w	r5, [r4, #1404]	; 0x57c
     870:	f8c4 5580 	str.w	r5, [r4, #1408]	; 0x580
     874:	f8c4 5588 	str.w	r5, [r4, #1416]	; 0x588
     878:	f8c4 558c 	str.w	r5, [r4, #1420]	; 0x58c
     87c:	f8c4 5590 	str.w	r5, [r4, #1424]	; 0x590
     880:	f8c4 5594 	str.w	r5, [r4, #1428]	; 0x594
     884:	4a15      	ldr	r2, [pc, #84]	; (8dc <Heap_Size+0xdc>)
     886:	4916      	ldr	r1, [pc, #88]	; (8e0 <Heap_Size+0xe0>)
     888:	4620      	mov	r0, r4
     88a:	4c16      	ldr	r4, [pc, #88]	; (8e4 <Heap_Size+0xe4>)
     88c:	f002 ffe4 	bl	3858 <__aeabi_atexit>
     890:	4915      	ldr	r1, [pc, #84]	; (8e8 <Heap_Size+0xe8>)
     892:	4816      	ldr	r0, [pc, #88]	; (8ec <Heap_Size+0xec>)
     894:	f000 fa42 	bl	d1c <Servo::Servo(PinName)>
     898:	2218      	movs	r2, #24
     89a:	4629      	mov	r1, r5
     89c:	4620      	mov	r0, r4
     89e:	f004 f9ea 	bl	4c76 <memset>
     8a2:	4913      	ldr	r1, [pc, #76]	; (8f0 <Heap_Size+0xf0>)
     8a4:	4620      	mov	r0, r4
     8a6:	f000 fcc0 	bl	122a <gpio_init_out>
     8aa:	4b12      	ldr	r3, [pc, #72]	; (8f4 <Heap_Size+0xf4>)
     8ac:	4a12      	ldr	r2, [pc, #72]	; (8f8 <Heap_Size+0xf8>)
     8ae:	821d      	strh	r5, [r3, #16]
     8b0:	601a      	str	r2, [r3, #0]
     8b2:	4a12      	ldr	r2, [pc, #72]	; (8fc <Heap_Size+0xfc>)
     8b4:	60da      	str	r2, [r3, #12]
     8b6:	4a12      	ldr	r2, [pc, #72]	; (900 <Heap_Size+0x100>)
     8b8:	615a      	str	r2, [r3, #20]
     8ba:	2201      	movs	r2, #1
     8bc:	619a      	str	r2, [r3, #24]
     8be:	4a11      	ldr	r2, [pc, #68]	; (904 <Heap_Size+0x104>)
     8c0:	609a      	str	r2, [r3, #8]
     8c2:	b002      	add	sp, #8
     8c4:	bd70      	pop	{r4, r5, r6, pc}
     8c6:	bf00      	nop
     8c8:	100001ac 	.word	0x100001ac
     8cc:	00005638 	.word	0x00005638
     8d0:	2009c003 	.word	0x2009c003
     8d4:	2009c002 	.word	0x2009c002
     8d8:	00005608 	.word	0x00005608
     8dc:	100000c8 	.word	0x100000c8
     8e0:	00000c4d 	.word	0x00000c4d
     8e4:	10000194 	.word	0x10000194
     8e8:	2009c045 	.word	0x2009c045
     8ec:	10000744 	.word	0x10000744
     8f0:	2009c034 	.word	0x2009c034
     8f4:	10000758 	.word	0x10000758
     8f8:	0000564c 	.word	0x0000564c
     8fc:	00005620 	.word	0x00005620
     900:	00000241 	.word	0x00000241
     904:	0000565c 	.word	0x0000565c

00000908 <ros::NodeHandle_<MbedHardware, 25, 25, 512, 512>::spinOnce()>:
     908:	e92d 4ff7 	stmdb	sp!, {r0, r1, r2, r4, r5, r6, r7, r8, r9, r10, r11, lr}
     90c:	4604      	mov	r4, r0
     90e:	f100 0960 	add.w	r9, r0, #96	; 0x60
     912:	4648      	mov	r0, r9
     914:	f002 fd88 	bl	3428 <mbed::Timer::read_ms()>
     918:	f642 22f8 	movw	r2, #11000	; 0x2af8
     91c:	f8d4 3564 	ldr.w	r3, [r4, #1380]	; 0x564
     920:	4605      	mov	r5, r0
     922:	1ac3      	subs	r3, r0, r3
     924:	4293      	cmp	r3, r2
     926:	bf84      	itt	hi
     928:	2300      	movhi	r3, #0
     92a:	f884 355c 	strbhi.w	r3, [r4, #1372]	; 0x55c
     92e:	f8d4 3548 	ldr.w	r3, [r4, #1352]	; 0x548
     932:	b133      	cbz	r3, 942 <ros::NodeHandle_<MbedHardware, 25, 25, 512, 512>::spinOnce()+0x3a>
     934:	f8d4 3568 	ldr.w	r3, [r4, #1384]	; 0x568
     938:	4283      	cmp	r3, r0
     93a:	bf3c      	itt	cc
     93c:	2300      	movcc	r3, #0
     93e:	f8c4 3548 	strcc.w	r3, [r4, #1352]	; 0x548
     942:	2700      	movs	r7, #0
     944:	46ba      	mov	r10, r7
     946:	463e      	mov	r6, r7
     948:	f104 0b04 	add.w	r11, r4, #4
     94c:	f104 0880 	add.w	r8, r4, #128	; 0x80
     950:	6fe3      	ldr	r3, [r4, #124]	; 0x7c
     952:	b9e3      	cbnz	r3, 98e <ros::NodeHandle_<MbedHardware, 25, 25, 512, 512>::spinOnce()+0x86>
     954:	4658      	mov	r0, r11
     956:	f000 fa61 	bl	e1c <BufferedSerial::readable()>
     95a:	bb10      	cbnz	r0, 9a2 <ros::NodeHandle_<MbedHardware, 25, 25, 512, 512>::spinOnce()+0x9a>
     95c:	f894 355c 	ldrb.w	r3, [r4, #1372]	; 0x55c
     960:	b15b      	cbz	r3, 97a <ros::NodeHandle_<MbedHardware, 25, 25, 512, 512>::spinOnce()+0x72>
     962:	f640 12c4 	movw	r2, #2500	; 0x9c4
     966:	f8d4 3560 	ldr.w	r3, [r4, #1376]	; 0x560
     96a:	1aeb      	subs	r3, r5, r3
     96c:	4293      	cmp	r3, r2
     96e:	d904      	bls.n	97a <ros::NodeHandle_<MbedHardware, 25, 25, 512, 512>::spinOnce()+0x72>
     970:	4620      	mov	r0, r4
     972:	f7ff fe67 	bl	644 <ros::NodeHandle_<MbedHardware, 25, 25, 512, 512>::requestSyncTime()>
     976:	f8c4 5560 	str.w	r5, [r4, #1376]	; 0x560
     97a:	2f00      	cmp	r7, #0
     97c:	f040 80d7 	bne.w	b2e <ros::NodeHandle_<MbedHardware, 25, 25, 512, 512>::spinOnce()+0x226>
     980:	f1ba 0f00 	cmp.w	r10, #0
     984:	bf14      	ite	ne
     986:	f06f 0002 	mvnne.w	r0, #2
     98a:	2000      	moveq	r0, #0
     98c:	e0a6      	b.n	adc <ros::NodeHandle_<MbedHardware, 25, 25, 512, 512>::spinOnce()+0x1d4>
     98e:	4648      	mov	r0, r9
     990:	f002 fd4a 	bl	3428 <mbed::Timer::read_ms()>
     994:	6fe3      	ldr	r3, [r4, #124]	; 0x7c
     996:	1b40      	subs	r0, r0, r5
     998:	4298      	cmp	r0, r3
     99a:	d9db      	bls.n	954 <ros::NodeHandle_<MbedHardware, 25, 25, 512, 512>::spinOnce()+0x4c>
     99c:	f06f 0001 	mvn.w	r0, #1
     9a0:	e09c      	b.n	adc <ros::NodeHandle_<MbedHardware, 25, 25, 512, 512>::spinOnce()+0x1d4>
     9a2:	4658      	mov	r0, r11
     9a4:	f000 fa42 	bl	e2c <BufferedSerial::getc()>
     9a8:	2800      	cmp	r0, #0
     9aa:	dbd7      	blt.n	95c <ros::NodeHandle_<MbedHardware, 25, 25, 512, 512>::spinOnce()+0x54>
     9ac:	f8d4 3558 	ldr.w	r3, [r4, #1368]	; 0x558
     9b0:	f8d4 2548 	ldr.w	r2, [r4, #1352]	; 0x548
     9b4:	4403      	add	r3, r0
     9b6:	2a07      	cmp	r2, #7
     9b8:	f8c4 3558 	str.w	r3, [r4, #1368]	; 0x558
     9bc:	d110      	bne.n	9e0 <ros::NodeHandle_<MbedHardware, 25, 25, 512, 512>::spinOnce()+0xd8>
     9be:	f8d4 3554 	ldr.w	r3, [r4, #1364]	; 0x554
     9c2:	1c5a      	adds	r2, r3, #1
     9c4:	4423      	add	r3, r4
     9c6:	f8c4 2554 	str.w	r2, [r4, #1364]	; 0x554
     9ca:	f883 0080 	strb.w	r0, [r3, #128]	; 0x80
     9ce:	f8d4 354c 	ldr.w	r3, [r4, #1356]	; 0x54c
     9d2:	3b01      	subs	r3, #1
     9d4:	f8c4 354c 	str.w	r3, [r4, #1356]	; 0x54c
     9d8:	2b00      	cmp	r3, #0
     9da:	d1b9      	bne.n	950 <ros::NodeHandle_<MbedHardware, 25, 25, 512, 512>::spinOnce()+0x48>
     9dc:	2308      	movs	r3, #8
     9de:	e01c      	b.n	a1a <ros::NodeHandle_<MbedHardware, 25, 25, 512, 512>::spinOnce()+0x112>
     9e0:	b9b2      	cbnz	r2, a10 <ros::NodeHandle_<MbedHardware, 25, 25, 512, 512>::spinOnce()+0x108>
     9e2:	28ff      	cmp	r0, #255	; 0xff
     9e4:	d107      	bne.n	9f6 <ros::NodeHandle_<MbedHardware, 25, 25, 512, 512>::spinOnce()+0xee>
     9e6:	2301      	movs	r3, #1
     9e8:	f8c4 3548 	str.w	r3, [r4, #1352]	; 0x548
     9ec:	f105 0314 	add.w	r3, r5, #20
     9f0:	f8c4 3568 	str.w	r3, [r4, #1384]	; 0x568
     9f4:	e7ac      	b.n	950 <ros::NodeHandle_<MbedHardware, 25, 25, 512, 512>::spinOnce()+0x48>
     9f6:	4648      	mov	r0, r9
     9f8:	9201      	str	r2, [sp, #4]
     9fa:	f002 fd15 	bl	3428 <mbed::Timer::read_ms()>
     9fe:	f241 3388 	movw	r3, #5000	; 0x1388
     a02:	1b40      	subs	r0, r0, r5
     a04:	4298      	cmp	r0, r3
     a06:	9a01      	ldr	r2, [sp, #4]
     a08:	d9a2      	bls.n	950 <ros::NodeHandle_<MbedHardware, 25, 25, 512, 512>::spinOnce()+0x48>
     a0a:	f884 255c 	strb.w	r2, [r4, #1372]	; 0x55c
     a0e:	e7c5      	b.n	99c <ros::NodeHandle_<MbedHardware, 25, 25, 512, 512>::spinOnce()+0x94>
     a10:	2a01      	cmp	r2, #1
     a12:	d10f      	bne.n	a34 <ros::NodeHandle_<MbedHardware, 25, 25, 512, 512>::spinOnce()+0x12c>
     a14:	28fe      	cmp	r0, #254	; 0xfe
     a16:	d103      	bne.n	a20 <ros::NodeHandle_<MbedHardware, 25, 25, 512, 512>::spinOnce()+0x118>
     a18:	2302      	movs	r3, #2
     a1a:	f8c4 3548 	str.w	r3, [r4, #1352]	; 0x548
     a1e:	e797      	b.n	950 <ros::NodeHandle_<MbedHardware, 25, 25, 512, 512>::spinOnce()+0x48>
     a20:	f894 355c 	ldrb.w	r3, [r4, #1372]	; 0x55c
     a24:	f8c4 6548 	str.w	r6, [r4, #1352]	; 0x548
     a28:	2b00      	cmp	r3, #0
     a2a:	d191      	bne.n	950 <ros::NodeHandle_<MbedHardware, 25, 25, 512, 512>::spinOnce()+0x48>
     a2c:	4620      	mov	r0, r4
     a2e:	f7ff fe09 	bl	644 <ros::NodeHandle_<MbedHardware, 25, 25, 512, 512>::requestSyncTime()>
     a32:	e78d      	b.n	950 <ros::NodeHandle_<MbedHardware, 25, 25, 512, 512>::spinOnce()+0x48>
     a34:	2a02      	cmp	r2, #2
     a36:	d109      	bne.n	a4c <ros::NodeHandle_<MbedHardware, 25, 25, 512, 512>::spinOnce()+0x144>
     a38:	2303      	movs	r3, #3
     a3a:	f8c4 054c 	str.w	r0, [r4, #1356]	; 0x54c
     a3e:	f8c4 6554 	str.w	r6, [r4, #1364]	; 0x554
     a42:	f8c4 3548 	str.w	r3, [r4, #1352]	; 0x548
     a46:	f8c4 0558 	str.w	r0, [r4, #1368]	; 0x558
     a4a:	e781      	b.n	950 <ros::NodeHandle_<MbedHardware, 25, 25, 512, 512>::spinOnce()+0x48>
     a4c:	2a03      	cmp	r2, #3
     a4e:	d107      	bne.n	a60 <ros::NodeHandle_<MbedHardware, 25, 25, 512, 512>::spinOnce()+0x158>
     a50:	f8d4 354c 	ldr.w	r3, [r4, #1356]	; 0x54c
     a54:	eb03 2000 	add.w	r0, r3, r0, lsl #8
     a58:	f8c4 054c 	str.w	r0, [r4, #1356]	; 0x54c
     a5c:	2304      	movs	r3, #4
     a5e:	e7dc      	b.n	a1a <ros::NodeHandle_<MbedHardware, 25, 25, 512, 512>::spinOnce()+0x112>
     a60:	2a04      	cmp	r2, #4
     a62:	d10b      	bne.n	a7c <ros::NodeHandle_<MbedHardware, 25, 25, 512, 512>::spinOnce()+0x174>
     a64:	425a      	negs	r2, r3
     a66:	b2d2      	uxtb	r2, r2
     a68:	b2db      	uxtb	r3, r3
     a6a:	bf58      	it	pl
     a6c:	4253      	negpl	r3, r2
     a6e:	2bff      	cmp	r3, #255	; 0xff
     a70:	d101      	bne.n	a76 <ros::NodeHandle_<MbedHardware, 25, 25, 512, 512>::spinOnce()+0x16e>
     a72:	2305      	movs	r3, #5
     a74:	e7d1      	b.n	a1a <ros::NodeHandle_<MbedHardware, 25, 25, 512, 512>::spinOnce()+0x112>
     a76:	f8c4 6548 	str.w	r6, [r4, #1352]	; 0x548
     a7a:	e769      	b.n	950 <ros::NodeHandle_<MbedHardware, 25, 25, 512, 512>::spinOnce()+0x48>
     a7c:	2a05      	cmp	r2, #5
     a7e:	d103      	bne.n	a88 <ros::NodeHandle_<MbedHardware, 25, 25, 512, 512>::spinOnce()+0x180>
     a80:	f8c4 0550 	str.w	r0, [r4, #1360]	; 0x550
     a84:	2306      	movs	r3, #6
     a86:	e7dc      	b.n	a42 <ros::NodeHandle_<MbedHardware, 25, 25, 512, 512>::spinOnce()+0x13a>
     a88:	2a06      	cmp	r2, #6
     a8a:	d10b      	bne.n	aa4 <ros::NodeHandle_<MbedHardware, 25, 25, 512, 512>::spinOnce()+0x19c>
     a8c:	f8d4 3550 	ldr.w	r3, [r4, #1360]	; 0x550
     a90:	eb03 2000 	add.w	r0, r3, r0, lsl #8
     a94:	2307      	movs	r3, #7
     a96:	f8c4 0550 	str.w	r0, [r4, #1360]	; 0x550
     a9a:	f8c4 3548 	str.w	r3, [r4, #1352]	; 0x548
     a9e:	f8d4 354c 	ldr.w	r3, [r4, #1356]	; 0x54c
     aa2:	e799      	b.n	9d8 <ros::NodeHandle_<MbedHardware, 25, 25, 512, 512>::spinOnce()+0xd0>
     aa4:	2a08      	cmp	r2, #8
     aa6:	f47f af53 	bne.w	950 <ros::NodeHandle_<MbedHardware, 25, 25, 512, 512>::spinOnce()+0x48>
     aaa:	425a      	negs	r2, r3
     aac:	b2d2      	uxtb	r2, r2
     aae:	b2db      	uxtb	r3, r3
     ab0:	bf58      	it	pl
     ab2:	4253      	negpl	r3, r2
     ab4:	2bff      	cmp	r3, #255	; 0xff
     ab6:	f8c4 6548 	str.w	r6, [r4, #1352]	; 0x548
     aba:	f47f af49 	bne.w	950 <ros::NodeHandle_<MbedHardware, 25, 25, 512, 512>::spinOnce()+0x48>
     abe:	f8d4 3550 	ldr.w	r3, [r4, #1360]	; 0x550
     ac2:	b973      	cbnz	r3, ae2 <ros::NodeHandle_<MbedHardware, 25, 25, 512, 512>::spinOnce()+0x1da>
     ac4:	4620      	mov	r0, r4
     ac6:	f7ff fdbd 	bl	644 <ros::NodeHandle_<MbedHardware, 25, 25, 512, 512>::requestSyncTime()>
     aca:	4620      	mov	r0, r4
     acc:	f7ff fdd2 	bl	674 <ros::NodeHandle_<MbedHardware, 25, 25, 512, 512>::negotiateTopics()>
     ad0:	f04f 30ff 	mov.w	r0, #4294967295	; 0xffffffff
     ad4:	f8c4 5560 	str.w	r5, [r4, #1376]	; 0x560
     ad8:	f8c4 5564 	str.w	r5, [r4, #1380]	; 0x564
     adc:	b003      	add	sp, #12
     ade:	e8bd 8ff0 	ldmia.w	sp!, {r4, r5, r6, r7, r8, r9, r10, r11, pc}
     ae2:	2b0a      	cmp	r3, #10
     ae4:	d105      	bne.n	af2 <ros::NodeHandle_<MbedHardware, 25, 25, 512, 512>::spinOnce()+0x1ea>
     ae6:	4641      	mov	r1, r8
     ae8:	4620      	mov	r0, r4
     aea:	f7ff fe21 	bl	730 <ros::NodeHandle_<MbedHardware, 25, 25, 512, 512>::syncTime(unsigned char*)>
     aee:	2701      	movs	r7, #1
     af0:	e72e      	b.n	950 <ros::NodeHandle_<MbedHardware, 25, 25, 512, 512>::spinOnce()+0x48>
     af2:	2b06      	cmp	r3, #6
     af4:	d108      	bne.n	b08 <ros::NodeHandle_<MbedHardware, 25, 25, 512, 512>::spinOnce()+0x200>
     af6:	4641      	mov	r1, r8
     af8:	f504 60ae 	add.w	r0, r4, #1392	; 0x570
     afc:	f7ff fd0d 	bl	51a <rosserial_msgs::RequestParamResponse::deserialize(unsigned char*)>
     b00:	2301      	movs	r3, #1
     b02:	f884 356c 	strb.w	r3, [r4, #1388]	; 0x56c
     b06:	e723      	b.n	950 <ros::NodeHandle_<MbedHardware, 25, 25, 512, 512>::spinOnce()+0x48>
     b08:	2b0b      	cmp	r3, #11
     b0a:	d104      	bne.n	b16 <ros::NodeHandle_<MbedHardware, 25, 25, 512, 512>::spinOnce()+0x20e>
     b0c:	f884 655c 	strb.w	r6, [r4, #1372]	; 0x55c
     b10:	f04f 0a01 	mov.w	r10, #1
     b14:	e71c      	b.n	950 <ros::NodeHandle_<MbedHardware, 25, 25, 512, 512>::spinOnce()+0x48>
     b16:	eb04 0383 	add.w	r3, r4, r3, lsl #2
     b1a:	f8d3 0354 	ldr.w	r0, [r3, #852]	; 0x354
     b1e:	2800      	cmp	r0, #0
     b20:	f43f af16 	beq.w	950 <ros::NodeHandle_<MbedHardware, 25, 25, 512, 512>::spinOnce()+0x48>
     b24:	6803      	ldr	r3, [r0, #0]
     b26:	4641      	mov	r1, r8
     b28:	681b      	ldr	r3, [r3, #0]
     b2a:	4798      	blx	r3
     b2c:	e710      	b.n	950 <ros::NodeHandle_<MbedHardware, 25, 25, 512, 512>::spinOnce()+0x48>
     b2e:	f06f 0003 	mvn.w	r0, #3
     b32:	e7d3      	b.n	adc <ros::NodeHandle_<MbedHardware, 25, 25, 512, 512>::spinOnce()+0x1d4>

00000b34 <main>:
     b34:	4c13      	ldr	r4, [pc, #76]	; (b84 <main+0x50>)
     b36:	b508      	push	{r3, lr}
     b38:	6de1      	ldr	r1, [r4, #92]	; 0x5c
     b3a:	1d20      	adds	r0, r4, #4
     b3c:	f002 fcda 	bl	34f4 <mbed::SerialBase::baud(int)>
     b40:	2300      	movs	r3, #0
     b42:	f504 629c 	add.w	r2, r4, #1248	; 0x4e0
     b46:	f8c4 3548 	str.w	r3, [r4, #1352]	; 0x548
     b4a:	f8c4 354c 	str.w	r3, [r4, #1356]	; 0x54c
     b4e:	f8c4 3554 	str.w	r3, [r4, #1364]	; 0x554
     b52:	f8c4 3550 	str.w	r3, [r4, #1360]	; 0x550
     b56:	f852 1f04 	ldr.w	r1, [r2, #4]!
     b5a:	b971      	cbnz	r1, b7a <main+0x46>
     b5c:	4a0a      	ldr	r2, [pc, #40]	; (b88 <main+0x54>)
     b5e:	eb04 0483 	add.w	r4, r4, r3, lsl #2
     b62:	3364      	adds	r3, #100	; 0x64
     b64:	f8c4 24e4 	str.w	r2, [r4, #1252]	; 0x4e4
     b68:	6053      	str	r3, [r2, #4]
     b6a:	4c06      	ldr	r4, [pc, #24]	; (b84 <main+0x50>)
     b6c:	4620      	mov	r0, r4
     b6e:	f7ff fecb 	bl	908 <ros::NodeHandle_<MbedHardware, 25, 25, 512, 512>::spinOnce()>
     b72:	2001      	movs	r0, #1
     b74:	f002 fd64 	bl	3640 <wait_ms>
     b78:	e7f8      	b.n	b6c <main+0x38>
     b7a:	3301      	adds	r3, #1
     b7c:	2b19      	cmp	r3, #25
     b7e:	d1ea      	bne.n	b56 <main+0x22>
     b80:	e7f3      	b.n	b6a <main+0x36>
     b82:	bf00      	nop
     b84:	100001ac 	.word	0x100001ac
     b88:	10000758 	.word	0x10000758

00000b8c <ros::NodeHandle_<MbedHardware, 25, 25, 512, 512>::publish(int, ros::Msg const*)>:
     b8c:	b5f0      	push	{r4, r5, r6, r7, lr}
     b8e:	2963      	cmp	r1, #99	; 0x63
     b90:	b085      	sub	sp, #20
     b92:	4604      	mov	r4, r0
     b94:	460e      	mov	r6, r1
     b96:	dd03      	ble.n	ba0 <ros::NodeHandle_<MbedHardware, 25, 25, 512, 512>::publish(int, ros::Msg const*)+0x14>
     b98:	f890 555c 	ldrb.w	r5, [r0, #1372]	; 0x55c
     b9c:	2d00      	cmp	r5, #0
     b9e:	d04d      	beq.n	c3c <Stack_Size+0x3c>
     ba0:	6813      	ldr	r3, [r2, #0]
     ba2:	f204 2187 	addw	r1, r4, #647	; 0x287
     ba6:	681b      	ldr	r3, [r3, #0]
     ba8:	4610      	mov	r0, r2
     baa:	4798      	blx	r3
     bac:	23ff      	movs	r3, #255	; 0xff
     bae:	f884 3280 	strb.w	r3, [r4, #640]	; 0x280
     bb2:	23fe      	movs	r3, #254	; 0xfe
     bb4:	f3c0 2207 	ubfx	r2, r0, #8, #8
     bb8:	f884 3281 	strb.w	r3, [r4, #641]	; 0x281
     bbc:	b2c3      	uxtb	r3, r0
     bbe:	f884 3282 	strb.w	r3, [r4, #642]	; 0x282
     bc2:	4413      	add	r3, r2
     bc4:	43db      	mvns	r3, r3
     bc6:	f884 2283 	strb.w	r2, [r4, #643]	; 0x283
     bca:	f884 3284 	strb.w	r3, [r4, #644]	; 0x284
     bce:	2205      	movs	r2, #5
     bd0:	2300      	movs	r3, #0
     bd2:	f884 6285 	strb.w	r6, [r4, #645]	; 0x285
     bd6:	f346 2607 	sbfx	r6, r6, #8, #8
     bda:	f884 6286 	strb.w	r6, [r4, #646]	; 0x286
     bde:	f204 2185 	addw	r1, r4, #645	; 0x285
     be2:	1d86      	adds	r6, r0, #6
     be4:	42b2      	cmp	r2, r6
     be6:	dc04      	bgt.n	bf2 <ros::NodeHandle_<MbedHardware, 25, 25, 512, 512>::publish(int, ros::Msg const*)+0x66>
     be8:	f811 5b01 	ldrb.w	r5, [r1], #1
     bec:	3201      	adds	r2, #1
     bee:	442b      	add	r3, r5
     bf0:	e7f8      	b.n	be4 <ros::NodeHandle_<MbedHardware, 25, 25, 512, 512>::publish(int, ros::Msg const*)+0x58>
     bf2:	43db      	mvns	r3, r3
     bf4:	f100 0508 	add.w	r5, r0, #8
     bf8:	f5b5 7f00 	cmp.w	r5, #512	; 0x200
     bfc:	4420      	add	r0, r4
     bfe:	f880 3287 	strb.w	r3, [r0, #647]	; 0x287
     c02:	dc0c      	bgt.n	c1e <Stack_Size+0x1e>
     c04:	f504 7720 	add.w	r7, r4, #640	; 0x280
     c08:	463e      	mov	r6, r7
     c0a:	3404      	adds	r4, #4
     c0c:	1bf3      	subs	r3, r6, r7
     c0e:	429d      	cmp	r5, r3
     c10:	dd14      	ble.n	c3c <Stack_Size+0x3c>
     c12:	f816 1b01 	ldrb.w	r1, [r6], #1
     c16:	4620      	mov	r0, r4
     c18:	f000 fa33 	bl	1082 <BufferedSerial::putc(int)>
     c1c:	e7f6      	b.n	c0c <Stack_Size+0xc>
     c1e:	4b09      	ldr	r3, [pc, #36]	; (c44 <Stack_Size+0x44>)
     c20:	aa01      	add	r2, sp, #4
     c22:	9301      	str	r3, [sp, #4]
     c24:	2303      	movs	r3, #3
     c26:	f88d 3008 	strb.w	r3, [sp, #8]
     c2a:	4b07      	ldr	r3, [pc, #28]	; (c48 <Stack_Size+0x48>)
     c2c:	2107      	movs	r1, #7
     c2e:	9303      	str	r3, [sp, #12]
     c30:	6823      	ldr	r3, [r4, #0]
     c32:	4620      	mov	r0, r4
     c34:	681b      	ldr	r3, [r3, #0]
     c36:	4798      	blx	r3
     c38:	f04f 35ff 	mov.w	r5, #4294967295	; 0xffffffff
     c3c:	4628      	mov	r0, r5
     c3e:	b005      	add	sp, #20
     c40:	bdf0      	pop	{r4, r5, r6, r7, pc}
     c42:	bf00      	nop
     c44:	000055f0 	.word	0x000055f0
     c48:	0000570d 	.word	0x0000570d

00000c4c <ros::NodeHandle_<MbedHardware, 25, 25, 512, 512>::~NodeHandle_()>:
     c4c:	b510      	push	{r4, lr}
     c4e:	4604      	mov	r4, r0
     c50:	4b03      	ldr	r3, [pc, #12]	; (c60 <ros::NodeHandle_<MbedHardware, 25, 25, 512, 512>::~NodeHandle_()+0x14>)
     c52:	f840 3b04 	str.w	r3, [r0], #4
     c56:	f000 f933 	bl	ec0 <BufferedSerial::~BufferedSerial()>
     c5a:	4620      	mov	r0, r4
     c5c:	bd10      	pop	{r4, pc}
     c5e:	bf00      	nop
     c60:	00005638 	.word	0x00005638
     c64:	00000000 	.word	0x00000000

00000c68 <Servo::write(float)>:
     c68:	e92d 43f8 	stmdb	sp!, {r3, r4, r5, r6, r7, r8, r9, lr}
     c6c:	6886      	ldr	r6, [r0, #8]
     c6e:	4607      	mov	r7, r0
     c70:	4630      	mov	r0, r6
     c72:	460c      	mov	r4, r1
     c74:	f003 f834 	bl	3ce0 <__aeabi_f2d>
     c78:	4602      	mov	r2, r0
     c7a:	460b      	mov	r3, r1
     c7c:	f002 fed2 	bl	3a24 <__adddf3>
     c80:	4680      	mov	r8, r0
     c82:	4620      	mov	r0, r4
     c84:	4689      	mov	r9, r1
     c86:	f003 f82b 	bl	3ce0 <__aeabi_f2d>
     c8a:	2200      	movs	r2, #0
     c8c:	4b22      	ldr	r3, [pc, #136]	; (d18 <Servo::write(float)+0xb0>)
     c8e:	f002 fec7 	bl	3a20 <__aeabi_dsub>
     c92:	4602      	mov	r2, r0
     c94:	460b      	mov	r3, r1
     c96:	4640      	mov	r0, r8
     c98:	4649      	mov	r1, r9
     c9a:	f003 f875 	bl	3d88 <__aeabi_dmul>
     c9e:	f003 fa85 	bl	41ac <__aeabi_d2f>
     ca2:	f106 4500 	add.w	r5, r6, #2147483648	; 0x80000000
     ca6:	4629      	mov	r1, r5
     ca8:	4680      	mov	r8, r0
     caa:	f003 fd7b 	bl	47a4 <__aeabi_fcmplt>
     cae:	b928      	cbnz	r0, cbc <Servo::write(float)+0x54>
     cb0:	4641      	mov	r1, r8
     cb2:	4630      	mov	r0, r6
     cb4:	f003 fd76 	bl	47a4 <__aeabi_fcmplt>
     cb8:	bb00      	cbnz	r0, cfc <Servo::write(float)+0x94>
     cba:	4645      	mov	r5, r8
     cbc:	f000 fb4a 	bl	1354 <core_util_critical_section_enter>
     cc0:	4628      	mov	r0, r5
     cc2:	f003 f80d 	bl	3ce0 <__aeabi_f2d>
     cc6:	a312      	add	r3, pc, #72	; (adr r3, d10 <Servo::write(float)+0xa8>)
     cc8:	e9d3 2300 	ldrd	r2, r3, [r3]
     ccc:	f002 feaa 	bl	3a24 <__adddf3>
     cd0:	f003 fa6c 	bl	41ac <__aeabi_d2f>
     cd4:	4601      	mov	r1, r0
     cd6:	4638      	mov	r0, r7
     cd8:	f001 ff7e 	bl	2bd8 <pwmout_pulsewidth>
     cdc:	f000 fb50 	bl	1380 <core_util_critical_section_exit>
     ce0:	2100      	movs	r1, #0
     ce2:	4620      	mov	r0, r4
     ce4:	f003 fd5e 	bl	47a4 <__aeabi_fcmplt>
     ce8:	b950      	cbnz	r0, d00 <Servo::write(float)+0x98>
     cea:	f04f 517e 	mov.w	r1, #1065353216	; 0x3f800000
     cee:	4620      	mov	r0, r4
     cf0:	f003 fd76 	bl	47e0 <__aeabi_fcmpgt>
     cf4:	b930      	cbnz	r0, d04 <Servo::write(float)+0x9c>
     cf6:	613c      	str	r4, [r7, #16]
     cf8:	e8bd 83f8 	ldmia.w	sp!, {r3, r4, r5, r6, r7, r8, r9, pc}
     cfc:	4635      	mov	r5, r6
     cfe:	e7dd      	b.n	cbc <Servo::write(float)+0x54>
     d00:	2400      	movs	r4, #0
     d02:	e7f8      	b.n	cf6 <Servo::write(float)+0x8e>
     d04:	f04f 547e 	mov.w	r4, #1065353216	; 0x3f800000
     d08:	e7f5      	b.n	cf6 <Servo::write(float)+0x8e>
     d0a:	bf00      	nop
     d0c:	f3af 8000 	nop.w
     d10:	bc6a7efa 	.word	0xbc6a7efa
     d14:	3f589374 	.word	0x3f589374
     d18:	3fe00000 	.word	0x3fe00000

00000d1c <Servo::Servo(PinName)>:
     d1c:	b538      	push	{r3, r4, r5, lr}
     d1e:	4604      	mov	r4, r0
     d20:	460d      	mov	r5, r1
     d22:	f000 fb17 	bl	1354 <core_util_critical_section_enter>
     d26:	4629      	mov	r1, r5
     d28:	4620      	mov	r0, r4
     d2a:	f001 fef5 	bl	2b18 <pwmout_init>
     d2e:	f000 fb27 	bl	1380 <core_util_critical_section_exit>
     d32:	4b09      	ldr	r3, [pc, #36]	; (d58 <Servo::Servo(PinName)+0x3c>)
     d34:	60a3      	str	r3, [r4, #8]
     d36:	4b09      	ldr	r3, [pc, #36]	; (d5c <Servo::Servo(PinName)+0x40>)
     d38:	60e3      	str	r3, [r4, #12]
     d3a:	f000 fb0b 	bl	1354 <core_util_critical_section_enter>
     d3e:	4620      	mov	r0, r4
     d40:	4907      	ldr	r1, [pc, #28]	; (d60 <Servo::Servo(PinName)+0x44>)
     d42:	f001 fed9 	bl	2af8 <pwmout_period>
     d46:	f000 fb1b 	bl	1380 <core_util_critical_section_exit>
     d4a:	4620      	mov	r0, r4
     d4c:	f04f 517c 	mov.w	r1, #1056964608	; 0x3f000000
     d50:	f7ff ff8a 	bl	c68 <Servo::write(float)>
     d54:	4620      	mov	r0, r4
     d56:	bd38      	pop	{r3, r4, r5, pc}
     d58:	3a03126f 	.word	0x3a03126f
     d5c:	43340000 	.word	0x43340000
     d60:	3ca3d70a 	.word	0x3ca3d70a
     d64:	00000000 	.word	0x00000000

00000d68 <Servo::position(float)>:
     d68:	b5f8      	push	{r3, r4, r5, r6, r7, lr}
     d6a:	4606      	mov	r6, r0
     d6c:	4608      	mov	r0, r1
     d6e:	68f1      	ldr	r1, [r6, #12]
     d70:	f003 fc2e 	bl	45d0 <__aeabi_fdiv>
     d74:	68b5      	ldr	r5, [r6, #8]
     d76:	4601      	mov	r1, r0
     d78:	f003 fa6e 	bl	4258 <__addsf3>
     d7c:	f04f 517e 	mov.w	r1, #1065353216	; 0x3f800000
     d80:	f003 fa68 	bl	4254 <__aeabi_fsub>
     d84:	4629      	mov	r1, r5
     d86:	f003 fb6f 	bl	4468 <__aeabi_fmul>
     d8a:	f105 4400 	add.w	r4, r5, #2147483648	; 0x80000000
     d8e:	4621      	mov	r1, r4
     d90:	4607      	mov	r7, r0
     d92:	f003 fd07 	bl	47a4 <__aeabi_fcmplt>
     d96:	b928      	cbnz	r0, da4 <Servo::position(float)+0x3c>
     d98:	4639      	mov	r1, r7
     d9a:	4628      	mov	r0, r5
     d9c:	f003 fd02 	bl	47a4 <__aeabi_fcmplt>
     da0:	b9a0      	cbnz	r0, dcc <Servo::position(float)+0x64>
     da2:	463c      	mov	r4, r7
     da4:	f000 fad6 	bl	1354 <core_util_critical_section_enter>
     da8:	4620      	mov	r0, r4
     daa:	f002 ff99 	bl	3ce0 <__aeabi_f2d>
     dae:	a308      	add	r3, pc, #32	; (adr r3, dd0 <Servo::position(float)+0x68>)
     db0:	e9d3 2300 	ldrd	r2, r3, [r3]
     db4:	f002 fe36 	bl	3a24 <__adddf3>
     db8:	f003 f9f8 	bl	41ac <__aeabi_d2f>
     dbc:	4601      	mov	r1, r0
     dbe:	4630      	mov	r0, r6
     dc0:	f001 ff0a 	bl	2bd8 <pwmout_pulsewidth>
     dc4:	e8bd 40f8 	ldmia.w	sp!, {r3, r4, r5, r6, r7, lr}
     dc8:	f000 bada 	b.w	1380 <core_util_critical_section_exit>
     dcc:	462c      	mov	r4, r5
     dce:	e7e9      	b.n	da4 <Servo::position(float)+0x3c>
     dd0:	bc6a7efa 	.word	0xbc6a7efa
     dd4:	3f589374 	.word	0x3f589374

00000dd8 <_start>:
     dd8:	4807      	ldr	r0, [pc, #28]	; (df8 <_start+0x20>)
     dda:	4a08      	ldr	r2, [pc, #32]	; (dfc <_start+0x24>)
     ddc:	b508      	push	{r3, lr}
     dde:	1a12      	subs	r2, r2, r0
     de0:	2100      	movs	r1, #0
     de2:	f003 ff48 	bl	4c76 <memset>
     de6:	f002 fcf1 	bl	37cc <software_init_hook>
     dea:	f003 fedd 	bl	4ba8 <__libc_init_array>
     dee:	f002 fcf4 	bl	37da <__wrap_main>
     df2:	f002 fd33 	bl	385c <__wrap_exit>
     df6:	bf00      	nop
     df8:	10000178 	.word	0x10000178
     dfc:	1000246c 	.word	0x1000246c

00000e00 <ros::normalizeSecNSec(unsigned long&, unsigned long&)>:
     e00:	b530      	push	{r4, r5, lr}
     e02:	680d      	ldr	r5, [r1, #0]
     e04:	4c04      	ldr	r4, [pc, #16]	; (e18 <ros::normalizeSecNSec(unsigned long&, unsigned long&)+0x18>)
     e06:	6802      	ldr	r2, [r0, #0]
     e08:	fbb5 f3f4 	udiv	r3, r5, r4
     e0c:	441a      	add	r2, r3
     e0e:	fb04 5313 	mls	r3, r4, r3, r5
     e12:	6002      	str	r2, [r0, #0]
     e14:	600b      	str	r3, [r1, #0]
     e16:	bd30      	pop	{r4, r5, pc}
     e18:	3b9aca00 	.word	0x3b9aca00

00000e1c <BufferedSerial::readable()>:
     e1c:	6b42      	ldr	r2, [r0, #52]	; 0x34
     e1e:	6b80      	ldr	r0, [r0, #56]	; 0x38
     e20:	1a10      	subs	r0, r2, r0
     e22:	bf18      	it	ne
     e24:	2001      	movne	r0, #1
     e26:	4770      	bx	lr

00000e28 <BufferedSerial::writeable()>:
     e28:	2001      	movs	r0, #1
     e2a:	4770      	bx	lr

00000e2c <BufferedSerial::getc()>:
     e2c:	4603      	mov	r3, r0
     e2e:	b510      	push	{r4, lr}
     e30:	6b82      	ldr	r2, [r0, #56]	; 0x38
     e32:	6b01      	ldr	r1, [r0, #48]	; 0x30
     e34:	1c50      	adds	r0, r2, #1
     e36:	6398      	str	r0, [r3, #56]	; 0x38
     e38:	5c88      	ldrb	r0, [r1, r2]
     e3a:	6bda      	ldr	r2, [r3, #60]	; 0x3c
     e3c:	6b9c      	ldr	r4, [r3, #56]	; 0x38
     e3e:	3a01      	subs	r2, #1
     e40:	fbb4 f1f2 	udiv	r1, r4, r2
     e44:	fb02 4211 	mls	r2, r2, r1, r4
     e48:	639a      	str	r2, [r3, #56]	; 0x38
     e4a:	bd10      	pop	{r4, pc}

00000e4c <void mbed::Callback<void ()>::function_move<mbed::Callback<void ()>::method_context<BufferedSerial, void (BufferedSerial::*)()> >(void*, void const*)>:
     e4c:	4603      	mov	r3, r0
     e4e:	b110      	cbz	r0, e56 <void mbed::Callback<void ()>::function_move<mbed::Callback<void ()>::method_context<BufferedSerial, void (BufferedSerial::*)()> >(void*, void const*)+0xa>
     e50:	c907      	ldmia	r1, {r0, r1, r2}
     e52:	e883 0007 	stmia.w	r3, {r0, r1, r2}
     e56:	4770      	bx	lr

00000e58 <void mbed::Callback<void ()>::function_dtor<mbed::Callback<void ()>::method_context<BufferedSerial, void (BufferedSerial::*)()> >(void*)>:
     e58:	4770      	bx	lr

00000e5a <void mbed::Callback<void ()>::function_call<mbed::Callback<void ()>::method_context<BufferedSerial, void (BufferedSerial::*)()> >(void const*)>:
     e5a:	6842      	ldr	r2, [r0, #4]
     e5c:	6881      	ldr	r1, [r0, #8]
     e5e:	f012 0f01 	tst.w	r2, #1
     e62:	ea4f 0262 	mov.w	r2, r2, asr #1
     e66:	6803      	ldr	r3, [r0, #0]
     e68:	bf1c      	itt	ne
     e6a:	5888      	ldrne	r0, [r1, r2]
     e6c:	58c3      	ldrne	r3, [r0, r3]
     e6e:	1888      	adds	r0, r1, r2
     e70:	4718      	bx	r3

00000e72 <mbed::Callback<void ()>::~Callback()>:
     e72:	68c3      	ldr	r3, [r0, #12]
     e74:	b510      	push	{r4, lr}
     e76:	4604      	mov	r4, r0
     e78:	b10b      	cbz	r3, e7e <mbed::Callback<void ()>::~Callback()+0xc>
     e7a:	689b      	ldr	r3, [r3, #8]
     e7c:	4798      	blx	r3
     e7e:	4620      	mov	r0, r4
     e80:	bd10      	pop	{r4, pc}
	...

00000e84 <mbed::SerialBase::~SerialBase()>:
     e84:	b570      	push	{r4, r5, r6, lr}
     e86:	4605      	mov	r5, r0
     e88:	4b07      	ldr	r3, [pc, #28]	; (ea8 <mbed::SerialBase::~SerialBase()+0x24>)
     e8a:	4606      	mov	r6, r0
     e8c:	f845 3b0c 	str.w	r3, [r5], #12
     e90:	b145      	cbz	r5, ea4 <mbed::SerialBase::~SerialBase()+0x20>
     e92:	f100 042c 	add.w	r4, r0, #44	; 0x2c
     e96:	42ac      	cmp	r4, r5
     e98:	d004      	beq.n	ea4 <mbed::SerialBase::~SerialBase()+0x20>
     e9a:	3c10      	subs	r4, #16
     e9c:	4620      	mov	r0, r4
     e9e:	f7ff ffe8 	bl	e72 <mbed::Callback<void ()>::~Callback()>
     ea2:	e7f8      	b.n	e96 <mbed::SerialBase::~SerialBase()+0x12>
     ea4:	4630      	mov	r0, r6
     ea6:	bd70      	pop	{r4, r5, r6, pc}
     ea8:	00005b34 	.word	0x00005b34

00000eac <mbed::SerialBase::~SerialBase()>:
     eac:	b510      	push	{r4, lr}
     eae:	4604      	mov	r4, r0
     eb0:	f7ff ffe8 	bl	e84 <mbed::SerialBase::~SerialBase()>
     eb4:	4620      	mov	r0, r4
     eb6:	f002 fced 	bl	3894 <operator delete(void*)>
     eba:	4620      	mov	r0, r4
     ebc:	bd10      	pop	{r4, pc}
	...

00000ec0 <BufferedSerial::~BufferedSerial()>:
     ec0:	b530      	push	{r4, r5, lr}
     ec2:	2500      	movs	r5, #0
     ec4:	4604      	mov	r4, r0
     ec6:	4b12      	ldr	r3, [pc, #72]	; (f10 <BufferedSerial::~BufferedSerial()+0x50>)
     ec8:	b085      	sub	sp, #20
     eca:	6003      	str	r3, [r0, #0]
     ecc:	462a      	mov	r2, r5
     ece:	4669      	mov	r1, sp
     ed0:	9503      	str	r5, [sp, #12]
     ed2:	f002 fb61 	bl	3598 <mbed::SerialBase::attach(mbed::Callback<void ()>, mbed::SerialBase::IrqType)>
     ed6:	4668      	mov	r0, sp
     ed8:	f7ff ffcb 	bl	e72 <mbed::Callback<void ()>::~Callback()>
     edc:	2201      	movs	r2, #1
     ede:	4669      	mov	r1, sp
     ee0:	4620      	mov	r0, r4
     ee2:	9503      	str	r5, [sp, #12]
     ee4:	f002 fb58 	bl	3598 <mbed::SerialBase::attach(mbed::Callback<void ()>, mbed::SerialBase::IrqType)>
     ee8:	4668      	mov	r0, sp
     eea:	f7ff ffc2 	bl	e72 <mbed::Callback<void ()>::~Callback()>
     eee:	f104 0040 	add.w	r0, r4, #64	; 0x40
     ef2:	f000 f945 	bl	1180 <Buffer<char>::~Buffer()>
     ef6:	f104 0030 	add.w	r0, r4, #48	; 0x30
     efa:	f000 f941 	bl	1180 <Buffer<char>::~Buffer()>
     efe:	4b05      	ldr	r3, [pc, #20]	; (f14 <BufferedSerial::~BufferedSerial()+0x54>)
     f00:	4620      	mov	r0, r4
     f02:	6023      	str	r3, [r4, #0]
     f04:	f7ff ffbe 	bl	e84 <mbed::SerialBase::~SerialBase()>
     f08:	4620      	mov	r0, r4
     f0a:	b005      	add	sp, #20
     f0c:	bd30      	pop	{r4, r5, pc}
     f0e:	bf00      	nop
     f10:	00005834 	.word	0x00005834
     f14:	00005b1c 	.word	0x00005b1c

00000f18 <BufferedSerial::~BufferedSerial()>:
     f18:	b510      	push	{r4, lr}
     f1a:	4604      	mov	r4, r0
     f1c:	f7ff ffd0 	bl	ec0 <BufferedSerial::~BufferedSerial()>
     f20:	4620      	mov	r0, r4
     f22:	f002 fcb7 	bl	3894 <operator delete(void*)>
     f26:	4620      	mov	r0, r4
     f28:	bd10      	pop	{r4, pc}

00000f2a <BufferedSerial::txIrq()>:
     f2a:	b530      	push	{r4, r5, lr}
     f2c:	4604      	mov	r4, r0
     f2e:	b085      	sub	sp, #20
     f30:	1d05      	adds	r5, r0, #4
     f32:	4628      	mov	r0, r5
     f34:	f002 f874 	bl	3020 <serial_writable>
     f38:	b1f0      	cbz	r0, f78 <BufferedSerial::txIrq()+0x4e>
     f3a:	6c62      	ldr	r2, [r4, #68]	; 0x44
     f3c:	6ca3      	ldr	r3, [r4, #72]	; 0x48
     f3e:	429a      	cmp	r2, r3
     f40:	d010      	beq.n	f64 <BufferedSerial::txIrq()+0x3a>
     f42:	6ca3      	ldr	r3, [r4, #72]	; 0x48
     f44:	6c22      	ldr	r2, [r4, #64]	; 0x40
     f46:	1c59      	adds	r1, r3, #1
     f48:	64a1      	str	r1, [r4, #72]	; 0x48
     f4a:	5cd1      	ldrb	r1, [r2, r3]
     f4c:	6ce3      	ldr	r3, [r4, #76]	; 0x4c
     f4e:	6ca0      	ldr	r0, [r4, #72]	; 0x48
     f50:	3b01      	subs	r3, #1
     f52:	fbb0 f2f3 	udiv	r2, r0, r3
     f56:	fb03 0312 	mls	r3, r3, r2, r0
     f5a:	4628      	mov	r0, r5
     f5c:	64a3      	str	r3, [r4, #72]	; 0x48
     f5e:	f002 f885 	bl	306c <serial_putc>
     f62:	e7e6      	b.n	f32 <BufferedSerial::txIrq()+0x8>
     f64:	2300      	movs	r3, #0
     f66:	4620      	mov	r0, r4
     f68:	2201      	movs	r2, #1
     f6a:	4669      	mov	r1, sp
     f6c:	9303      	str	r3, [sp, #12]
     f6e:	f002 fb13 	bl	3598 <mbed::SerialBase::attach(mbed::Callback<void ()>, mbed::SerialBase::IrqType)>
     f72:	4668      	mov	r0, sp
     f74:	f7ff ff7d 	bl	e72 <mbed::Callback<void ()>::~Callback()>
     f78:	b005      	add	sp, #20
     f7a:	bd30      	pop	{r4, r5, pc}

00000f7c <void mbed::SerialBase::attach<BufferedSerial>(BufferedSerial*, void (BufferedSerial::*)(), mbed::SerialBase::IrqType)>:
     f7c:	b510      	push	{r4, lr}
     f7e:	b086      	sub	sp, #24
     f80:	e88d 000c 	stmia.w	sp, {r2, r3}
     f84:	9b01      	ldr	r3, [sp, #4]
     f86:	9202      	str	r2, [sp, #8]
     f88:	9303      	str	r3, [sp, #12]
     f8a:	4b06      	ldr	r3, [pc, #24]	; (fa4 <void mbed::SerialBase::attach<BufferedSerial>(BufferedSerial*, void (BufferedSerial::*)(), mbed::SerialBase::IrqType)+0x28>)
     f8c:	9104      	str	r1, [sp, #16]
     f8e:	f89d 2020 	ldrb.w	r2, [sp, #32]
     f92:	a902      	add	r1, sp, #8
     f94:	9305      	str	r3, [sp, #20]
     f96:	f002 faff 	bl	3598 <mbed::SerialBase::attach(mbed::Callback<void ()>, mbed::SerialBase::IrqType)>
     f9a:	a802      	add	r0, sp, #8
     f9c:	f7ff ff69 	bl	e72 <mbed::Callback<void ()>::~Callback()>
     fa0:	b006      	add	sp, #24
     fa2:	bd10      	pop	{r4, pc}
     fa4:	000057a8 	.word	0x000057a8

00000fa8 <BufferedSerial::BufferedSerial(PinName, PinName, unsigned long, unsigned long, char const*)>:
     fa8:	b57f      	push	{r0, r1, r2, r3, r4, r5, r6, lr}
     faa:	4604      	mov	r4, r0
     fac:	461d      	mov	r5, r3
     fae:	f44f 5316 	mov.w	r3, #9600	; 0x2580
     fb2:	9e08      	ldr	r6, [sp, #32]
     fb4:	f002 fa8a 	bl	34cc <mbed::RawSerial::RawSerial(PinName, PinName, int)>
     fb8:	4620      	mov	r0, r4
     fba:	4b0e      	ldr	r3, [pc, #56]	; (ff4 <BufferedSerial::BufferedSerial(PinName, PinName, unsigned long, unsigned long, char const*)+0x4c>)
     fbc:	4629      	mov	r1, r5
     fbe:	f840 3b30 	str.w	r3, [r0], #48
     fc2:	f000 f8ec 	bl	119e <Buffer<char>::Buffer(unsigned long)>
     fc6:	fb06 f105 	mul.w	r1, r6, r5
     fca:	f104 0040 	add.w	r0, r4, #64	; 0x40
     fce:	f000 f8e6 	bl	119e <Buffer<char>::Buffer(unsigned long)>
     fd2:	4b09      	ldr	r3, [pc, #36]	; (ff8 <BufferedSerial::BufferedSerial(PinName, PinName, unsigned long, unsigned long, char const*)+0x50>)
     fd4:	4620      	mov	r0, r4
     fd6:	9302      	str	r3, [sp, #8]
     fd8:	2300      	movs	r3, #0
     fda:	9303      	str	r3, [sp, #12]
     fdc:	9300      	str	r3, [sp, #0]
     fde:	ab04      	add	r3, sp, #16
     fe0:	e913 000c 	ldmdb	r3, {r2, r3}
     fe4:	4621      	mov	r1, r4
     fe6:	f7ff ffc9 	bl	f7c <void mbed::SerialBase::attach<BufferedSerial>(BufferedSerial*, void (BufferedSerial::*)(), mbed::SerialBase::IrqType)>
     fea:	4620      	mov	r0, r4
     fec:	6525      	str	r5, [r4, #80]	; 0x50
     fee:	6566      	str	r6, [r4, #84]	; 0x54
     ff0:	b004      	add	sp, #16
     ff2:	bd70      	pop	{r4, r5, r6, pc}
     ff4:	00005834 	.word	0x00005834
     ff8:	00001063 	.word	0x00001063

00000ffc <BufferedSerial::prime()>:
     ffc:	b570      	push	{r4, r5, r6, lr}
     ffe:	4604      	mov	r4, r0
    1000:	b086      	sub	sp, #24
    1002:	3004      	adds	r0, #4
    1004:	f002 f80c 	bl	3020 <serial_writable>
    1008:	b1c0      	cbz	r0, 103c <BufferedSerial::prime()+0x40>
    100a:	2600      	movs	r6, #0
    100c:	ad02      	add	r5, sp, #8
    100e:	2201      	movs	r2, #1
    1010:	4629      	mov	r1, r5
    1012:	4620      	mov	r0, r4
    1014:	9605      	str	r6, [sp, #20]
    1016:	f002 fabf 	bl	3598 <mbed::SerialBase::attach(mbed::Callback<void ()>, mbed::SerialBase::IrqType)>
    101a:	4628      	mov	r0, r5
    101c:	f7ff ff29 	bl	e72 <mbed::Callback<void ()>::~Callback()>
    1020:	4620      	mov	r0, r4
    1022:	f7ff ff82 	bl	f2a <BufferedSerial::txIrq()>
    1026:	4b06      	ldr	r3, [pc, #24]	; (1040 <BufferedSerial::prime()+0x44>)
    1028:	9603      	str	r6, [sp, #12]
    102a:	9302      	str	r3, [sp, #8]
    102c:	2301      	movs	r3, #1
    102e:	9300      	str	r3, [sp, #0]
    1030:	e895 000c 	ldmia.w	r5, {r2, r3}
    1034:	4621      	mov	r1, r4
    1036:	4620      	mov	r0, r4
    1038:	f7ff ffa0 	bl	f7c <void mbed::SerialBase::attach<BufferedSerial>(BufferedSerial*, void (BufferedSerial::*)(), mbed::SerialBase::IrqType)>
    103c:	b006      	add	sp, #24
    103e:	bd70      	pop	{r4, r5, r6, pc}
    1040:	00000f2b 	.word	0x00000f2b

00001044 <Buffer<char>::put(char)>:
    1044:	6843      	ldr	r3, [r0, #4]
    1046:	6802      	ldr	r2, [r0, #0]
    1048:	b510      	push	{r4, lr}
    104a:	1c5c      	adds	r4, r3, #1
    104c:	6044      	str	r4, [r0, #4]
    104e:	54d1      	strb	r1, [r2, r3]
    1050:	68c3      	ldr	r3, [r0, #12]
    1052:	6841      	ldr	r1, [r0, #4]
    1054:	3b01      	subs	r3, #1
    1056:	fbb1 f2f3 	udiv	r2, r1, r3
    105a:	fb03 1312 	mls	r3, r3, r2, r1
    105e:	6043      	str	r3, [r0, #4]
    1060:	bd10      	pop	{r4, pc}

00001062 <BufferedSerial::rxIrq()>:
    1062:	b538      	push	{r3, r4, r5, lr}
    1064:	1d05      	adds	r5, r0, #4
    1066:	4604      	mov	r4, r0
    1068:	4628      	mov	r0, r5
    106a:	f001 ffd3 	bl	3014 <serial_readable>
    106e:	b138      	cbz	r0, 1080 <BufferedSerial::rxIrq()+0x1e>
    1070:	4628      	mov	r0, r5
    1072:	f001 ffb5 	bl	2fe0 <serial_getc>
    1076:	b2c1      	uxtb	r1, r0
    1078:	f104 0030 	add.w	r0, r4, #48	; 0x30
    107c:	f7ff ffe2 	bl	1044 <Buffer<char>::put(char)>
    1080:	bd38      	pop	{r3, r4, r5, pc}

00001082 <BufferedSerial::putc(int)>:
    1082:	b538      	push	{r3, r4, r5, lr}
    1084:	4605      	mov	r5, r0
    1086:	460c      	mov	r4, r1
    1088:	3040      	adds	r0, #64	; 0x40
    108a:	b2c9      	uxtb	r1, r1
    108c:	f7ff ffda 	bl	1044 <Buffer<char>::put(char)>
    1090:	4628      	mov	r0, r5
    1092:	f7ff ffb3 	bl	ffc <BufferedSerial::prime()>
    1096:	4620      	mov	r0, r4
    1098:	bd38      	pop	{r3, r4, r5, pc}

0000109a <BufferedSerial::puts(char const*)>:
    109a:	e92d 41f0 	stmdb	sp!, {r4, r5, r6, r7, r8, lr}
    109e:	4607      	mov	r7, r0
    10a0:	460c      	mov	r4, r1
    10a2:	b1b1      	cbz	r1, 10d2 <BufferedSerial::puts(char const*)+0x38>
    10a4:	460d      	mov	r5, r1
    10a6:	f100 0840 	add.w	r8, r0, #64	; 0x40
    10aa:	462e      	mov	r6, r5
    10ac:	f816 1b01 	ldrb.w	r1, [r6], #1
    10b0:	b121      	cbz	r1, 10bc <BufferedSerial::puts(char const*)+0x22>
    10b2:	4640      	mov	r0, r8
    10b4:	f7ff ffc6 	bl	1044 <Buffer<char>::put(char)>
    10b8:	4635      	mov	r5, r6
    10ba:	e7f6      	b.n	10aa <BufferedSerial::puts(char const*)+0x10>
    10bc:	210a      	movs	r1, #10
    10be:	4640      	mov	r0, r8
    10c0:	f7ff ffc0 	bl	1044 <Buffer<char>::put(char)>
    10c4:	1b2c      	subs	r4, r5, r4
    10c6:	4638      	mov	r0, r7
    10c8:	f7ff ff98 	bl	ffc <BufferedSerial::prime()>
    10cc:	1c60      	adds	r0, r4, #1
    10ce:	e8bd 81f0 	ldmia.w	sp!, {r4, r5, r6, r7, r8, pc}
    10d2:	4608      	mov	r0, r1
    10d4:	e8bd 81f0 	ldmia.w	sp!, {r4, r5, r6, r7, r8, pc}

000010d8 <BufferedSerial::write(void const*, unsigned int)>:
    10d8:	e92d 41f0 	stmdb	sp!, {r4, r5, r6, r7, r8, lr}
    10dc:	4607      	mov	r7, r0
    10de:	460d      	mov	r5, r1
    10e0:	b191      	cbz	r1, 1108 <BufferedSerial::write(void const*, unsigned int)+0x30>
    10e2:	b1a2      	cbz	r2, 110e <BufferedSerial::write(void const*, unsigned int)+0x36>
    10e4:	460e      	mov	r6, r1
    10e6:	188c      	adds	r4, r1, r2
    10e8:	f100 0840 	add.w	r8, r0, #64	; 0x40
    10ec:	42b4      	cmp	r4, r6
    10ee:	d005      	beq.n	10fc <BufferedSerial::write(void const*, unsigned int)+0x24>
    10f0:	f816 1b01 	ldrb.w	r1, [r6], #1
    10f4:	4640      	mov	r0, r8
    10f6:	f7ff ffa5 	bl	1044 <Buffer<char>::put(char)>
    10fa:	e7f7      	b.n	10ec <BufferedSerial::write(void const*, unsigned int)+0x14>
    10fc:	4638      	mov	r0, r7
    10fe:	f7ff ff7d 	bl	ffc <BufferedSerial::prime()>
    1102:	1b60      	subs	r0, r4, r5
    1104:	e8bd 81f0 	ldmia.w	sp!, {r4, r5, r6, r7, r8, pc}
    1108:	4608      	mov	r0, r1
    110a:	e8bd 81f0 	ldmia.w	sp!, {r4, r5, r6, r7, r8, pc}
    110e:	4610      	mov	r0, r2
    1110:	e8bd 81f0 	ldmia.w	sp!, {r4, r5, r6, r7, r8, pc}

00001114 <BufferedSerial::printf(char const*, ...)>:
    1114:	b40e      	push	{r1, r2, r3}
    1116:	e92d 41f0 	stmdb	sp!, {r4, r5, r6, r7, r8, lr}
    111a:	b085      	sub	sp, #20
    111c:	6d02      	ldr	r2, [r0, #80]	; 0x50
    111e:	af02      	add	r7, sp, #8
    1120:	1dd3      	adds	r3, r2, #7
    1122:	f023 0307 	bic.w	r3, r3, #7
    1126:	ebad 0d03 	sub.w	sp, sp, r3
    112a:	f107 0424 	add.w	r4, r7, #36	; 0x24
    112e:	f854 8b04 	ldr.w	r8, [r4], #4
    1132:	ae02      	add	r6, sp, #8
    1134:	4605      	mov	r5, r0
    1136:	2100      	movs	r1, #0
    1138:	4630      	mov	r0, r6
    113a:	f003 fd9c 	bl	4c76 <memset>
    113e:	4622      	mov	r2, r4
    1140:	4641      	mov	r1, r8
    1142:	4630      	mov	r0, r6
    1144:	607c      	str	r4, [r7, #4]
    1146:	f004 f883 	bl	5250 <vsiprintf>
    114a:	6d2b      	ldr	r3, [r5, #80]	; 0x50
    114c:	4602      	mov	r2, r0
    114e:	4283      	cmp	r3, r0
    1150:	d20c      	bcs.n	116c <BufferedSerial::printf(char const*, ...)+0x58>
    1152:	9000      	str	r0, [sp, #0]
    1154:	225d      	movs	r2, #93	; 0x5d
    1156:	4808      	ldr	r0, [pc, #32]	; (1178 <BufferedSerial::printf(char const*, ...)+0x64>)
    1158:	4908      	ldr	r1, [pc, #32]	; (117c <BufferedSerial::printf(char const*, ...)+0x68>)
    115a:	f000 f944 	bl	13e6 <error>
    115e:	2000      	movs	r0, #0
    1160:	370c      	adds	r7, #12
    1162:	46bd      	mov	sp, r7
    1164:	e8bd 41f0 	ldmia.w	sp!, {r4, r5, r6, r7, r8, lr}
    1168:	b003      	add	sp, #12
    116a:	4770      	bx	lr
    116c:	4631      	mov	r1, r6
    116e:	4628      	mov	r0, r5
    1170:	f7ff ffb2 	bl	10d8 <BufferedSerial::write(void const*, unsigned int)>
    1174:	e7f4      	b.n	1160 <BufferedSerial::printf(char const*, ...)+0x4c>
    1176:	bf00      	nop
    1178:	000057f2 	.word	0x000057f2
    117c:	000057b4 	.word	0x000057b4

00001180 <Buffer<char>::~Buffer()>:
    1180:	b510      	push	{r4, lr}
    1182:	4604      	mov	r4, r0
    1184:	6800      	ldr	r0, [r0, #0]
    1186:	b108      	cbz	r0, 118c <Buffer<char>::~Buffer()+0xc>
    1188:	f002 fb80 	bl	388c <operator delete[](void*)>
    118c:	4620      	mov	r0, r4
    118e:	bd10      	pop	{r4, pc}

00001190 <Buffer<char>::clear()>:
    1190:	2100      	movs	r1, #0
    1192:	68c2      	ldr	r2, [r0, #12]
    1194:	6041      	str	r1, [r0, #4]
    1196:	6081      	str	r1, [r0, #8]
    1198:	6800      	ldr	r0, [r0, #0]
    119a:	f003 bd6c 	b.w	4c76 <memset>

0000119e <Buffer<char>::Buffer(unsigned long)>:
    119e:	b538      	push	{r3, r4, r5, lr}
    11a0:	4604      	mov	r4, r0
    11a2:	4608      	mov	r0, r1
    11a4:	460d      	mov	r5, r1
    11a6:	f002 fb65 	bl	3874 <operator new[](unsigned int)>
    11aa:	60e5      	str	r5, [r4, #12]
    11ac:	6020      	str	r0, [r4, #0]
    11ae:	4620      	mov	r0, r4
    11b0:	f7ff ffee 	bl	1190 <Buffer<char>::clear()>
    11b4:	4620      	mov	r0, r4
    11b6:	bd38      	pop	{r3, r4, r5, pc}

000011b8 <_gpio_init_in>:
    11b8:	b570      	push	{r4, r5, r6, lr}
    11ba:	460e      	mov	r6, r1
    11bc:	4604      	mov	r4, r0
    11be:	4615      	mov	r5, r2
    11c0:	f001 fbc4 	bl	294c <gpio_init>
    11c4:	3601      	adds	r6, #1
    11c6:	d009      	beq.n	11dc <_gpio_init_in+0x24>
    11c8:	4620      	mov	r0, r4
    11ca:	2100      	movs	r1, #0
    11cc:	f001 fbd8 	bl	2980 <gpio_dir>
    11d0:	4629      	mov	r1, r5
    11d2:	4620      	mov	r0, r4
    11d4:	e8bd 4070 	ldmia.w	sp!, {r4, r5, r6, lr}
    11d8:	f001 bbcf 	b.w	297a <gpio_mode>
    11dc:	bd70      	pop	{r4, r5, r6, pc}

000011de <_gpio_init_out.part.1>:
    11de:	b538      	push	{r3, r4, r5, lr}
    11e0:	4604      	mov	r4, r0
    11e2:	460d      	mov	r5, r1
    11e4:	6843      	ldr	r3, [r0, #4]
    11e6:	b15a      	cbz	r2, 1200 <_gpio_init_out.part.1+0x22>
    11e8:	68c2      	ldr	r2, [r0, #12]
    11ea:	4620      	mov	r0, r4
    11ec:	6013      	str	r3, [r2, #0]
    11ee:	2101      	movs	r1, #1
    11f0:	f001 fbc6 	bl	2980 <gpio_dir>
    11f4:	4629      	mov	r1, r5
    11f6:	4620      	mov	r0, r4
    11f8:	e8bd 4038 	ldmia.w	sp!, {r3, r4, r5, lr}
    11fc:	f001 bbbd 	b.w	297a <gpio_mode>
    1200:	6902      	ldr	r2, [r0, #16]
    1202:	e7f2      	b.n	11ea <_gpio_init_out.part.1+0xc>

00001204 <gpio_init_in>:
    1204:	2203      	movs	r2, #3
    1206:	f7ff bfd7 	b.w	11b8 <_gpio_init_in>

0000120a <gpio_init_out_ex>:
    120a:	b570      	push	{r4, r5, r6, lr}
    120c:	460e      	mov	r6, r1
    120e:	4604      	mov	r4, r0
    1210:	4615      	mov	r5, r2
    1212:	f001 fb9b 	bl	294c <gpio_init>
    1216:	3601      	adds	r6, #1
    1218:	d006      	beq.n	1228 <gpio_init_out_ex+0x1e>
    121a:	462a      	mov	r2, r5
    121c:	4620      	mov	r0, r4
    121e:	e8bd 4070 	ldmia.w	sp!, {r4, r5, r6, lr}
    1222:	2102      	movs	r1, #2
    1224:	f7ff bfdb 	b.w	11de <_gpio_init_out.part.1>
    1228:	bd70      	pop	{r4, r5, r6, pc}

0000122a <gpio_init_out>:
    122a:	2200      	movs	r2, #0
    122c:	f7ff bfed 	b.w	120a <gpio_init_out_ex>

00001230 <get_us_ticker_data>:
    1230:	4800      	ldr	r0, [pc, #0]	; (1234 <get_us_ticker_data+0x4>)
    1232:	4770      	bx	lr
    1234:	00005860 	.word	0x00005860

00001238 <us_ticker_irq_handler>:
    1238:	4801      	ldr	r0, [pc, #4]	; (1240 <us_ticker_irq_handler+0x8>)
    123a:	f000 b803 	b.w	1244 <ticker_irq_handler>
    123e:	bf00      	nop
    1240:	00005860 	.word	0x00005860

00001244 <ticker_irq_handler>:
    1244:	6803      	ldr	r3, [r0, #0]
    1246:	b570      	push	{r4, r5, r6, lr}
    1248:	68db      	ldr	r3, [r3, #12]
    124a:	4604      	mov	r4, r0
    124c:	4798      	blx	r3
    124e:	6863      	ldr	r3, [r4, #4]
    1250:	685a      	ldr	r2, [r3, #4]
    1252:	6823      	ldr	r3, [r4, #0]
    1254:	b91a      	cbnz	r2, 125e <ticker_irq_handler+0x1a>
    1256:	689b      	ldr	r3, [r3, #8]
    1258:	e8bd 4070 	ldmia.w	sp!, {r4, r5, r6, lr}
    125c:	4718      	bx	r3
    125e:	685b      	ldr	r3, [r3, #4]
    1260:	6815      	ldr	r5, [r2, #0]
    1262:	4798      	blx	r3
    1264:	6863      	ldr	r3, [r4, #4]
    1266:	1a28      	subs	r0, r5, r0
    1268:	2800      	cmp	r0, #0
    126a:	685a      	ldr	r2, [r3, #4]
    126c:	dc07      	bgt.n	127e <ticker_irq_handler+0x3a>
    126e:	6891      	ldr	r1, [r2, #8]
    1270:	6059      	str	r1, [r3, #4]
    1272:	681b      	ldr	r3, [r3, #0]
    1274:	2b00      	cmp	r3, #0
    1276:	d0ea      	beq.n	124e <ticker_irq_handler+0xa>
    1278:	6850      	ldr	r0, [r2, #4]
    127a:	4798      	blx	r3
    127c:	e7e7      	b.n	124e <ticker_irq_handler+0xa>
    127e:	6823      	ldr	r3, [r4, #0]
    1280:	6810      	ldr	r0, [r2, #0]
    1282:	691b      	ldr	r3, [r3, #16]
    1284:	e8bd 4070 	ldmia.w	sp!, {r4, r5, r6, lr}
    1288:	4718      	bx	r3

0000128a <ticker_read>:
    128a:	6803      	ldr	r3, [r0, #0]
    128c:	685b      	ldr	r3, [r3, #4]
    128e:	4718      	bx	r3

00001290 <pinmap_pinout>:
    1290:	b510      	push	{r4, lr}
    1292:	4604      	mov	r4, r0
    1294:	3001      	adds	r0, #1
    1296:	d10d      	bne.n	12b4 <pinmap_pinout+0x24>
    1298:	bd10      	pop	{r4, pc}
    129a:	429c      	cmp	r4, r3
    129c:	d109      	bne.n	12b2 <pinmap_pinout+0x22>
    129e:	4620      	mov	r0, r4
    12a0:	6889      	ldr	r1, [r1, #8]
    12a2:	f001 fca9 	bl	2bf8 <pin_function>
    12a6:	4620      	mov	r0, r4
    12a8:	e8bd 4010 	ldmia.w	sp!, {r4, lr}
    12ac:	2102      	movs	r1, #2
    12ae:	f001 bcbc 	b.w	2c2a <pin_mode>
    12b2:	310c      	adds	r1, #12
    12b4:	680b      	ldr	r3, [r1, #0]
    12b6:	1c5a      	adds	r2, r3, #1
    12b8:	d1ef      	bne.n	129a <pinmap_pinout+0xa>
    12ba:	4802      	ldr	r0, [pc, #8]	; (12c4 <pinmap_pinout+0x34>)
    12bc:	e8bd 4010 	ldmia.w	sp!, {r4, lr}
    12c0:	f000 b891 	b.w	13e6 <error>
    12c4:	000058ad 	.word	0x000058ad

000012c8 <pinmap_merge>:
    12c8:	4288      	cmp	r0, r1
    12ca:	b508      	push	{r3, lr}
    12cc:	d008      	beq.n	12e0 <pinmap_merge+0x18>
    12ce:	1c43      	adds	r3, r0, #1
    12d0:	d006      	beq.n	12e0 <pinmap_merge+0x18>
    12d2:	3101      	adds	r1, #1
    12d4:	d006      	beq.n	12e4 <pinmap_merge+0x1c>
    12d6:	4804      	ldr	r0, [pc, #16]	; (12e8 <pinmap_merge+0x20>)
    12d8:	f000 f885 	bl	13e6 <error>
    12dc:	f04f 31ff 	mov.w	r1, #4294967295	; 0xffffffff
    12e0:	4608      	mov	r0, r1
    12e2:	bd08      	pop	{r3, pc}
    12e4:	4601      	mov	r1, r0
    12e6:	e7fb      	b.n	12e0 <pinmap_merge+0x18>
    12e8:	0000587c 	.word	0x0000587c

000012ec <pinmap_find_peripheral>:
    12ec:	680b      	ldr	r3, [r1, #0]
    12ee:	1c5a      	adds	r2, r3, #1
    12f0:	d101      	bne.n	12f6 <pinmap_find_peripheral+0xa>
    12f2:	4618      	mov	r0, r3
    12f4:	4770      	bx	lr
    12f6:	4283      	cmp	r3, r0
    12f8:	d101      	bne.n	12fe <pinmap_find_peripheral+0x12>
    12fa:	6848      	ldr	r0, [r1, #4]
    12fc:	4770      	bx	lr
    12fe:	310c      	adds	r1, #12
    1300:	e7f4      	b.n	12ec <pinmap_find_peripheral>
	...

00001304 <pinmap_peripheral>:
    1304:	1c42      	adds	r2, r0, #1
    1306:	b510      	push	{r4, lr}
    1308:	4604      	mov	r4, r0
    130a:	d007      	beq.n	131c <pinmap_peripheral+0x18>
    130c:	f7ff ffee 	bl	12ec <pinmap_find_peripheral>
    1310:	1c43      	adds	r3, r0, #1
    1312:	4604      	mov	r4, r0
    1314:	d102      	bne.n	131c <pinmap_peripheral+0x18>
    1316:	4802      	ldr	r0, [pc, #8]	; (1320 <pinmap_peripheral+0x1c>)
    1318:	f000 f865 	bl	13e6 <error>
    131c:	4620      	mov	r0, r4
    131e:	bd10      	pop	{r4, pc}
    1320:	0000588d 	.word	0x0000588d

00001324 <mbed_interface_connected>:
    1324:	f000 b84c 	b.w	13c0 <semihost_connected>

00001328 <mbed_interface_disconnect>:
    1328:	b508      	push	{r3, lr}
    132a:	f000 f849 	bl	13c0 <semihost_connected>
    132e:	b138      	cbz	r0, 1340 <mbed_interface_disconnect+0x18>
    1330:	f000 f84e 	bl	13d0 <semihost_disabledebug>
    1334:	b930      	cbnz	r0, 1344 <mbed_interface_disconnect+0x1c>
    1336:	f000 f843 	bl	13c0 <semihost_connected>
    133a:	2800      	cmp	r0, #0
    133c:	d1fb      	bne.n	1336 <mbed_interface_disconnect+0xe>
    133e:	bd08      	pop	{r3, pc}
    1340:	f04f 30ff 	mov.w	r0, #4294967295	; 0xffffffff
    1344:	bd08      	pop	{r3, pc}

00001346 <core_util_are_interrupts_enabled>:
    1346:	f3ef 8010 	mrs	r0, PRIMASK
    134a:	43c0      	mvns	r0, r0
    134c:	f000 0001 	and.w	r0, r0, #1
    1350:	4770      	bx	lr
	...

00001354 <core_util_critical_section_enter>:
    1354:	b508      	push	{r3, lr}
    1356:	f7ff fff6 	bl	1346 <core_util_are_interrupts_enabled>
    135a:	b672      	cpsid	i
    135c:	4b06      	ldr	r3, [pc, #24]	; (1378 <core_util_critical_section_enter+0x24>)
    135e:	681a      	ldr	r2, [r3, #0]
    1360:	b922      	cbnz	r2, 136c <core_util_critical_section_enter+0x18>
    1362:	f080 0001 	eor.w	r0, r0, #1
    1366:	4a05      	ldr	r2, [pc, #20]	; (137c <core_util_critical_section_enter+0x28>)
    1368:	b2c0      	uxtb	r0, r0
    136a:	7010      	strb	r0, [r2, #0]
    136c:	681a      	ldr	r2, [r3, #0]
    136e:	681a      	ldr	r2, [r3, #0]
    1370:	3201      	adds	r2, #1
    1372:	601a      	str	r2, [r3, #0]
    1374:	bd08      	pop	{r3, pc}
    1376:	bf00      	nop
    1378:	10000780 	.word	0x10000780
    137c:	1000077c 	.word	0x1000077c

00001380 <core_util_critical_section_exit>:
    1380:	b508      	push	{r3, lr}
    1382:	4b07      	ldr	r3, [pc, #28]	; (13a0 <core_util_critical_section_exit+0x20>)
    1384:	681a      	ldr	r2, [r3, #0]
    1386:	b152      	cbz	r2, 139e <core_util_critical_section_exit+0x1e>
    1388:	f7ff ffdd 	bl	1346 <core_util_are_interrupts_enabled>
    138c:	681a      	ldr	r2, [r3, #0]
    138e:	3a01      	subs	r2, #1
    1390:	601a      	str	r2, [r3, #0]
    1392:	681b      	ldr	r3, [r3, #0]
    1394:	b91b      	cbnz	r3, 139e <core_util_critical_section_exit+0x1e>
    1396:	4b03      	ldr	r3, [pc, #12]	; (13a4 <core_util_critical_section_exit+0x24>)
    1398:	781b      	ldrb	r3, [r3, #0]
    139a:	b903      	cbnz	r3, 139e <core_util_critical_section_exit+0x1e>
    139c:	b662      	cpsie	i
    139e:	bd08      	pop	{r3, pc}
    13a0:	10000780 	.word	0x10000780
    13a4:	1000077c 	.word	0x1000077c

000013a8 <semihost_exit>:
    13a8:	b530      	push	{r4, r5, lr}
    13aa:	b085      	sub	sp, #20
    13ac:	466d      	mov	r5, sp
    13ae:	2418      	movs	r4, #24
    13b0:	4620      	mov	r0, r4
    13b2:	4629      	mov	r1, r5
    13b4:	beab      	bkpt	0x00ab
    13b6:	4604      	mov	r4, r0
    13b8:	4620      	mov	r0, r4
    13ba:	b005      	add	sp, #20
    13bc:	bd30      	pop	{r4, r5, pc}
	...

000013c0 <semihost_connected>:
    13c0:	4b02      	ldr	r3, [pc, #8]	; (13cc <semihost_connected+0xc>)
    13c2:	6818      	ldr	r0, [r3, #0]
    13c4:	f000 0001 	and.w	r0, r0, #1
    13c8:	4770      	bx	lr
    13ca:	bf00      	nop
    13cc:	e000edf0 	.word	0xe000edf0

000013d0 <semihost_disabledebug>:
    13d0:	b537      	push	{r0, r1, r2, r4, r5, lr}
    13d2:	f240 1405 	movw	r4, #261	; 0x105
    13d6:	ad01      	add	r5, sp, #4
    13d8:	4620      	mov	r0, r4
    13da:	4629      	mov	r1, r5
    13dc:	beab      	bkpt	0x00ab
    13de:	4604      	mov	r4, r0
    13e0:	4620      	mov	r0, r4
    13e2:	b003      	add	sp, #12
    13e4:	bd30      	pop	{r4, r5, pc}

000013e6 <error>:
    13e6:	b40f      	push	{r0, r1, r2, r3}
    13e8:	2001      	movs	r0, #1
    13ea:	b508      	push	{r3, lr}
    13ec:	f002 fa36 	bl	385c <__wrap_exit>

000013f0 <mbed_die>:
    13f0:	b500      	push	{lr}
    13f2:	b099      	sub	sp, #100	; 0x64
    13f4:	f7ff ffae 	bl	1354 <core_util_critical_section_enter>
    13f8:	4917      	ldr	r1, [pc, #92]	; (1458 <mbed_die+0x68>)
    13fa:	4668      	mov	r0, sp
    13fc:	f7ff ff15 	bl	122a <gpio_init_out>
    1400:	4916      	ldr	r1, [pc, #88]	; (145c <mbed_die+0x6c>)
    1402:	a806      	add	r0, sp, #24
    1404:	f7ff ff11 	bl	122a <gpio_init_out>
    1408:	4915      	ldr	r1, [pc, #84]	; (1460 <mbed_die+0x70>)
    140a:	a80c      	add	r0, sp, #48	; 0x30
    140c:	f7ff ff0d 	bl	122a <gpio_init_out>
    1410:	4914      	ldr	r1, [pc, #80]	; (1464 <mbed_die+0x74>)
    1412:	a812      	add	r0, sp, #72	; 0x48
    1414:	f7ff ff09 	bl	122a <gpio_init_out>
    1418:	9a01      	ldr	r2, [sp, #4]
    141a:	9b03      	ldr	r3, [sp, #12]
    141c:	2096      	movs	r0, #150	; 0x96
    141e:	601a      	str	r2, [r3, #0]
    1420:	9a07      	ldr	r2, [sp, #28]
    1422:	9b0a      	ldr	r3, [sp, #40]	; 0x28
    1424:	601a      	str	r2, [r3, #0]
    1426:	9a0d      	ldr	r2, [sp, #52]	; 0x34
    1428:	9b10      	ldr	r3, [sp, #64]	; 0x40
    142a:	601a      	str	r2, [r3, #0]
    142c:	9a13      	ldr	r2, [sp, #76]	; 0x4c
    142e:	9b15      	ldr	r3, [sp, #84]	; 0x54
    1430:	601a      	str	r2, [r3, #0]
    1432:	f002 f905 	bl	3640 <wait_ms>
    1436:	9a01      	ldr	r2, [sp, #4]
    1438:	9b04      	ldr	r3, [sp, #16]
    143a:	2096      	movs	r0, #150	; 0x96
    143c:	601a      	str	r2, [r3, #0]
    143e:	9a07      	ldr	r2, [sp, #28]
    1440:	9b09      	ldr	r3, [sp, #36]	; 0x24
    1442:	601a      	str	r2, [r3, #0]
    1444:	9a0d      	ldr	r2, [sp, #52]	; 0x34
    1446:	9b0f      	ldr	r3, [sp, #60]	; 0x3c
    1448:	601a      	str	r2, [r3, #0]
    144a:	9a13      	ldr	r2, [sp, #76]	; 0x4c
    144c:	9b16      	ldr	r3, [sp, #88]	; 0x58
    144e:	601a      	str	r2, [r3, #0]
    1450:	f002 f8f6 	bl	3640 <wait_ms>
    1454:	e7e0      	b.n	1418 <mbed_die+0x28>
    1456:	bf00      	nop
    1458:	2009c032 	.word	0x2009c032
    145c:	2009c034 	.word	0x2009c034
    1460:	2009c035 	.word	0x2009c035
    1464:	2009c037 	.word	0x2009c037

00001468 <default_idle_hook>:
    1468:	f001 ba9a 	b.w	29a0 <hal_sleep>

0000146c <rtos_idle_loop>:
    146c:	b508      	push	{r3, lr}
    146e:	4c02      	ldr	r4, [pc, #8]	; (1478 <rtos_idle_loop+0xc>)
    1470:	6823      	ldr	r3, [r4, #0]
    1472:	4798      	blx	r3
    1474:	e7fc      	b.n	1470 <rtos_idle_loop+0x4>
    1476:	bf00      	nop
    1478:	100000cc 	.word	0x100000cc

0000147c <pre_main>:
    147c:	b508      	push	{r3, lr}
    147e:	480b      	ldr	r0, [pc, #44]	; (14ac <pre_main+0x30>)
    1480:	f000 fd8c 	bl	1f9c <osMutexCreate>
    1484:	4b0a      	ldr	r3, [pc, #40]	; (14b0 <pre_main+0x34>)
    1486:	6018      	str	r0, [r3, #0]
    1488:	480a      	ldr	r0, [pc, #40]	; (14b4 <pre_main+0x38>)
    148a:	f000 fd87 	bl	1f9c <osMutexCreate>
    148e:	4b0a      	ldr	r3, [pc, #40]	; (14b8 <pre_main+0x3c>)
    1490:	6018      	str	r0, [r3, #0]
    1492:	480a      	ldr	r0, [pc, #40]	; (14bc <pre_main+0x40>)
    1494:	f000 fd82 	bl	1f9c <osMutexCreate>
    1498:	4b09      	ldr	r3, [pc, #36]	; (14c0 <pre_main+0x44>)
    149a:	6018      	str	r0, [r3, #0]
    149c:	f003 fb84 	bl	4ba8 <__libc_init_array>
    14a0:	e8bd 4008 	ldmia.w	sp!, {r3, lr}
    14a4:	2100      	movs	r1, #0
    14a6:	4608      	mov	r0, r1
    14a8:	f002 b997 	b.w	37da <__wrap_main>
    14ac:	0000590c 	.word	0x0000590c
    14b0:	10001cd4 	.word	0x10001cd4
    14b4:	00005908 	.word	0x00005908
    14b8:	1000078c 	.word	0x1000078c
    14bc:	00005904 	.word	0x00005904
    14c0:	10000784 	.word	0x10000784

000014c4 <os_idle_demon>:
    14c4:	f7ff bfd2 	b.w	146c <rtos_idle_loop>

000014c8 <os_error>:
    14c8:	b510      	push	{r4, lr}
    14ca:	4604      	mov	r4, r0
    14cc:	f000 fcd4 	bl	1e78 <svcThreadGetId>
    14d0:	4621      	mov	r1, r4
    14d2:	e8bd 4010 	ldmia.w	sp!, {r4, lr}
    14d6:	4602      	mov	r2, r0
    14d8:	4801      	ldr	r0, [pc, #4]	; (14e0 <os_error+0x18>)
    14da:	f7ff bf84 	b.w	13e6 <error>
    14de:	bf00      	nop
    14e0:	000058cc 	.word	0x000058cc

000014e4 <sysThreadTerminate>:
    14e4:	f002 b9d8 	b.w	3898 <thread_terminate_hook>

000014e8 <set_stack_heap>:
    14e8:	4a0b      	ldr	r2, [pc, #44]	; (1518 <set_stack_heap+0x30>)
    14ea:	b4f0      	push	{r4, r5, r6, r7}
    14ec:	f1c2 5380 	rsb	r3, r2, #268435456	; 0x10000000
    14f0:	f503 4300 	add.w	r3, r3, #32768	; 0x8000
    14f4:	f5b3 6f80 	cmp.w	r3, #1024	; 0x400
    14f8:	4619      	mov	r1, r3
    14fa:	bf28      	it	cs
    14fc:	f44f 6180 	movcs.w	r1, #1024	; 0x400
    1500:	4f06      	ldr	r7, [pc, #24]	; (151c <set_stack_heap+0x34>)
    1502:	4d07      	ldr	r5, [pc, #28]	; (1520 <set_stack_heap+0x38>)
    1504:	1a5b      	subs	r3, r3, r1
    1506:	4c07      	ldr	r4, [pc, #28]	; (1524 <set_stack_heap+0x3c>)
    1508:	4807      	ldr	r0, [pc, #28]	; (1528 <set_stack_heap+0x40>)
    150a:	189e      	adds	r6, r3, r2
    150c:	603a      	str	r2, [r7, #0]
    150e:	602e      	str	r6, [r5, #0]
    1510:	6023      	str	r3, [r4, #0]
    1512:	6001      	str	r1, [r0, #0]
    1514:	bcf0      	pop	{r4, r5, r6, r7}
    1516:	4770      	bx	lr
    1518:	10002470 	.word	0x10002470
    151c:	100019f0 	.word	0x100019f0
    1520:	10000794 	.word	0x10000794
    1524:	100019ec 	.word	0x100019ec
    1528:	10000790 	.word	0x10000790

0000152c <software_init_hook_rtos>:
    152c:	f000 fe0a 	bl	2144 <osKernelInitialize>
    1530:	f7ff ffda 	bl	14e8 <set_stack_heap>
    1534:	4803      	ldr	r0, [pc, #12]	; (1544 <software_init_hook_rtos+0x18>)
    1536:	2100      	movs	r1, #0
    1538:	f000 fdb8 	bl	20ac <osThreadCreate>
    153c:	f000 fc1e 	bl	1d7c <osKernelStart>
    1540:	e7fe      	b.n	1540 <software_init_hook_rtos+0x14>
    1542:	0000      	.short	0x0000
    1544:	100000d0 	.word	0x100000d0

00001548 <__rtos_malloc_lock>:
    1548:	4b02      	ldr	r3, [pc, #8]	; (1554 <__rtos_malloc_lock+0xc>)
    154a:	f04f 31ff 	mov.w	r1, #4294967295	; 0xffffffff
    154e:	6818      	ldr	r0, [r3, #0]
    1550:	f000 bd42 	b.w	1fd8 <osMutexWait>
    1554:	1000078c 	.word	0x1000078c

00001558 <__rtos_malloc_unlock>:
    1558:	4b01      	ldr	r3, [pc, #4]	; (1560 <__rtos_malloc_unlock+0x8>)
    155a:	6818      	ldr	r0, [r3, #0]
    155c:	f000 bd64 	b.w	2028 <osMutexRelease>
    1560:	1000078c 	.word	0x1000078c

00001564 <rt_put_prio>:
    1564:	b530      	push	{r4, r5, lr}
    1566:	7802      	ldrb	r2, [r0, #0]
    1568:	788c      	ldrb	r4, [r1, #2]
    156a:	3a01      	subs	r2, #1
    156c:	6843      	ldr	r3, [r0, #4]
    156e:	b2d2      	uxtb	r2, r2
    1570:	b113      	cbz	r3, 1578 <rt_put_prio+0x14>
    1572:	789d      	ldrb	r5, [r3, #2]
    1574:	42a5      	cmp	r5, r4
    1576:	d207      	bcs.n	1588 <rt_put_prio+0x24>
    1578:	2a02      	cmp	r2, #2
    157a:	604b      	str	r3, [r1, #4]
    157c:	6041      	str	r1, [r0, #4]
    157e:	d806      	bhi.n	158e <rt_put_prio+0x2a>
    1580:	b103      	cbz	r3, 1584 <rt_put_prio+0x20>
    1582:	6099      	str	r1, [r3, #8]
    1584:	6088      	str	r0, [r1, #8]
    1586:	bd30      	pop	{r4, r5, pc}
    1588:	4618      	mov	r0, r3
    158a:	685b      	ldr	r3, [r3, #4]
    158c:	e7f0      	b.n	1570 <rt_put_prio+0xc>
    158e:	2300      	movs	r3, #0
    1590:	608b      	str	r3, [r1, #8]
    1592:	bd30      	pop	{r4, r5, pc}

00001594 <rt_get_first>:
    1594:	6843      	ldr	r3, [r0, #4]
    1596:	7802      	ldrb	r2, [r0, #0]
    1598:	6859      	ldr	r1, [r3, #4]
    159a:	3a01      	subs	r2, #1
    159c:	2a02      	cmp	r2, #2
    159e:	6041      	str	r1, [r0, #4]
    15a0:	f04f 0200 	mov.w	r2, #0
    15a4:	d805      	bhi.n	15b2 <rt_get_first+0x1e>
    15a6:	b109      	cbz	r1, 15ac <rt_get_first+0x18>
    15a8:	6088      	str	r0, [r1, #8]
    15aa:	605a      	str	r2, [r3, #4]
    15ac:	609a      	str	r2, [r3, #8]
    15ae:	4618      	mov	r0, r3
    15b0:	4770      	bx	lr
    15b2:	605a      	str	r2, [r3, #4]
    15b4:	e7fb      	b.n	15ae <rt_get_first+0x1a>
	...

000015b8 <rt_put_rdy_first>:
    15b8:	4b03      	ldr	r3, [pc, #12]	; (15c8 <rt_put_rdy_first+0x10>)
    15ba:	685a      	ldr	r2, [r3, #4]
    15bc:	6042      	str	r2, [r0, #4]
    15be:	2200      	movs	r2, #0
    15c0:	6058      	str	r0, [r3, #4]
    15c2:	6082      	str	r2, [r0, #8]
    15c4:	4770      	bx	lr
    15c6:	bf00      	nop
    15c8:	100023c8 	.word	0x100023c8

000015cc <rt_put_dly>:
    15cc:	4b10      	ldr	r3, [pc, #64]	; (1610 <rt_put_dly+0x44>)
    15ce:	b510      	push	{r4, lr}
    15d0:	68da      	ldr	r2, [r3, #12]
    15d2:	b18a      	cbz	r2, 15f8 <rt_put_dly+0x2c>
    15d4:	8a9a      	ldrh	r2, [r3, #20]
    15d6:	428a      	cmp	r2, r1
    15d8:	68dc      	ldr	r4, [r3, #12]
    15da:	d30c      	bcc.n	15f6 <rt_put_dly+0x2a>
    15dc:	60c4      	str	r4, [r0, #12]
    15de:	60d8      	str	r0, [r3, #12]
    15e0:	68c4      	ldr	r4, [r0, #12]
    15e2:	6103      	str	r3, [r0, #16]
    15e4:	b104      	cbz	r4, 15e8 <rt_put_dly+0x1c>
    15e6:	6120      	str	r0, [r4, #16]
    15e8:	1a52      	subs	r2, r2, r1
    15ea:	b292      	uxth	r2, r2
    15ec:	8282      	strh	r2, [r0, #20]
    15ee:	8a99      	ldrh	r1, [r3, #20]
    15f0:	1a8a      	subs	r2, r1, r2
    15f2:	829a      	strh	r2, [r3, #20]
    15f4:	bd10      	pop	{r4, pc}
    15f6:	b93c      	cbnz	r4, 1608 <rt_put_dly+0x3c>
    15f8:	2400      	movs	r4, #0
    15fa:	1a8a      	subs	r2, r1, r2
    15fc:	60c4      	str	r4, [r0, #12]
    15fe:	60d8      	str	r0, [r3, #12]
    1600:	6103      	str	r3, [r0, #16]
    1602:	829a      	strh	r2, [r3, #20]
    1604:	8284      	strh	r4, [r0, #20]
    1606:	bd10      	pop	{r4, pc}
    1608:	8aa3      	ldrh	r3, [r4, #20]
    160a:	441a      	add	r2, r3
    160c:	4623      	mov	r3, r4
    160e:	e7e2      	b.n	15d6 <rt_put_dly+0xa>
    1610:	100023e0 	.word	0x100023e0

00001614 <rt_dec_dly>:
    1614:	e92d 41f0 	stmdb	sp!, {r4, r5, r6, r7, r8, lr}
    1618:	4d17      	ldr	r5, [pc, #92]	; (1678 <rt_dec_dly+0x64>)
    161a:	68eb      	ldr	r3, [r5, #12]
    161c:	b153      	cbz	r3, 1634 <rt_dec_dly+0x20>
    161e:	2600      	movs	r6, #0
    1620:	8aab      	ldrh	r3, [r5, #20]
    1622:	4f16      	ldr	r7, [pc, #88]	; (167c <rt_dec_dly+0x68>)
    1624:	3b01      	subs	r3, #1
    1626:	f8df 8058 	ldr.w	r8, [pc, #88]	; 1680 <rt_dec_dly+0x6c>
    162a:	82ab      	strh	r3, [r5, #20]
    162c:	8aaa      	ldrh	r2, [r5, #20]
    162e:	b90a      	cbnz	r2, 1634 <rt_dec_dly+0x20>
    1630:	68ec      	ldr	r4, [r5, #12]
    1632:	b90c      	cbnz	r4, 1638 <rt_dec_dly+0x24>
    1634:	e8bd 81f0 	ldmia.w	sp!, {r4, r5, r6, r7, r8, pc}
    1638:	68a3      	ldr	r3, [r4, #8]
    163a:	b133      	cbz	r3, 164a <rt_dec_dly+0x36>
    163c:	6861      	ldr	r1, [r4, #4]
    163e:	6059      	str	r1, [r3, #4]
    1640:	6861      	ldr	r1, [r4, #4]
    1642:	b109      	cbz	r1, 1648 <rt_dec_dly+0x34>
    1644:	608b      	str	r3, [r1, #8]
    1646:	6062      	str	r2, [r4, #4]
    1648:	60a6      	str	r6, [r4, #8]
    164a:	4621      	mov	r1, r4
    164c:	4638      	mov	r0, r7
    164e:	f7ff ff89 	bl	1564 <rt_put_prio>
    1652:	8aa3      	ldrh	r3, [r4, #20]
    1654:	82ab      	strh	r3, [r5, #20]
    1656:	7863      	ldrb	r3, [r4, #1]
    1658:	2b04      	cmp	r3, #4
    165a:	bf01      	itttt	eq
    165c:	f8d8 3000 	ldreq.w	r3, [r8]
    1660:	8ae2      	ldrheq	r2, [r4, #22]
    1662:	189b      	addeq	r3, r3, r2
    1664:	82a3      	strheq	r3, [r4, #20]
    1666:	2301      	movs	r3, #1
    1668:	7063      	strb	r3, [r4, #1]
    166a:	68e3      	ldr	r3, [r4, #12]
    166c:	60eb      	str	r3, [r5, #12]
    166e:	b10b      	cbz	r3, 1674 <rt_dec_dly+0x60>
    1670:	611d      	str	r5, [r3, #16]
    1672:	60e6      	str	r6, [r4, #12]
    1674:	6126      	str	r6, [r4, #16]
    1676:	e7d9      	b.n	162c <rt_dec_dly+0x18>
    1678:	100023e0 	.word	0x100023e0
    167c:	100023c8 	.word	0x100023c8
    1680:	1000245c 	.word	0x1000245c

00001684 <rt_rmv_list>:
    1684:	6883      	ldr	r3, [r0, #8]
    1686:	b12b      	cbz	r3, 1694 <rt_rmv_list+0x10>
    1688:	6842      	ldr	r2, [r0, #4]
    168a:	605a      	str	r2, [r3, #4]
    168c:	6842      	ldr	r2, [r0, #4]
    168e:	b15a      	cbz	r2, 16a8 <rt_rmv_list+0x24>
    1690:	6093      	str	r3, [r2, #8]
    1692:	4770      	bx	lr
    1694:	4b05      	ldr	r3, [pc, #20]	; (16ac <rt_rmv_list+0x28>)
    1696:	685a      	ldr	r2, [r3, #4]
    1698:	4290      	cmp	r0, r2
    169a:	d102      	bne.n	16a2 <rt_rmv_list+0x1e>
    169c:	6842      	ldr	r2, [r0, #4]
    169e:	605a      	str	r2, [r3, #4]
    16a0:	4770      	bx	lr
    16a2:	4613      	mov	r3, r2
    16a4:	2a00      	cmp	r2, #0
    16a6:	d1f6      	bne.n	1696 <rt_rmv_list+0x12>
    16a8:	4770      	bx	lr
    16aa:	bf00      	nop
    16ac:	100023c8 	.word	0x100023c8

000016b0 <rt_resort_prio>:
    16b0:	b510      	push	{r4, lr}
    16b2:	6884      	ldr	r4, [r0, #8]
    16b4:	4601      	mov	r1, r0
    16b6:	b92c      	cbnz	r4, 16c4 <rt_resort_prio+0x14>
    16b8:	7843      	ldrb	r3, [r0, #1]
    16ba:	2b01      	cmp	r3, #1
    16bc:	d10d      	bne.n	16da <rt_resort_prio+0x2a>
    16be:	4c07      	ldr	r4, [pc, #28]	; (16dc <rt_resort_prio+0x2c>)
    16c0:	e003      	b.n	16ca <rt_resort_prio+0x1a>
    16c2:	68a4      	ldr	r4, [r4, #8]
    16c4:	7823      	ldrb	r3, [r4, #0]
    16c6:	2b00      	cmp	r3, #0
    16c8:	d0fb      	beq.n	16c2 <rt_resort_prio+0x12>
    16ca:	4608      	mov	r0, r1
    16cc:	f7ff ffda 	bl	1684 <rt_rmv_list>
    16d0:	4620      	mov	r0, r4
    16d2:	e8bd 4010 	ldmia.w	sp!, {r4, lr}
    16d6:	f7ff bf45 	b.w	1564 <rt_put_prio>
    16da:	bd10      	pop	{r4, pc}
    16dc:	100023c8 	.word	0x100023c8

000016e0 <rt_rmv_dly>:
    16e0:	6903      	ldr	r3, [r0, #16]
    16e2:	b510      	push	{r4, lr}
    16e4:	b163      	cbz	r3, 1700 <rt_rmv_dly+0x20>
    16e6:	68c2      	ldr	r2, [r0, #12]
    16e8:	60da      	str	r2, [r3, #12]
    16ea:	68c2      	ldr	r2, [r0, #12]
    16ec:	b14a      	cbz	r2, 1702 <rt_rmv_dly+0x22>
    16ee:	8a99      	ldrh	r1, [r3, #20]
    16f0:	8a84      	ldrh	r4, [r0, #20]
    16f2:	4421      	add	r1, r4
    16f4:	8299      	strh	r1, [r3, #20]
    16f6:	6113      	str	r3, [r2, #16]
    16f8:	2300      	movs	r3, #0
    16fa:	60c3      	str	r3, [r0, #12]
    16fc:	2300      	movs	r3, #0
    16fe:	6103      	str	r3, [r0, #16]
    1700:	bd10      	pop	{r4, pc}
    1702:	829a      	strh	r2, [r3, #20]
    1704:	e7fa      	b.n	16fc <rt_rmv_dly+0x1c>
	...

00001708 <rt_psq_enq>:
    1708:	b470      	push	{r4, r5, r6}
    170a:	4b11      	ldr	r3, [pc, #68]	; (1750 <rt_psq_enq+0x48>)
    170c:	78dd      	ldrb	r5, [r3, #3]
    170e:	f3ef 8610 	mrs	r6, PRIMASK
    1712:	f3ef 8210 	mrs	r2, PRIMASK
    1716:	b672      	cpsid	i
    1718:	789a      	ldrb	r2, [r3, #2]
    171a:	4295      	cmp	r5, r2
    171c:	d911      	bls.n	1742 <rt_psq_enq+0x3a>
    171e:	3201      	adds	r2, #1
    1720:	709a      	strb	r2, [r3, #2]
    1722:	781a      	ldrb	r2, [r3, #0]
    1724:	1c54      	adds	r4, r2, #1
    1726:	42a5      	cmp	r5, r4
    1728:	bf08      	it	eq
    172a:	2400      	moveq	r4, #0
    172c:	701c      	strb	r4, [r3, #0]
    172e:	b906      	cbnz	r6, 1732 <rt_psq_enq+0x2a>
    1730:	b662      	cpsie	i
    1732:	4295      	cmp	r5, r2
    1734:	d907      	bls.n	1746 <rt_psq_enq+0x3e>
    1736:	bc70      	pop	{r4, r5, r6}
    1738:	eb03 03c2 	add.w	r3, r3, r2, lsl #3
    173c:	6058      	str	r0, [r3, #4]
    173e:	6099      	str	r1, [r3, #8]
    1740:	4770      	bx	lr
    1742:	2e00      	cmp	r6, #0
    1744:	d0f4      	beq.n	1730 <rt_psq_enq+0x28>
    1746:	bc70      	pop	{r4, r5, r6}
    1748:	2002      	movs	r0, #2
    174a:	f7ff bebd 	b.w	14c8 <os_error>
    174e:	bf00      	nop
    1750:	10001c4c 	.word	0x10001c4c

00001754 <rt_psh_req>:
    1754:	4b05      	ldr	r3, [pc, #20]	; (176c <rt_psh_req+0x18>)
    1756:	781b      	ldrb	r3, [r3, #0]
    1758:	b923      	cbnz	r3, 1764 <rt_psh_req+0x10>
    175a:	f04f 5280 	mov.w	r2, #268435456	; 0x10000000
    175e:	4b04      	ldr	r3, [pc, #16]	; (1770 <rt_psh_req+0x1c>)
    1760:	601a      	str	r2, [r3, #0]
    1762:	4770      	bx	lr
    1764:	2201      	movs	r2, #1
    1766:	4b03      	ldr	r3, [pc, #12]	; (1774 <rt_psh_req+0x20>)
    1768:	701a      	strb	r2, [r3, #0]
    176a:	4770      	bx	lr
    176c:	100017e8 	.word	0x100017e8
    1770:	e000ed04 	.word	0xe000ed04
    1774:	100017e9 	.word	0x100017e9

00001778 <rt_pop_req>:
    1778:	b538      	push	{r3, r4, r5, lr}
    177a:	4b1a      	ldr	r3, [pc, #104]	; (17e4 <rt_pop_req+0x6c>)
    177c:	4c1a      	ldr	r4, [pc, #104]	; (17e8 <rt_pop_req+0x70>)
    177e:	6818      	ldr	r0, [r3, #0]
    1780:	2301      	movs	r3, #1
    1782:	7043      	strb	r3, [r0, #1]
    1784:	f7ff ff18 	bl	15b8 <rt_put_rdy_first>
    1788:	7865      	ldrb	r5, [r4, #1]
    178a:	78a3      	ldrb	r3, [r4, #2]
    178c:	b93b      	cbnz	r3, 179e <rt_pop_req+0x26>
    178e:	4817      	ldr	r0, [pc, #92]	; (17ec <rt_pop_req+0x74>)
    1790:	7065      	strb	r5, [r4, #1]
    1792:	f7ff feff 	bl	1594 <rt_get_first>
    1796:	e8bd 4038 	ldmia.w	sp!, {r3, r4, r5, lr}
    179a:	f000 bdad 	b.w	22f8 <rt_switch_req>
    179e:	eb04 03c5 	add.w	r3, r4, r5, lsl #3
    17a2:	6858      	ldr	r0, [r3, #4]
    17a4:	7802      	ldrb	r2, [r0, #0]
    17a6:	b99a      	cbnz	r2, 17d0 <rt_pop_req+0x58>
    17a8:	8919      	ldrh	r1, [r3, #8]
    17aa:	f000 fa0b 	bl	1bc4 <rt_evt_psh>
    17ae:	78e3      	ldrb	r3, [r4, #3]
    17b0:	3501      	adds	r5, #1
    17b2:	429d      	cmp	r5, r3
    17b4:	bf08      	it	eq
    17b6:	2500      	moveq	r5, #0
    17b8:	f3ef 8310 	mrs	r3, PRIMASK
    17bc:	f3ef 8210 	mrs	r2, PRIMASK
    17c0:	b672      	cpsid	i
    17c2:	78a2      	ldrb	r2, [r4, #2]
    17c4:	3a01      	subs	r2, #1
    17c6:	70a2      	strb	r2, [r4, #2]
    17c8:	2b00      	cmp	r3, #0
    17ca:	d1de      	bne.n	178a <rt_pop_req+0x12>
    17cc:	b662      	cpsie	i
    17ce:	e7dc      	b.n	178a <rt_pop_req+0x12>
    17d0:	2a01      	cmp	r2, #1
    17d2:	d103      	bne.n	17dc <rt_pop_req+0x64>
    17d4:	6899      	ldr	r1, [r3, #8]
    17d6:	f000 f983 	bl	1ae0 <rt_mbx_psh>
    17da:	e7e8      	b.n	17ae <rt_pop_req+0x36>
    17dc:	f001 f892 	bl	2904 <rt_sem_psh>
    17e0:	e7e5      	b.n	17ae <rt_pop_req+0x36>
    17e2:	bf00      	nop
    17e4:	10002414 	.word	0x10002414
    17e8:	10001c4c 	.word	0x10001c4c
    17ec:	100023c8 	.word	0x100023c8

000017f0 <os_tick_init>:
    17f0:	4b08      	ldr	r3, [pc, #32]	; (1814 <os_tick_init+0x24>)
    17f2:	f04f 30ff 	mov.w	r0, #4294967295	; 0xffffffff
    17f6:	681a      	ldr	r2, [r3, #0]
    17f8:	4b07      	ldr	r3, [pc, #28]	; (1818 <os_tick_init+0x28>)
    17fa:	601a      	str	r2, [r3, #0]
    17fc:	2200      	movs	r2, #0
    17fe:	605a      	str	r2, [r3, #4]
    1800:	2207      	movs	r2, #7
    1802:	f843 2c04 	str.w	r2, [r3, #-4]
    1806:	4a05      	ldr	r2, [pc, #20]	; (181c <os_tick_init+0x2c>)
    1808:	6813      	ldr	r3, [r2, #0]
    180a:	f043 437f 	orr.w	r3, r3, #4278190080	; 0xff000000
    180e:	6013      	str	r3, [r2, #0]
    1810:	4770      	bx	lr
    1812:	bf00      	nop
    1814:	0000592c 	.word	0x0000592c
    1818:	e000e014 	.word	0xe000e014
    181c:	e000ed20 	.word	0xe000ed20

00001820 <os_tick_irqack>:
    1820:	4770      	bx	lr
	...

00001824 <rt_systick>:
    1824:	b508      	push	{r3, lr}
    1826:	4b0b      	ldr	r3, [pc, #44]	; (1854 <rt_systick+0x30>)
    1828:	6818      	ldr	r0, [r3, #0]
    182a:	2301      	movs	r3, #1
    182c:	7043      	strb	r3, [r0, #1]
    182e:	f7ff fec3 	bl	15b8 <rt_put_rdy_first>
    1832:	f000 f9fd 	bl	1c30 <rt_chk_robin>
    1836:	4a08      	ldr	r2, [pc, #32]	; (1858 <rt_systick+0x34>)
    1838:	6813      	ldr	r3, [r2, #0]
    183a:	3301      	adds	r3, #1
    183c:	6013      	str	r3, [r2, #0]
    183e:	f7ff fee9 	bl	1614 <rt_dec_dly>
    1842:	f000 fce1 	bl	2208 <sysTimerTick>
    1846:	4805      	ldr	r0, [pc, #20]	; (185c <rt_systick+0x38>)
    1848:	f7ff fea4 	bl	1594 <rt_get_first>
    184c:	e8bd 4008 	ldmia.w	sp!, {r3, lr}
    1850:	f000 bd52 	b.w	22f8 <rt_switch_req>
    1854:	10002414 	.word	0x10002414
    1858:	1000245c 	.word	0x1000245c
    185c:	100023c8 	.word	0x100023c8

00001860 <rt_stk_check>:
    1860:	4b06      	ldr	r3, [pc, #24]	; (187c <rt_stk_check+0x1c>)
    1862:	681a      	ldr	r2, [r3, #0]
    1864:	6b13      	ldr	r3, [r2, #48]	; 0x30
    1866:	6ad2      	ldr	r2, [r2, #44]	; 0x2c
    1868:	4293      	cmp	r3, r2
    186a:	d803      	bhi.n	1874 <rt_stk_check+0x14>
    186c:	681a      	ldr	r2, [r3, #0]
    186e:	4b04      	ldr	r3, [pc, #16]	; (1880 <rt_stk_check+0x20>)
    1870:	429a      	cmp	r2, r3
    1872:	d002      	beq.n	187a <rt_stk_check+0x1a>
    1874:	2001      	movs	r0, #1
    1876:	f7ff be27 	b.w	14c8 <os_error>
    187a:	4770      	bx	lr
    187c:	10002414 	.word	0x10002414
    1880:	e25a2ea5 	.word	0xe25a2ea5

00001884 <rt_init_stack>:
    1884:	b5f0      	push	{r4, r5, r6, r7, lr}
    1886:	f04f 7680 	mov.w	r6, #16777216	; 0x1000000
    188a:	f04f 0e00 	mov.w	lr, #0
    188e:	6a83      	ldr	r3, [r0, #40]	; 0x28
    1890:	6b05      	ldr	r5, [r0, #48]	; 0x30
    1892:	089b      	lsrs	r3, r3, #2
    1894:	bf02      	ittt	eq
    1896:	4b1e      	ldreq	r3, [pc, #120]	; (1910 <rt_init_stack+0x8c>)
    1898:	881b      	ldrheq	r3, [r3, #0]
    189a:	089b      	lsreq	r3, r3, #2
    189c:	eb05 0283 	add.w	r2, r5, r3, lsl #2
    18a0:	0754      	lsls	r4, r2, #29
    18a2:	bf48      	it	mi
    18a4:	3a04      	submi	r2, #4
    18a6:	e902 0042 	stmdb	r2, {r1, r6}
    18aa:	f1a2 0440 	sub.w	r4, r2, #64	; 0x40
    18ae:	f1a2 0644 	sub.w	r6, r2, #68	; 0x44
    18b2:	f1a2 070c 	sub.w	r7, r2, #12
    18b6:	f846 ef04 	str.w	lr, [r6, #4]!
    18ba:	42be      	cmp	r6, r7
    18bc:	d1fb      	bne.n	18b6 <rt_init_stack+0x32>
    18be:	69c6      	ldr	r6, [r0, #28]
    18c0:	f842 6c20 	str.w	r6, [r2, #-32]
    18c4:	6341      	str	r1, [r0, #52]	; 0x34
    18c6:	4912      	ldr	r1, [pc, #72]	; (1910 <rt_init_stack+0x8c>)
    18c8:	62c4      	str	r4, [r0, #44]	; 0x2c
    18ca:	6809      	ldr	r1, [r1, #0]
    18cc:	00c9      	lsls	r1, r1, #3
    18ce:	d517      	bpl.n	1900 <rt_init_stack+0x7c>
    18d0:	2b11      	cmp	r3, #17
    18d2:	d915      	bls.n	1900 <rt_init_stack+0x7c>
    18d4:	f06f 0107 	mvn.w	r1, #7
    18d8:	3b10      	subs	r3, #16
    18da:	085b      	lsrs	r3, r3, #1
    18dc:	434b      	muls	r3, r1
    18de:	f1a3 0138 	sub.w	r1, r3, #56	; 0x38
    18e2:	440a      	add	r2, r1
    18e4:	f04f 30cc 	mov.w	r0, #3435973836	; 0xcccccccc
    18e8:	4621      	mov	r1, r4
    18ea:	4291      	cmp	r1, r2
    18ec:	d10b      	bne.n	1906 <rt_init_stack+0x82>
    18ee:	3308      	adds	r3, #8
    18f0:	441c      	add	r4, r3
    18f2:	1f23      	subs	r3, r4, #4
    18f4:	429d      	cmp	r5, r3
    18f6:	bf3c      	itt	cc
    18f8:	f04f 33cc 	movcc.w	r3, #3435973836	; 0xcccccccc
    18fc:	f844 3c04 	strcc.w	r3, [r4, #-4]
    1900:	4b04      	ldr	r3, [pc, #16]	; (1914 <rt_init_stack+0x90>)
    1902:	602b      	str	r3, [r5, #0]
    1904:	bdf0      	pop	{r4, r5, r6, r7, pc}
    1906:	f841 0c04 	str.w	r0, [r1, #-4]
    190a:	f841 0d08 	str.w	r0, [r1, #-8]!
    190e:	e7ec      	b.n	18ea <rt_init_stack+0x66>
    1910:	00005914 	.word	0x00005914
    1914:	e25a2ea5 	.word	0xe25a2ea5

00001918 <rt_ret_val>:
    1918:	6ac3      	ldr	r3, [r0, #44]	; 0x2c
    191a:	6219      	str	r1, [r3, #32]
    191c:	4770      	bx	lr

0000191e <rt_ret_val2>:
    191e:	6ac3      	ldr	r3, [r0, #44]	; 0x2c
    1920:	6219      	str	r1, [r3, #32]
    1922:	625a      	str	r2, [r3, #36]	; 0x24
    1924:	4770      	bx	lr

00001926 <_init_box>:
    1926:	2a00      	cmp	r2, #0
    1928:	bfbb      	ittet	lt
    192a:	f022 4200 	biclt.w	r2, r2, #2147483648	; 0x80000000
    192e:	3207      	addlt	r2, #7
    1930:	3203      	addge	r2, #3
    1932:	f022 0207 	biclt.w	r2, r2, #7
    1936:	bfa8      	it	ge
    1938:	f022 0203 	bicge.w	r2, r2, #3
    193c:	b510      	push	{r4, lr}
    193e:	bfb4      	ite	lt
    1940:	2310      	movlt	r3, #16
    1942:	230c      	movge	r3, #12
    1944:	b192      	cbz	r2, 196c <_init_box+0x46>
    1946:	18d4      	adds	r4, r2, r3
    1948:	428c      	cmp	r4, r1
    194a:	d80f      	bhi.n	196c <_init_box+0x46>
    194c:	4401      	add	r1, r0
    194e:	4403      	add	r3, r0
    1950:	4254      	negs	r4, r2
    1952:	6041      	str	r1, [r0, #4]
    1954:	6003      	str	r3, [r0, #0]
    1956:	6082      	str	r2, [r0, #8]
    1958:	4421      	add	r1, r4
    195a:	1898      	adds	r0, r3, r2
    195c:	4281      	cmp	r1, r0
    195e:	d302      	bcc.n	1966 <_init_box+0x40>
    1960:	5100      	str	r0, [r0, r4]
    1962:	4603      	mov	r3, r0
    1964:	e7f9      	b.n	195a <_init_box+0x34>
    1966:	2000      	movs	r0, #0
    1968:	6018      	str	r0, [r3, #0]
    196a:	bd10      	pop	{r4, pc}
    196c:	2001      	movs	r0, #1
    196e:	bd10      	pop	{r4, pc}

00001970 <rt_alloc_box>:
    1970:	f3ef 8310 	mrs	r3, PRIMASK
    1974:	b672      	cpsid	i
    1976:	6802      	ldr	r2, [r0, #0]
    1978:	f003 0301 	and.w	r3, r3, #1
    197c:	b10a      	cbz	r2, 1982 <rt_alloc_box+0x12>
    197e:	6811      	ldr	r1, [r2, #0]
    1980:	6001      	str	r1, [r0, #0]
    1982:	b903      	cbnz	r3, 1986 <rt_alloc_box+0x16>
    1984:	b662      	cpsie	i
    1986:	4610      	mov	r0, r2
    1988:	4770      	bx	lr

0000198a <rt_free_box>:
    198a:	4281      	cmp	r1, r0
    198c:	d30d      	bcc.n	19aa <rt_free_box+0x20>
    198e:	6843      	ldr	r3, [r0, #4]
    1990:	4299      	cmp	r1, r3
    1992:	d20a      	bcs.n	19aa <rt_free_box+0x20>
    1994:	f3ef 8310 	mrs	r3, PRIMASK
    1998:	b672      	cpsid	i
    199a:	6802      	ldr	r2, [r0, #0]
    199c:	600a      	str	r2, [r1, #0]
    199e:	6001      	str	r1, [r0, #0]
    19a0:	f013 0001 	ands.w	r0, r3, #1
    19a4:	d103      	bne.n	19ae <rt_free_box+0x24>
    19a6:	b662      	cpsie	i
    19a8:	4770      	bx	lr
    19aa:	2001      	movs	r0, #1
    19ac:	4770      	bx	lr
    19ae:	2000      	movs	r0, #0
    19b0:	4770      	bx	lr

000019b2 <rt_mbx_init>:
    19b2:	2301      	movs	r3, #1
    19b4:	7003      	strb	r3, [r0, #0]
    19b6:	2300      	movs	r3, #0
    19b8:	3910      	subs	r1, #16
    19ba:	0889      	lsrs	r1, r1, #2
    19bc:	7043      	strb	r3, [r0, #1]
    19be:	7083      	strb	r3, [r0, #2]
    19c0:	6043      	str	r3, [r0, #4]
    19c2:	8103      	strh	r3, [r0, #8]
    19c4:	8143      	strh	r3, [r0, #10]
    19c6:	8183      	strh	r3, [r0, #12]
    19c8:	81c1      	strh	r1, [r0, #14]
    19ca:	4770      	bx	lr

000019cc <rt_mbx_wait>:
    19cc:	b570      	push	{r4, r5, r6, lr}
    19ce:	8985      	ldrh	r5, [r0, #12]
    19d0:	4604      	mov	r4, r0
    19d2:	4616      	mov	r6, r2
    19d4:	2d00      	cmp	r5, #0
    19d6:	d038      	beq.n	1a4a <rt_mbx_wait+0x7e>
    19d8:	8943      	ldrh	r3, [r0, #10]
    19da:	1d1a      	adds	r2, r3, #4
    19dc:	f850 2022 	ldr.w	r2, [r0, r2, lsl #2]
    19e0:	3301      	adds	r3, #1
    19e2:	600a      	str	r2, [r1, #0]
    19e4:	89c2      	ldrh	r2, [r0, #14]
    19e6:	b29b      	uxth	r3, r3
    19e8:	429a      	cmp	r2, r3
    19ea:	8143      	strh	r3, [r0, #10]
    19ec:	bf04      	itt	eq
    19ee:	2300      	moveq	r3, #0
    19f0:	8143      	strheq	r3, [r0, #10]
    19f2:	6843      	ldr	r3, [r0, #4]
    19f4:	b1f3      	cbz	r3, 1a34 <rt_mbx_wait+0x68>
    19f6:	7843      	ldrb	r3, [r0, #1]
    19f8:	2b02      	cmp	r3, #2
    19fa:	d11b      	bne.n	1a34 <rt_mbx_wait+0x68>
    19fc:	f7ff fdca 	bl	1594 <rt_get_first>
    1a00:	4605      	mov	r5, r0
    1a02:	2100      	movs	r1, #0
    1a04:	f7ff ff88 	bl	1918 <rt_ret_val>
    1a08:	8923      	ldrh	r3, [r4, #8]
    1a0a:	69e9      	ldr	r1, [r5, #28]
    1a0c:	1d1a      	adds	r2, r3, #4
    1a0e:	f844 1022 	str.w	r1, [r4, r2, lsl #2]
    1a12:	3301      	adds	r3, #1
    1a14:	89e2      	ldrh	r2, [r4, #14]
    1a16:	b29b      	uxth	r3, r3
    1a18:	429a      	cmp	r2, r3
    1a1a:	8123      	strh	r3, [r4, #8]
    1a1c:	bf08      	it	eq
    1a1e:	2300      	moveq	r3, #0
    1a20:	4628      	mov	r0, r5
    1a22:	bf08      	it	eq
    1a24:	8123      	strheq	r3, [r4, #8]
    1a26:	f7ff fe5b 	bl	16e0 <rt_rmv_dly>
    1a2a:	4628      	mov	r0, r5
    1a2c:	f000 fc7e 	bl	232c <rt_dispatch>
    1a30:	2000      	movs	r0, #0
    1a32:	bd70      	pop	{r4, r5, r6, pc}
    1a34:	f3ef 8010 	mrs	r0, PRIMASK
    1a38:	f3ef 8310 	mrs	r3, PRIMASK
    1a3c:	b672      	cpsid	i
    1a3e:	3d01      	subs	r5, #1
    1a40:	81a5      	strh	r5, [r4, #12]
    1a42:	2800      	cmp	r0, #0
    1a44:	d1f4      	bne.n	1a30 <rt_mbx_wait+0x64>
    1a46:	b662      	cpsie	i
    1a48:	bd70      	pop	{r4, r5, r6, pc}
    1a4a:	b14a      	cbz	r2, 1a60 <rt_mbx_wait+0x94>
    1a4c:	6842      	ldr	r2, [r0, #4]
    1a4e:	4b09      	ldr	r3, [pc, #36]	; (1a74 <rt_mbx_wait+0xa8>)
    1a50:	b142      	cbz	r2, 1a64 <rt_mbx_wait+0x98>
    1a52:	6819      	ldr	r1, [r3, #0]
    1a54:	f7ff fd86 	bl	1564 <rt_put_prio>
    1a58:	2108      	movs	r1, #8
    1a5a:	4630      	mov	r0, r6
    1a5c:	f000 fc88 	bl	2370 <rt_block>
    1a60:	2001      	movs	r0, #1
    1a62:	bd70      	pop	{r4, r5, r6, pc}
    1a64:	681b      	ldr	r3, [r3, #0]
    1a66:	6043      	str	r3, [r0, #4]
    1a68:	605a      	str	r2, [r3, #4]
    1a6a:	6098      	str	r0, [r3, #8]
    1a6c:	2301      	movs	r3, #1
    1a6e:	7043      	strb	r3, [r0, #1]
    1a70:	e7f2      	b.n	1a58 <rt_mbx_wait+0x8c>
    1a72:	bf00      	nop
    1a74:	10002414 	.word	0x10002414

00001a78 <rt_mbx_check>:
    1a78:	89c2      	ldrh	r2, [r0, #14]
    1a7a:	8980      	ldrh	r0, [r0, #12]
    1a7c:	1a10      	subs	r0, r2, r0
    1a7e:	4770      	bx	lr

00001a80 <isr_mbx_send>:
    1a80:	b508      	push	{r3, lr}
    1a82:	f7ff fe41 	bl	1708 <rt_psq_enq>
    1a86:	e8bd 4008 	ldmia.w	sp!, {r3, lr}
    1a8a:	f7ff be63 	b.w	1754 <rt_psh_req>

00001a8e <isr_mbx_receive>:
    1a8e:	8983      	ldrh	r3, [r0, #12]
    1a90:	b510      	push	{r4, lr}
    1a92:	4604      	mov	r4, r0
    1a94:	b30b      	cbz	r3, 1ada <isr_mbx_receive+0x4c>
    1a96:	8943      	ldrh	r3, [r0, #10]
    1a98:	3304      	adds	r3, #4
    1a9a:	f850 3023 	ldr.w	r3, [r0, r3, lsl #2]
    1a9e:	600b      	str	r3, [r1, #0]
    1aa0:	7843      	ldrb	r3, [r0, #1]
    1aa2:	2b02      	cmp	r3, #2
    1aa4:	d104      	bne.n	1ab0 <isr_mbx_receive+0x22>
    1aa6:	2100      	movs	r1, #0
    1aa8:	f7ff fe2e 	bl	1708 <rt_psq_enq>
    1aac:	f7ff fe52 	bl	1754 <rt_psh_req>
    1ab0:	f3ef 8310 	mrs	r3, PRIMASK
    1ab4:	f3ef 8210 	mrs	r2, PRIMASK
    1ab8:	b672      	cpsid	i
    1aba:	89a2      	ldrh	r2, [r4, #12]
    1abc:	3a01      	subs	r2, #1
    1abe:	81a2      	strh	r2, [r4, #12]
    1ac0:	b903      	cbnz	r3, 1ac4 <isr_mbx_receive+0x36>
    1ac2:	b662      	cpsie	i
    1ac4:	8963      	ldrh	r3, [r4, #10]
    1ac6:	89e2      	ldrh	r2, [r4, #14]
    1ac8:	3301      	adds	r3, #1
    1aca:	b29b      	uxth	r3, r3
    1acc:	429a      	cmp	r2, r3
    1ace:	8163      	strh	r3, [r4, #10]
    1ad0:	d101      	bne.n	1ad6 <isr_mbx_receive+0x48>
    1ad2:	2300      	movs	r3, #0
    1ad4:	8163      	strh	r3, [r4, #10]
    1ad6:	2004      	movs	r0, #4
    1ad8:	bd10      	pop	{r4, pc}
    1ada:	4618      	mov	r0, r3
    1adc:	bd10      	pop	{r4, pc}
	...

00001ae0 <rt_mbx_psh>:
    1ae0:	6843      	ldr	r3, [r0, #4]
    1ae2:	b570      	push	{r4, r5, r6, lr}
    1ae4:	4604      	mov	r4, r0
    1ae6:	460e      	mov	r6, r1
    1ae8:	2b00      	cmp	r3, #0
    1aea:	d04b      	beq.n	1b84 <rt_mbx_psh+0xa4>
    1aec:	7845      	ldrb	r5, [r0, #1]
    1aee:	2d02      	cmp	r5, #2
    1af0:	d020      	beq.n	1b34 <rt_mbx_psh+0x54>
    1af2:	2d03      	cmp	r5, #3
    1af4:	d00a      	beq.n	1b0c <rt_mbx_psh+0x2c>
    1af6:	2d01      	cmp	r5, #1
    1af8:	d161      	bne.n	1bbe <rt_mbx_psh+0xde>
    1afa:	f7ff fd4b 	bl	1594 <rt_get_first>
    1afe:	4604      	mov	r4, r0
    1b00:	4632      	mov	r2, r6
    1b02:	2110      	movs	r1, #16
    1b04:	f7ff ff0b 	bl	191e <rt_ret_val2>
    1b08:	7065      	strb	r5, [r4, #1]
    1b0a:	e00e      	b.n	1b2a <rt_mbx_psh+0x4a>
    1b0c:	4608      	mov	r0, r1
    1b0e:	f7ff ff2f 	bl	1970 <rt_alloc_box>
    1b12:	4605      	mov	r5, r0
    1b14:	2800      	cmp	r0, #0
    1b16:	d052      	beq.n	1bbe <rt_mbx_psh+0xde>
    1b18:	4620      	mov	r0, r4
    1b1a:	f7ff fd3b 	bl	1594 <rt_get_first>
    1b1e:	4629      	mov	r1, r5
    1b20:	4604      	mov	r4, r0
    1b22:	f7ff fef9 	bl	1918 <rt_ret_val>
    1b26:	2301      	movs	r3, #1
    1b28:	7063      	strb	r3, [r4, #1]
    1b2a:	4620      	mov	r0, r4
    1b2c:	f7ff fdd8 	bl	16e0 <rt_rmv_dly>
    1b30:	4621      	mov	r1, r4
    1b32:	e022      	b.n	1b7a <rt_mbx_psh+0x9a>
    1b34:	f7ff fd2e 	bl	1594 <rt_get_first>
    1b38:	4605      	mov	r5, r0
    1b3a:	2100      	movs	r1, #0
    1b3c:	f7ff feec 	bl	1918 <rt_ret_val>
    1b40:	8923      	ldrh	r3, [r4, #8]
    1b42:	69e9      	ldr	r1, [r5, #28]
    1b44:	1d1a      	adds	r2, r3, #4
    1b46:	f844 1022 	str.w	r1, [r4, r2, lsl #2]
    1b4a:	f3ef 8210 	mrs	r2, PRIMASK
    1b4e:	f3ef 8110 	mrs	r1, PRIMASK
    1b52:	b672      	cpsid	i
    1b54:	89a1      	ldrh	r1, [r4, #12]
    1b56:	3101      	adds	r1, #1
    1b58:	81a1      	strh	r1, [r4, #12]
    1b5a:	b902      	cbnz	r2, 1b5e <rt_mbx_psh+0x7e>
    1b5c:	b662      	cpsie	i
    1b5e:	89e2      	ldrh	r2, [r4, #14]
    1b60:	3301      	adds	r3, #1
    1b62:	b29b      	uxth	r3, r3
    1b64:	429a      	cmp	r2, r3
    1b66:	8123      	strh	r3, [r4, #8]
    1b68:	bf04      	itt	eq
    1b6a:	2300      	moveq	r3, #0
    1b6c:	8123      	strheq	r3, [r4, #8]
    1b6e:	2301      	movs	r3, #1
    1b70:	4628      	mov	r0, r5
    1b72:	706b      	strb	r3, [r5, #1]
    1b74:	f7ff fdb4 	bl	16e0 <rt_rmv_dly>
    1b78:	4629      	mov	r1, r5
    1b7a:	e8bd 4070 	ldmia.w	sp!, {r4, r5, r6, lr}
    1b7e:	4810      	ldr	r0, [pc, #64]	; (1bc0 <rt_mbx_psh+0xe0>)
    1b80:	f7ff bcf0 	b.w	1564 <rt_put_prio>
    1b84:	8980      	ldrh	r0, [r0, #12]
    1b86:	89e1      	ldrh	r1, [r4, #14]
    1b88:	4288      	cmp	r0, r1
    1b8a:	d213      	bcs.n	1bb4 <rt_mbx_psh+0xd4>
    1b8c:	8923      	ldrh	r3, [r4, #8]
    1b8e:	1d1a      	adds	r2, r3, #4
    1b90:	f844 6022 	str.w	r6, [r4, r2, lsl #2]
    1b94:	f3ef 8210 	mrs	r2, PRIMASK
    1b98:	f3ef 8510 	mrs	r5, PRIMASK
    1b9c:	b672      	cpsid	i
    1b9e:	3001      	adds	r0, #1
    1ba0:	81a0      	strh	r0, [r4, #12]
    1ba2:	b902      	cbnz	r2, 1ba6 <rt_mbx_psh+0xc6>
    1ba4:	b662      	cpsie	i
    1ba6:	3301      	adds	r3, #1
    1ba8:	b29b      	uxth	r3, r3
    1baa:	4299      	cmp	r1, r3
    1bac:	bf08      	it	eq
    1bae:	2300      	moveq	r3, #0
    1bb0:	8123      	strh	r3, [r4, #8]
    1bb2:	bd70      	pop	{r4, r5, r6, pc}
    1bb4:	2003      	movs	r0, #3
    1bb6:	e8bd 4070 	ldmia.w	sp!, {r4, r5, r6, lr}
    1bba:	f7ff bc85 	b.w	14c8 <os_error>
    1bbe:	bd70      	pop	{r4, r5, r6, pc}
    1bc0:	100023c8 	.word	0x100023c8

00001bc4 <rt_evt_psh>:
    1bc4:	b510      	push	{r4, lr}
    1bc6:	8b03      	ldrh	r3, [r0, #24]
    1bc8:	7842      	ldrb	r2, [r0, #1]
    1bca:	4319      	orrs	r1, r3
    1bcc:	2a06      	cmp	r2, #6
    1bce:	4604      	mov	r4, r0
    1bd0:	8301      	strh	r1, [r0, #24]
    1bd2:	8b43      	ldrh	r3, [r0, #26]
    1bd4:	d115      	bne.n	1c02 <rt_evt_psh+0x3e>
    1bd6:	ea33 0201 	bics.w	r2, r3, r1
    1bda:	d119      	bne.n	1c10 <rt_evt_psh+0x4c>
    1bdc:	ea21 0103 	bic.w	r1, r1, r3
    1be0:	8321      	strh	r1, [r4, #24]
    1be2:	4620      	mov	r0, r4
    1be4:	f7ff fd7c 	bl	16e0 <rt_rmv_dly>
    1be8:	2301      	movs	r3, #1
    1bea:	4620      	mov	r0, r4
    1bec:	7063      	strb	r3, [r4, #1]
    1bee:	8b62      	ldrh	r2, [r4, #26]
    1bf0:	2108      	movs	r1, #8
    1bf2:	f7ff fe94 	bl	191e <rt_ret_val2>
    1bf6:	4621      	mov	r1, r4
    1bf8:	e8bd 4010 	ldmia.w	sp!, {r4, lr}
    1bfc:	4805      	ldr	r0, [pc, #20]	; (1c14 <rt_evt_psh+0x50>)
    1bfe:	f7ff bcb1 	b.w	1564 <rt_put_prio>
    1c02:	2a05      	cmp	r2, #5
    1c04:	d104      	bne.n	1c10 <rt_evt_psh+0x4c>
    1c06:	ea11 0203 	ands.w	r2, r1, r3
    1c0a:	d001      	beq.n	1c10 <rt_evt_psh+0x4c>
    1c0c:	8342      	strh	r2, [r0, #26]
    1c0e:	e7e5      	b.n	1bdc <rt_evt_psh+0x18>
    1c10:	bd10      	pop	{r4, pc}
    1c12:	bf00      	nop
    1c14:	100023c8 	.word	0x100023c8

00001c18 <rt_init_robin>:
    1c18:	2200      	movs	r2, #0
    1c1a:	4b03      	ldr	r3, [pc, #12]	; (1c28 <rt_init_robin+0x10>)
    1c1c:	601a      	str	r2, [r3, #0]
    1c1e:	4a03      	ldr	r2, [pc, #12]	; (1c2c <rt_init_robin+0x14>)
    1c20:	6812      	ldr	r2, [r2, #0]
    1c22:	80da      	strh	r2, [r3, #6]
    1c24:	4770      	bx	lr
    1c26:	bf00      	nop
    1c28:	10002400 	.word	0x10002400
    1c2c:	00005910 	.word	0x00005910

00001c30 <rt_chk_robin>:
    1c30:	b508      	push	{r3, lr}
    1c32:	4b0e      	ldr	r3, [pc, #56]	; (1c6c <rt_chk_robin+0x3c>)
    1c34:	685a      	ldr	r2, [r3, #4]
    1c36:	4b0e      	ldr	r3, [pc, #56]	; (1c70 <rt_chk_robin+0x40>)
    1c38:	6819      	ldr	r1, [r3, #0]
    1c3a:	4291      	cmp	r1, r2
    1c3c:	490d      	ldr	r1, [pc, #52]	; (1c74 <rt_chk_robin+0x44>)
    1c3e:	d005      	beq.n	1c4c <rt_chk_robin+0x1c>
    1c40:	601a      	str	r2, [r3, #0]
    1c42:	88da      	ldrh	r2, [r3, #6]
    1c44:	6808      	ldr	r0, [r1, #0]
    1c46:	3a01      	subs	r2, #1
    1c48:	4402      	add	r2, r0
    1c4a:	809a      	strh	r2, [r3, #4]
    1c4c:	8898      	ldrh	r0, [r3, #4]
    1c4e:	880a      	ldrh	r2, [r1, #0]
    1c50:	4290      	cmp	r0, r2
    1c52:	d10a      	bne.n	1c6a <rt_chk_robin+0x3a>
    1c54:	2200      	movs	r2, #0
    1c56:	4805      	ldr	r0, [pc, #20]	; (1c6c <rt_chk_robin+0x3c>)
    1c58:	601a      	str	r2, [r3, #0]
    1c5a:	f7ff fc9b 	bl	1594 <rt_get_first>
    1c5e:	e8bd 4008 	ldmia.w	sp!, {r3, lr}
    1c62:	4601      	mov	r1, r0
    1c64:	4801      	ldr	r0, [pc, #4]	; (1c6c <rt_chk_robin+0x3c>)
    1c66:	f7ff bc7d 	b.w	1564 <rt_put_prio>
    1c6a:	bd08      	pop	{r3, pc}
    1c6c:	100023c8 	.word	0x100023c8
    1c70:	10002400 	.word	0x10002400
    1c74:	1000245c 	.word	0x1000245c

00001c78 <rt_timer_insert>:
    1c78:	b530      	push	{r4, r5, lr}
    1c7a:	2400      	movs	r4, #0
    1c7c:	4a0a      	ldr	r2, [pc, #40]	; (1ca8 <rt_timer_insert+0x30>)
    1c7e:	6813      	ldr	r3, [r2, #0]
    1c80:	b943      	cbnz	r3, 1c94 <rt_timer_insert+0x1c>
    1c82:	6003      	str	r3, [r0, #0]
    1c84:	6081      	str	r1, [r0, #8]
    1c86:	b113      	cbz	r3, 1c8e <rt_timer_insert+0x16>
    1c88:	689d      	ldr	r5, [r3, #8]
    1c8a:	1a69      	subs	r1, r5, r1
    1c8c:	6099      	str	r1, [r3, #8]
    1c8e:	b144      	cbz	r4, 1ca2 <rt_timer_insert+0x2a>
    1c90:	6020      	str	r0, [r4, #0]
    1c92:	bd30      	pop	{r4, r5, pc}
    1c94:	689d      	ldr	r5, [r3, #8]
    1c96:	42a9      	cmp	r1, r5
    1c98:	d3f3      	bcc.n	1c82 <rt_timer_insert+0xa>
    1c9a:	461c      	mov	r4, r3
    1c9c:	1b49      	subs	r1, r1, r5
    1c9e:	681b      	ldr	r3, [r3, #0]
    1ca0:	e7ee      	b.n	1c80 <rt_timer_insert+0x8>
    1ca2:	6010      	str	r0, [r2, #0]
    1ca4:	bd30      	pop	{r4, r5, pc}
    1ca6:	bf00      	nop
    1ca8:	10002410 	.word	0x10002410

00001cac <rt_ms2tick>:
    1cac:	b1c0      	cbz	r0, 1ce0 <rt_ms2tick+0x34>
    1cae:	1c43      	adds	r3, r0, #1
    1cb0:	d011      	beq.n	1cd6 <rt_ms2tick+0x2a>
    1cb2:	4b0c      	ldr	r3, [pc, #48]	; (1ce4 <rt_ms2tick+0x38>)
    1cb4:	4298      	cmp	r0, r3
    1cb6:	d811      	bhi.n	1cdc <rt_ms2tick+0x30>
    1cb8:	f44f 717a 	mov.w	r1, #1000	; 0x3e8
    1cbc:	4b0a      	ldr	r3, [pc, #40]	; (1ce8 <rt_ms2tick+0x3c>)
    1cbe:	681b      	ldr	r3, [r3, #0]
    1cc0:	1e5a      	subs	r2, r3, #1
    1cc2:	fb01 2000 	mla	r0, r1, r0, r2
    1cc6:	fbb0 f3f3 	udiv	r3, r0, r3
    1cca:	f64f 70fe 	movw	r0, #65534	; 0xfffe
    1cce:	4283      	cmp	r3, r0
    1cd0:	d806      	bhi.n	1ce0 <rt_ms2tick+0x34>
    1cd2:	b298      	uxth	r0, r3
    1cd4:	4770      	bx	lr
    1cd6:	f64f 70ff 	movw	r0, #65535	; 0xffff
    1cda:	4770      	bx	lr
    1cdc:	f64f 70fe 	movw	r0, #65534	; 0xfffe
    1ce0:	4770      	bx	lr
    1ce2:	bf00      	nop
    1ce4:	003d0900 	.word	0x003d0900
    1ce8:	000058c8 	.word	0x000058c8

00001cec <rt_tid2ptcb>:
    1cec:	b138      	cbz	r0, 1cfe <rt_tid2ptcb+0x12>
    1cee:	0783      	lsls	r3, r0, #30
    1cf0:	d104      	bne.n	1cfc <rt_tid2ptcb+0x10>
    1cf2:	7803      	ldrb	r3, [r0, #0]
    1cf4:	2b00      	cmp	r3, #0
    1cf6:	bf18      	it	ne
    1cf8:	2000      	movne	r0, #0
    1cfa:	4770      	bx	lr
    1cfc:	2000      	movs	r0, #0
    1cfe:	4770      	bx	lr

00001d00 <svcKernelStart>:
    1d00:	b5b0      	push	{r4, r5, r7, lr}
    1d02:	4d0e      	ldr	r5, [pc, #56]	; (1d3c <svcKernelStart+0x3c>)
    1d04:	af00      	add	r7, sp, #0
    1d06:	7828      	ldrb	r0, [r5, #0]
    1d08:	b9a8      	cbnz	r0, 1d36 <svcKernelStart+0x36>
    1d0a:	4c0d      	ldr	r4, [pc, #52]	; (1d40 <svcKernelStart+0x40>)
    1d0c:	6823      	ldr	r3, [r4, #0]
    1d0e:	f893 1024 	ldrb.w	r1, [r3, #36]	; 0x24
    1d12:	f000 fb4f 	bl	23b4 <rt_tsk_prio>
    1d16:	6823      	ldr	r3, [r4, #0]
    1d18:	78da      	ldrb	r2, [r3, #3]
    1d1a:	2aff      	cmp	r2, #255	; 0xff
    1d1c:	d103      	bne.n	1d26 <svcKernelStart+0x26>
    1d1e:	6ada      	ldr	r2, [r3, #44]	; 0x2c
    1d20:	3220      	adds	r2, #32
    1d22:	f382 8809 	msr	PSP, r2
    1d26:	6862      	ldr	r2, [r4, #4]
    1d28:	b90a      	cbnz	r2, 1d2e <svcKernelStart+0x2e>
    1d2a:	e884 000c 	stmia.w	r4, {r2, r3}
    1d2e:	f000 fcf9 	bl	2724 <rt_sys_start>
    1d32:	2301      	movs	r3, #1
    1d34:	702b      	strb	r3, [r5, #0]
    1d36:	2000      	movs	r0, #0
    1d38:	bdb0      	pop	{r4, r5, r7, pc}
    1d3a:	bf00      	nop
    1d3c:	1000240d 	.word	0x1000240d
    1d40:	10002414 	.word	0x10002414

00001d44 <svcKernelRunning>:
    1d44:	4b01      	ldr	r3, [pc, #4]	; (1d4c <svcKernelRunning+0x8>)
    1d46:	7818      	ldrb	r0, [r3, #0]
    1d48:	4770      	bx	lr
    1d4a:	bf00      	nop
    1d4c:	1000240d 	.word	0x1000240d

00001d50 <osKernelRunning>:
    1d50:	b510      	push	{r4, lr}
    1d52:	f3ef 8410 	mrs	r4, PRIMASK
    1d56:	b934      	cbnz	r4, 1d66 <osKernelRunning+0x16>
    1d58:	f3ef 8405 	mrs	r4, IPSR
    1d5c:	b91c      	cbnz	r4, 1d66 <osKernelRunning+0x16>
    1d5e:	f3ef 8414 	mrs	r4, CONTROL
    1d62:	07e4      	lsls	r4, r4, #31
    1d64:	d402      	bmi.n	1d6c <osKernelRunning+0x1c>
    1d66:	4b03      	ldr	r3, [pc, #12]	; (1d74 <osKernelRunning+0x24>)
    1d68:	7818      	ldrb	r0, [r3, #0]
    1d6a:	bd10      	pop	{r4, pc}
    1d6c:	f8df c008 	ldr.w	r12, [pc, #8]	; 1d78 <osKernelRunning+0x28>
    1d70:	df00      	svc	0
    1d72:	bd10      	pop	{r4, pc}
    1d74:	1000240d 	.word	0x1000240d
    1d78:	00001d45 	.word	0x00001d45

00001d7c <osKernelStart>:
    1d7c:	b590      	push	{r4, r7, lr}
    1d7e:	b089      	sub	sp, #36	; 0x24
    1d80:	af00      	add	r7, sp, #0
    1d82:	f3ef 8310 	mrs	r3, PRIMASK
    1d86:	2b00      	cmp	r3, #0
    1d88:	d137      	bne.n	1dfa <osKernelStart+0x7e>
    1d8a:	f3ef 8305 	mrs	r3, IPSR
    1d8e:	2b00      	cmp	r3, #0
    1d90:	d133      	bne.n	1dfa <osKernelStart+0x7e>
    1d92:	f7ff ffdd 	bl	1d50 <osKernelRunning>
    1d96:	b928      	cbnz	r0, 1da4 <osKernelStart+0x28>
    1d98:	4c19      	ldr	r4, [pc, #100]	; (1e00 <osKernelStart+0x84>)
    1d9a:	6824      	ldr	r4, [r4, #0]
    1d9c:	b114      	cbz	r4, 1da4 <osKernelStart+0x28>
    1d9e:	6864      	ldr	r4, [r4, #4]
    1da0:	b104      	cbz	r4, 1da4 <osKernelStart+0x28>
    1da2:	47a0      	blx	r4
    1da4:	f3ef 8414 	mrs	r4, CONTROL
    1da8:	f004 0403 	and.w	r4, r4, #3
    1dac:	2c02      	cmp	r4, #2
    1dae:	d018      	beq.n	1de2 <osKernelStart+0x66>
    1db0:	2c03      	cmp	r4, #3
    1db2:	d01c      	beq.n	1dee <osKernelStart+0x72>
    1db4:	2c01      	cmp	r4, #1
    1db6:	d01e      	beq.n	1df6 <osKernelStart+0x7a>
    1db8:	f107 0420 	add.w	r4, r7, #32
    1dbc:	f384 8809 	msr	PSP, r4
    1dc0:	4c10      	ldr	r4, [pc, #64]	; (1e04 <osKernelStart+0x88>)
    1dc2:	7824      	ldrb	r4, [r4, #0]
    1dc4:	07e4      	lsls	r4, r4, #31
    1dc6:	d510      	bpl.n	1dea <osKernelStart+0x6e>
    1dc8:	2402      	movs	r4, #2
    1dca:	f384 8814 	msr	CONTROL, r4
    1dce:	f3bf 8f4f 	dsb	sy
    1dd2:	f3bf 8f6f 	isb	sy
    1dd6:	f8df c030 	ldr.w	r12, [pc, #48]	; 1e08 <osKernelStart+0x8c>
    1dda:	df00      	svc	0
    1ddc:	3724      	adds	r7, #36	; 0x24
    1dde:	46bd      	mov	sp, r7
    1de0:	bd90      	pop	{r4, r7, pc}
    1de2:	4c08      	ldr	r4, [pc, #32]	; (1e04 <osKernelStart+0x88>)
    1de4:	7824      	ldrb	r4, [r4, #0]
    1de6:	07e4      	lsls	r4, r4, #31
    1de8:	d4f5      	bmi.n	1dd6 <osKernelStart+0x5a>
    1dea:	2403      	movs	r4, #3
    1dec:	e7ed      	b.n	1dca <osKernelStart+0x4e>
    1dee:	4c05      	ldr	r4, [pc, #20]	; (1e04 <osKernelStart+0x88>)
    1df0:	7824      	ldrb	r4, [r4, #0]
    1df2:	07e4      	lsls	r4, r4, #31
    1df4:	d5ef      	bpl.n	1dd6 <osKernelStart+0x5a>
    1df6:	20ff      	movs	r0, #255	; 0xff
    1df8:	e7f0      	b.n	1ddc <osKernelStart+0x60>
    1dfa:	2082      	movs	r0, #130	; 0x82
    1dfc:	e7ee      	b.n	1ddc <osKernelStart+0x60>
    1dfe:	bf00      	nop
    1e00:	100023fc 	.word	0x100023fc
    1e04:	000058f6 	.word	0x000058f6
    1e08:	00001d01 	.word	0x00001d01

00001e0c <svcThreadCreate>:
    1e0c:	b570      	push	{r4, r5, r6, lr}
    1e0e:	460b      	mov	r3, r1
    1e10:	4616      	mov	r6, r2
    1e12:	4602      	mov	r2, r0
    1e14:	b910      	cbnz	r0, 1e1c <svcThreadCreate+0x10>
    1e16:	2400      	movs	r4, #0
    1e18:	4620      	mov	r0, r4
    1e1a:	bd70      	pop	{r4, r5, r6, pc}
    1e1c:	6800      	ldr	r0, [r0, #0]
    1e1e:	2800      	cmp	r0, #0
    1e20:	d0f9      	beq.n	1e16 <svcThreadCreate+0xa>
    1e22:	f9b2 4004 	ldrsh.w	r4, [r2, #4]
    1e26:	1ce5      	adds	r5, r4, #3
    1e28:	b2ad      	uxth	r5, r5
    1e2a:	2d06      	cmp	r5, #6
    1e2c:	d8f3      	bhi.n	1e16 <svcThreadCreate+0xa>
    1e2e:	68d1      	ldr	r1, [r2, #12]
    1e30:	b1c1      	cbz	r1, 1e64 <svcThreadCreate+0x58>
    1e32:	6912      	ldr	r2, [r2, #16]
    1e34:	3404      	adds	r4, #4
    1e36:	ea44 2101 	orr.w	r1, r4, r1, lsl #8
    1e3a:	f000 faf9 	bl	2430 <rt_tsk_create>
    1e3e:	2800      	cmp	r0, #0
    1e40:	d0e9      	beq.n	1e16 <svcThreadCreate+0xa>
    1e42:	4b0a      	ldr	r3, [pc, #40]	; (1e6c <svcThreadCreate+0x60>)
    1e44:	3801      	subs	r0, #1
    1e46:	f853 4020 	ldr.w	r4, [r3, r0, lsl #2]
    1e4a:	4a09      	ldr	r2, [pc, #36]	; (1e70 <svcThreadCreate+0x64>)
    1e4c:	6ae3      	ldr	r3, [r4, #44]	; 0x2c
    1e4e:	635a      	str	r2, [r3, #52]	; 0x34
    1e50:	4b08      	ldr	r3, [pc, #32]	; (1e74 <svcThreadCreate+0x68>)
    1e52:	681b      	ldr	r3, [r3, #0]
    1e54:	b143      	cbz	r3, 1e68 <svcThreadCreate+0x5c>
    1e56:	689b      	ldr	r3, [r3, #8]
    1e58:	b133      	cbz	r3, 1e68 <svcThreadCreate+0x5c>
    1e5a:	4631      	mov	r1, r6
    1e5c:	78e0      	ldrb	r0, [r4, #3]
    1e5e:	4798      	blx	r3
    1e60:	63e0      	str	r0, [r4, #60]	; 0x3c
    1e62:	e7d9      	b.n	1e18 <svcThreadCreate+0xc>
    1e64:	460a      	mov	r2, r1
    1e66:	e7e5      	b.n	1e34 <svcThreadCreate+0x28>
    1e68:	63e6      	str	r6, [r4, #60]	; 0x3c
    1e6a:	e7d5      	b.n	1e18 <svcThreadCreate+0xc>
    1e6c:	10001c10 	.word	0x10001c10
    1e70:	00001ff9 	.word	0x00001ff9
    1e74:	100023fc 	.word	0x100023fc

00001e78 <svcThreadGetId>:
    1e78:	b508      	push	{r3, lr}
    1e7a:	f000 fa93 	bl	23a4 <rt_tsk_self>
    1e7e:	b118      	cbz	r0, 1e88 <svcThreadGetId+0x10>
    1e80:	4b02      	ldr	r3, [pc, #8]	; (1e8c <svcThreadGetId+0x14>)
    1e82:	3801      	subs	r0, #1
    1e84:	f853 0020 	ldr.w	r0, [r3, r0, lsl #2]
    1e88:	bd08      	pop	{r3, pc}
    1e8a:	bf00      	nop
    1e8c:	10001c10 	.word	0x10001c10

00001e90 <svcThreadTerminate>:
    1e90:	b510      	push	{r4, lr}
    1e92:	f7ff ff2b 	bl	1cec <rt_tid2ptcb>
    1e96:	4604      	mov	r4, r0
    1e98:	b170      	cbz	r0, 1eb8 <svcThreadTerminate+0x28>
    1e9a:	4b08      	ldr	r3, [pc, #32]	; (1ebc <svcThreadTerminate+0x2c>)
    1e9c:	681b      	ldr	r3, [r3, #0]
    1e9e:	b11b      	cbz	r3, 1ea8 <svcThreadTerminate+0x18>
    1ea0:	68db      	ldr	r3, [r3, #12]
    1ea2:	b10b      	cbz	r3, 1ea8 <svcThreadTerminate+0x18>
    1ea4:	6bc0      	ldr	r0, [r0, #60]	; 0x3c
    1ea6:	4798      	blx	r3
    1ea8:	78e0      	ldrb	r0, [r4, #3]
    1eaa:	f000 fb17 	bl	24dc <rt_tsk_delete>
    1eae:	28ff      	cmp	r0, #255	; 0xff
    1eb0:	bf0c      	ite	eq
    1eb2:	2081      	moveq	r0, #129	; 0x81
    1eb4:	2000      	movne	r0, #0
    1eb6:	bd10      	pop	{r4, pc}
    1eb8:	2080      	movs	r0, #128	; 0x80
    1eba:	bd10      	pop	{r4, pc}
    1ebc:	100023fc 	.word	0x100023fc

00001ec0 <svcDelay>:
    1ec0:	b508      	push	{r3, lr}
    1ec2:	b128      	cbz	r0, 1ed0 <svcDelay+0x10>
    1ec4:	f7ff fef2 	bl	1cac <rt_ms2tick>
    1ec8:	f000 fd18 	bl	28fc <rt_dly_wait>
    1ecc:	2040      	movs	r0, #64	; 0x40
    1ece:	bd08      	pop	{r3, pc}
    1ed0:	bd08      	pop	{r3, pc}
	...

00001ed4 <osDelay>:
    1ed4:	b510      	push	{r4, lr}
    1ed6:	f3ef 8410 	mrs	r4, PRIMASK
    1eda:	b934      	cbnz	r4, 1eea <osDelay+0x16>
    1edc:	f3ef 8405 	mrs	r4, IPSR
    1ee0:	b91c      	cbnz	r4, 1eea <osDelay+0x16>
    1ee2:	f8df c00c 	ldr.w	r12, [pc, #12]	; 1ef0 <osDelay+0x1c>
    1ee6:	df00      	svc	0
    1ee8:	bd10      	pop	{r4, pc}
    1eea:	2082      	movs	r0, #130	; 0x82
    1eec:	bd10      	pop	{r4, pc}
    1eee:	0000      	.short	0x0000
    1ef0:	00001ec1 	.word	0x00001ec1

00001ef4 <svcTimerCall>:
    1ef4:	0783      	lsls	r3, r0, #30
    1ef6:	d105      	bne.n	1f04 <svcTimerCall+0x10>
    1ef8:	b138      	cbz	r0, 1f0a <svcTimerCall+0x16>
    1efa:	6943      	ldr	r3, [r0, #20]
    1efc:	6901      	ldr	r1, [r0, #16]
    1efe:	681b      	ldr	r3, [r3, #0]
    1f00:	4618      	mov	r0, r3
    1f02:	4770      	bx	lr
    1f04:	2300      	movs	r3, #0
    1f06:	4619      	mov	r1, r3
    1f08:	e7fa      	b.n	1f00 <svcTimerCall+0xc>
    1f0a:	4603      	mov	r3, r0
    1f0c:	e7fb      	b.n	1f06 <svcTimerCall+0x12>
	...

00001f10 <osTimerCall>:
    1f10:	b510      	push	{r4, lr}
    1f12:	4604      	mov	r4, r0
    1f14:	4608      	mov	r0, r1
    1f16:	f8df c00c 	ldr.w	r12, [pc, #12]	; 1f24 <osTimerCall+0x14>
    1f1a:	df00      	svc	0
    1f1c:	e884 0003 	stmia.w	r4, {r0, r1}
    1f20:	4620      	mov	r0, r4
    1f22:	bd10      	pop	{r4, pc}
    1f24:	00001ef5 	.word	0x00001ef5

00001f28 <svcMutexCreate>:
    1f28:	b510      	push	{r4, lr}
    1f2a:	b148      	cbz	r0, 1f40 <svcMutexCreate+0x18>
    1f2c:	6804      	ldr	r4, [r0, #0]
    1f2e:	b124      	cbz	r4, 1f3a <svcMutexCreate+0x12>
    1f30:	7823      	ldrb	r3, [r4, #0]
    1f32:	b923      	cbnz	r3, 1f3e <svcMutexCreate+0x16>
    1f34:	4620      	mov	r0, r4
    1f36:	f000 fc3b 	bl	27b0 <rt_mut_init>
    1f3a:	4620      	mov	r0, r4
    1f3c:	bd10      	pop	{r4, pc}
    1f3e:	2000      	movs	r0, #0
    1f40:	bd10      	pop	{r4, pc}

00001f42 <svcMutexWait>:
    1f42:	b570      	push	{r4, r5, r6, lr}
    1f44:	f010 0403 	ands.w	r4, r0, #3
    1f48:	4605      	mov	r5, r0
    1f4a:	460e      	mov	r6, r1
    1f4c:	d111      	bne.n	1f72 <svcMutexWait+0x30>
    1f4e:	b180      	cbz	r0, 1f72 <svcMutexWait+0x30>
    1f50:	7803      	ldrb	r3, [r0, #0]
    1f52:	2b03      	cmp	r3, #3
    1f54:	d10d      	bne.n	1f72 <svcMutexWait+0x30>
    1f56:	4608      	mov	r0, r1
    1f58:	f7ff fea8 	bl	1cac <rt_ms2tick>
    1f5c:	4601      	mov	r1, r0
    1f5e:	4628      	mov	r0, r5
    1f60:	f000 fc9e 	bl	28a0 <rt_mut_wait>
    1f64:	2801      	cmp	r0, #1
    1f66:	d106      	bne.n	1f76 <svcMutexWait+0x34>
    1f68:	2e00      	cmp	r6, #0
    1f6a:	bf14      	ite	ne
    1f6c:	20c1      	movne	r0, #193	; 0xc1
    1f6e:	2081      	moveq	r0, #129	; 0x81
    1f70:	bd70      	pop	{r4, r5, r6, pc}
    1f72:	2080      	movs	r0, #128	; 0x80
    1f74:	bd70      	pop	{r4, r5, r6, pc}
    1f76:	4620      	mov	r0, r4
    1f78:	bd70      	pop	{r4, r5, r6, pc}

00001f7a <svcMutexRelease>:
    1f7a:	0782      	lsls	r2, r0, #30
    1f7c:	b508      	push	{r3, lr}
    1f7e:	d10a      	bne.n	1f96 <svcMutexRelease+0x1c>
    1f80:	b148      	cbz	r0, 1f96 <svcMutexRelease+0x1c>
    1f82:	7803      	ldrb	r3, [r0, #0]
    1f84:	2b03      	cmp	r3, #3
    1f86:	d106      	bne.n	1f96 <svcMutexRelease+0x1c>
    1f88:	f000 fc1a 	bl	27c0 <rt_mut_release>
    1f8c:	28ff      	cmp	r0, #255	; 0xff
    1f8e:	bf0c      	ite	eq
    1f90:	2081      	moveq	r0, #129	; 0x81
    1f92:	2000      	movne	r0, #0
    1f94:	bd08      	pop	{r3, pc}
    1f96:	2080      	movs	r0, #128	; 0x80
    1f98:	bd08      	pop	{r3, pc}
	...

00001f9c <osMutexCreate>:
    1f9c:	b570      	push	{r4, r5, r6, lr}
    1f9e:	4605      	mov	r5, r0
    1fa0:	f3ef 8410 	mrs	r4, PRIMASK
    1fa4:	b994      	cbnz	r4, 1fcc <osMutexCreate+0x30>
    1fa6:	f3ef 8605 	mrs	r6, IPSR
    1faa:	b97e      	cbnz	r6, 1fcc <osMutexCreate+0x30>
    1fac:	f3ef 8414 	mrs	r4, CONTROL
    1fb0:	07e4      	lsls	r4, r4, #31
    1fb2:	d406      	bmi.n	1fc2 <osMutexCreate+0x26>
    1fb4:	4c06      	ldr	r4, [pc, #24]	; (1fd0 <osMutexCreate+0x34>)
    1fb6:	7824      	ldrb	r4, [r4, #0]
    1fb8:	b91c      	cbnz	r4, 1fc2 <osMutexCreate+0x26>
    1fba:	e8bd 4070 	ldmia.w	sp!, {r4, r5, r6, lr}
    1fbe:	f7ff bfb3 	b.w	1f28 <svcMutexCreate>
    1fc2:	4628      	mov	r0, r5
    1fc4:	f8df c00c 	ldr.w	r12, [pc, #12]	; 1fd4 <osMutexCreate+0x38>
    1fc8:	df00      	svc	0
    1fca:	bd70      	pop	{r4, r5, r6, pc}
    1fcc:	2000      	movs	r0, #0
    1fce:	bd70      	pop	{r4, r5, r6, pc}
    1fd0:	1000240d 	.word	0x1000240d
    1fd4:	00001f29 	.word	0x00001f29

00001fd8 <osMutexWait>:
    1fd8:	b510      	push	{r4, lr}
    1fda:	f3ef 8410 	mrs	r4, PRIMASK
    1fde:	b934      	cbnz	r4, 1fee <osMutexWait+0x16>
    1fe0:	f3ef 8405 	mrs	r4, IPSR
    1fe4:	b91c      	cbnz	r4, 1fee <osMutexWait+0x16>
    1fe6:	f8df c00c 	ldr.w	r12, [pc, #12]	; 1ff4 <osMutexWait+0x1c>
    1fea:	df00      	svc	0
    1fec:	bd10      	pop	{r4, pc}
    1fee:	2082      	movs	r0, #130	; 0x82
    1ff0:	bd10      	pop	{r4, pc}
    1ff2:	0000      	.short	0x0000
    1ff4:	00001f43 	.word	0x00001f43

00001ff8 <osThreadExit>:
    1ff8:	4808      	ldr	r0, [pc, #32]	; (201c <osThreadExit+0x24>)
    1ffa:	b508      	push	{r3, lr}
    1ffc:	f04f 31ff 	mov.w	r1, #4294967295	; 0xffffffff
    2000:	6800      	ldr	r0, [r0, #0]
    2002:	f7ff ffe9 	bl	1fd8 <osMutexWait>
    2006:	f8df c018 	ldr.w	r12, [pc, #24]	; 2020 <osThreadExit+0x28>
    200a:	df00      	svc	0
    200c:	4604      	mov	r4, r0
    200e:	f7ff fa69 	bl	14e4 <sysThreadTerminate>
    2012:	4620      	mov	r0, r4
    2014:	f8df c00c 	ldr.w	r12, [pc, #12]	; 2024 <osThreadExit+0x2c>
    2018:	df00      	svc	0
    201a:	e7fe      	b.n	201a <osThreadExit+0x22>
    201c:	10002408 	.word	0x10002408
    2020:	00001e79 	.word	0x00001e79
    2024:	00001e91 	.word	0x00001e91

00002028 <osMutexRelease>:
    2028:	b510      	push	{r4, lr}
    202a:	f3ef 8410 	mrs	r4, PRIMASK
    202e:	b934      	cbnz	r4, 203e <osMutexRelease+0x16>
    2030:	f3ef 8405 	mrs	r4, IPSR
    2034:	b91c      	cbnz	r4, 203e <osMutexRelease+0x16>
    2036:	f8df c00c 	ldr.w	r12, [pc, #12]	; 2044 <osMutexRelease+0x1c>
    203a:	df00      	svc	0
    203c:	bd10      	pop	{r4, pc}
    203e:	2082      	movs	r0, #130	; 0x82
    2040:	bd10      	pop	{r4, pc}
    2042:	0000      	.short	0x0000
    2044:	00001f7b 	.word	0x00001f7b

00002048 <osThreadContextCreate>:
    2048:	e92d 41f0 	stmdb	sp!, {r4, r5, r6, r7, r8, lr}
    204c:	4680      	mov	r8, r0
    204e:	460f      	mov	r7, r1
    2050:	4616      	mov	r6, r2
    2052:	f3ef 8410 	mrs	r4, PRIMASK
    2056:	bb04      	cbnz	r4, 209a <osThreadContextCreate+0x52>
    2058:	f3ef 8305 	mrs	r3, IPSR
    205c:	b9d3      	cbnz	r3, 2094 <osThreadContextCreate+0x4c>
    205e:	f3ef 8314 	mrs	r3, CONTROL
    2062:	07db      	lsls	r3, r3, #31
    2064:	d406      	bmi.n	2074 <osThreadContextCreate+0x2c>
    2066:	4b0e      	ldr	r3, [pc, #56]	; (20a0 <osThreadContextCreate+0x58>)
    2068:	781b      	ldrb	r3, [r3, #0]
    206a:	b91b      	cbnz	r3, 2074 <osThreadContextCreate+0x2c>
    206c:	e8bd 41f0 	ldmia.w	sp!, {r4, r5, r6, r7, r8, lr}
    2070:	f7ff becc 	b.w	1e0c <svcThreadCreate>
    2074:	4d0b      	ldr	r5, [pc, #44]	; (20a4 <osThreadContextCreate+0x5c>)
    2076:	f04f 31ff 	mov.w	r1, #4294967295	; 0xffffffff
    207a:	6828      	ldr	r0, [r5, #0]
    207c:	f7ff ffac 	bl	1fd8 <osMutexWait>
    2080:	4640      	mov	r0, r8
    2082:	4639      	mov	r1, r7
    2084:	4632      	mov	r2, r6
    2086:	f8df c020 	ldr.w	r12, [pc, #32]	; 20a8 <osThreadContextCreate+0x60>
    208a:	df00      	svc	0
    208c:	4604      	mov	r4, r0
    208e:	6828      	ldr	r0, [r5, #0]
    2090:	f7ff ffca 	bl	2028 <osMutexRelease>
    2094:	4620      	mov	r0, r4
    2096:	e8bd 81f0 	ldmia.w	sp!, {r4, r5, r6, r7, r8, pc}
    209a:	2400      	movs	r4, #0
    209c:	e7fa      	b.n	2094 <osThreadContextCreate+0x4c>
    209e:	bf00      	nop
    20a0:	1000240d 	.word	0x1000240d
    20a4:	10002408 	.word	0x10002408
    20a8:	00001e0d 	.word	0x00001e0d

000020ac <osThreadCreate>:
    20ac:	2200      	movs	r2, #0
    20ae:	f7ff bfcb 	b.w	2048 <osThreadContextCreate>

000020b2 <svcMessageCreate>:
    20b2:	b510      	push	{r4, lr}
    20b4:	4604      	mov	r4, r0
    20b6:	b160      	cbz	r0, 20d2 <svcMessageCreate+0x20>
    20b8:	6801      	ldr	r1, [r0, #0]
    20ba:	b151      	cbz	r1, 20d2 <svcMessageCreate+0x20>
    20bc:	6840      	ldr	r0, [r0, #4]
    20be:	b148      	cbz	r0, 20d4 <svcMessageCreate+0x22>
    20c0:	7803      	ldrb	r3, [r0, #0]
    20c2:	b933      	cbnz	r3, 20d2 <svcMessageCreate+0x20>
    20c4:	3104      	adds	r1, #4
    20c6:	0089      	lsls	r1, r1, #2
    20c8:	b289      	uxth	r1, r1
    20ca:	f7ff fc72 	bl	19b2 <rt_mbx_init>
    20ce:	6860      	ldr	r0, [r4, #4]
    20d0:	bd10      	pop	{r4, pc}
    20d2:	2000      	movs	r0, #0
    20d4:	bd10      	pop	{r4, pc}
	...

000020d8 <svcKernelInitialize>:
    20d8:	b538      	push	{r3, r4, r5, lr}
    20da:	4c11      	ldr	r4, [pc, #68]	; (2120 <svcKernelInitialize+0x48>)
    20dc:	7823      	ldrb	r3, [r4, #0]
    20de:	b90b      	cbnz	r3, 20e4 <svcKernelInitialize+0xc>
    20e0:	f000 faa6 	bl	2630 <rt_sys_init>
    20e4:	22ff      	movs	r2, #255	; 0xff
    20e6:	4b0f      	ldr	r3, [pc, #60]	; (2124 <svcKernelInitialize+0x4c>)
    20e8:	7825      	ldrb	r5, [r4, #0]
    20ea:	681b      	ldr	r3, [r3, #0]
    20ec:	709a      	strb	r2, [r3, #2]
    20ee:	b98d      	cbnz	r5, 2114 <svcKernelInitialize+0x3c>
    20f0:	4629      	mov	r1, r5
    20f2:	480d      	ldr	r0, [pc, #52]	; (2128 <svcKernelInitialize+0x50>)
    20f4:	f7ff ffdd 	bl	20b2 <svcMessageCreate>
    20f8:	4b0c      	ldr	r3, [pc, #48]	; (212c <svcKernelInitialize+0x54>)
    20fa:	462a      	mov	r2, r5
    20fc:	6018      	str	r0, [r3, #0]
    20fe:	4629      	mov	r1, r5
    2100:	480b      	ldr	r0, [pc, #44]	; (2130 <svcKernelInitialize+0x58>)
    2102:	f7ff fe83 	bl	1e0c <svcThreadCreate>
    2106:	4b0b      	ldr	r3, [pc, #44]	; (2134 <svcKernelInitialize+0x5c>)
    2108:	6018      	str	r0, [r3, #0]
    210a:	480b      	ldr	r0, [pc, #44]	; (2138 <svcKernelInitialize+0x60>)
    210c:	f7ff ff46 	bl	1f9c <osMutexCreate>
    2110:	4b0a      	ldr	r3, [pc, #40]	; (213c <svcKernelInitialize+0x64>)
    2112:	6018      	str	r0, [r3, #0]
    2114:	2301      	movs	r3, #1
    2116:	2000      	movs	r0, #0
    2118:	7023      	strb	r3, [r4, #0]
    211a:	4b09      	ldr	r3, [pc, #36]	; (2140 <svcKernelInitialize+0x68>)
    211c:	7018      	strb	r0, [r3, #0]
    211e:	bd38      	pop	{r3, r4, r5, pc}
    2120:	1000240c 	.word	0x1000240c
    2124:	10002414 	.word	0x10002414
    2128:	000058fc 	.word	0x000058fc
    212c:	10001cd0 	.word	0x10001cd0
    2130:	00005918 	.word	0x00005918
    2134:	100023c4 	.word	0x100023c4
    2138:	00005930 	.word	0x00005930
    213c:	10002408 	.word	0x10002408
    2140:	1000240d 	.word	0x1000240d

00002144 <osKernelInitialize>:
    2144:	b510      	push	{r4, lr}
    2146:	f3ef 8410 	mrs	r4, PRIMASK
    214a:	b974      	cbnz	r4, 216a <osKernelInitialize+0x26>
    214c:	f3ef 8405 	mrs	r4, IPSR
    2150:	b95c      	cbnz	r4, 216a <osKernelInitialize+0x26>
    2152:	f3ef 8414 	mrs	r4, CONTROL
    2156:	07e4      	lsls	r4, r4, #31
    2158:	d403      	bmi.n	2162 <osKernelInitialize+0x1e>
    215a:	e8bd 4010 	ldmia.w	sp!, {r4, lr}
    215e:	f7ff bfbb 	b.w	20d8 <svcKernelInitialize>
    2162:	f8df c00c 	ldr.w	r12, [pc, #12]	; 2170 <osKernelInitialize+0x2c>
    2166:	df00      	svc	0
    2168:	bd10      	pop	{r4, pc}
    216a:	2082      	movs	r0, #130	; 0x82
    216c:	bd10      	pop	{r4, pc}
    216e:	0000      	.short	0x0000
    2170:	000020d9 	.word	0x000020d9

00002174 <svcMessageGet>:
    2174:	e92d 41ff 	stmdb	sp!, {r0, r1, r2, r3, r4, r5, r6, r7, r8, lr}
    2178:	460c      	mov	r4, r1
    217a:	4680      	mov	r8, r0
    217c:	b318      	cbz	r0, 21c6 <svcMessageGet+0x52>
    217e:	7803      	ldrb	r3, [r0, #0]
    2180:	2b01      	cmp	r3, #1
    2182:	d125      	bne.n	21d0 <svcMessageGet+0x5c>
    2184:	4608      	mov	r0, r1
    2186:	f7ff fd91 	bl	1cac <rt_ms2tick>
    218a:	a902      	add	r1, sp, #8
    218c:	4602      	mov	r2, r0
    218e:	4640      	mov	r0, r8
    2190:	f7ff fc1c 	bl	19cc <rt_mbx_wait>
    2194:	2801      	cmp	r0, #1
    2196:	d111      	bne.n	21bc <svcMessageGet+0x48>
    2198:	2000      	movs	r0, #0
    219a:	2c00      	cmp	r4, #0
    219c:	4602      	mov	r2, r0
    219e:	4603      	mov	r3, r0
    21a0:	bf18      	it	ne
    21a2:	2040      	movne	r0, #64	; 0x40
    21a4:	9902      	ldr	r1, [sp, #8]
    21a6:	4604      	mov	r4, r0
    21a8:	460d      	mov	r5, r1
    21aa:	4616      	mov	r6, r2
    21ac:	461f      	mov	r7, r3
    21ae:	4620      	mov	r0, r4
    21b0:	4629      	mov	r1, r5
    21b2:	4632      	mov	r2, r6
    21b4:	463b      	mov	r3, r7
    21b6:	b004      	add	sp, #16
    21b8:	e8bd 81f0 	ldmia.w	sp!, {r4, r5, r6, r7, r8, pc}
    21bc:	2000      	movs	r0, #0
    21be:	4602      	mov	r2, r0
    21c0:	4603      	mov	r3, r0
    21c2:	2010      	movs	r0, #16
    21c4:	e7ee      	b.n	21a4 <svcMessageGet+0x30>
    21c6:	2480      	movs	r4, #128	; 0x80
    21c8:	4605      	mov	r5, r0
    21ca:	4606      	mov	r6, r0
    21cc:	4607      	mov	r7, r0
    21ce:	e7ee      	b.n	21ae <svcMessageGet+0x3a>
    21d0:	2500      	movs	r5, #0
    21d2:	2480      	movs	r4, #128	; 0x80
    21d4:	462e      	mov	r6, r5
    21d6:	462f      	mov	r7, r5
    21d8:	e7e9      	b.n	21ae <svcMessageGet+0x3a>

000021da <isrMessagePut>:
    21da:	b570      	push	{r4, r5, r6, lr}
    21dc:	460e      	mov	r6, r1
    21de:	4614      	mov	r4, r2
    21e0:	4605      	mov	r5, r0
    21e2:	b160      	cbz	r0, 21fe <isrMessagePut+0x24>
    21e4:	b95a      	cbnz	r2, 21fe <isrMessagePut+0x24>
    21e6:	7803      	ldrb	r3, [r0, #0]
    21e8:	2b01      	cmp	r3, #1
    21ea:	d108      	bne.n	21fe <isrMessagePut+0x24>
    21ec:	f7ff fc44 	bl	1a78 <rt_mbx_check>
    21f0:	b138      	cbz	r0, 2202 <isrMessagePut+0x28>
    21f2:	4628      	mov	r0, r5
    21f4:	4631      	mov	r1, r6
    21f6:	f7ff fc43 	bl	1a80 <isr_mbx_send>
    21fa:	4620      	mov	r0, r4
    21fc:	bd70      	pop	{r4, r5, r6, pc}
    21fe:	2080      	movs	r0, #128	; 0x80
    2200:	bd70      	pop	{r4, r5, r6, pc}
    2202:	2081      	movs	r0, #129	; 0x81
    2204:	bd70      	pop	{r4, r5, r6, pc}
	...

00002208 <sysTimerTick>:
    2208:	b5f8      	push	{r3, r4, r5, r6, r7, lr}
    220a:	4e11      	ldr	r6, [pc, #68]	; (2250 <sysTimerTick+0x48>)
    220c:	6834      	ldr	r4, [r6, #0]
    220e:	b12c      	cbz	r4, 221c <sysTimerTick+0x14>
    2210:	68a3      	ldr	r3, [r4, #8]
    2212:	4f10      	ldr	r7, [pc, #64]	; (2254 <sysTimerTick+0x4c>)
    2214:	3b01      	subs	r3, #1
    2216:	60a3      	str	r3, [r4, #8]
    2218:	68a2      	ldr	r2, [r4, #8]
    221a:	b102      	cbz	r2, 221e <sysTimerTick+0x16>
    221c:	bdf8      	pop	{r3, r4, r5, r6, r7, pc}
    221e:	6825      	ldr	r5, [r4, #0]
    2220:	4621      	mov	r1, r4
    2222:	6838      	ldr	r0, [r7, #0]
    2224:	6035      	str	r5, [r6, #0]
    2226:	f7ff ffd8 	bl	21da <isrMessagePut>
    222a:	b110      	cbz	r0, 2232 <sysTimerTick+0x2a>
    222c:	2004      	movs	r0, #4
    222e:	f7ff f94b 	bl	14c8 <os_error>
    2232:	7963      	ldrb	r3, [r4, #5]
    2234:	2b01      	cmp	r3, #1
    2236:	d107      	bne.n	2248 <sysTimerTick+0x40>
    2238:	68e1      	ldr	r1, [r4, #12]
    223a:	4620      	mov	r0, r4
    223c:	f7ff fd1c 	bl	1c78 <rt_timer_insert>
    2240:	2d00      	cmp	r5, #0
    2242:	d0eb      	beq.n	221c <sysTimerTick+0x14>
    2244:	462c      	mov	r4, r5
    2246:	e7e7      	b.n	2218 <sysTimerTick+0x10>
    2248:	2301      	movs	r3, #1
    224a:	7123      	strb	r3, [r4, #4]
    224c:	e7f8      	b.n	2240 <sysTimerTick+0x38>
    224e:	bf00      	nop
    2250:	10002410 	.word	0x10002410
    2254:	10001cd0 	.word	0x10001cd0

00002258 <isrMessageGet>:
    2258:	b57f      	push	{r0, r1, r2, r3, r4, r5, r6, lr}
    225a:	4604      	mov	r4, r0
    225c:	4616      	mov	r6, r2
    225e:	4608      	mov	r0, r1
    2260:	b101      	cbz	r1, 2264 <isrMessageGet+0xc>
    2262:	b122      	cbz	r2, 226e <isrMessageGet+0x16>
    2264:	2380      	movs	r3, #128	; 0x80
    2266:	6023      	str	r3, [r4, #0]
    2268:	4620      	mov	r0, r4
    226a:	b004      	add	sp, #16
    226c:	bd70      	pop	{r4, r5, r6, pc}
    226e:	780b      	ldrb	r3, [r1, #0]
    2270:	2b01      	cmp	r3, #1
    2272:	d1f7      	bne.n	2264 <isrMessageGet+0xc>
    2274:	a902      	add	r1, sp, #8
    2276:	f7ff fc0a 	bl	1a8e <isr_mbx_receive>
    227a:	2804      	cmp	r0, #4
    227c:	bf08      	it	eq
    227e:	2310      	moveq	r3, #16
    2280:	ad01      	add	r5, sp, #4
    2282:	bf14      	ite	ne
    2284:	9601      	strne	r6, [sp, #4]
    2286:	9301      	streq	r3, [sp, #4]
    2288:	e895 0007 	ldmia.w	r5, {r0, r1, r2}
    228c:	e884 0007 	stmia.w	r4, {r0, r1, r2}
    2290:	e7ea      	b.n	2268 <isrMessageGet+0x10>
	...

00002294 <osMessageGet>:
    2294:	b538      	push	{r3, r4, r5, lr}
    2296:	4604      	mov	r4, r0
    2298:	4615      	mov	r5, r2
    229a:	f3ef 8010 	mrs	r0, PRIMASK
    229e:	b910      	cbnz	r0, 22a6 <osMessageGet+0x12>
    22a0:	f3ef 8005 	mrs	r0, IPSR
    22a4:	b128      	cbz	r0, 22b2 <osMessageGet+0x1e>
    22a6:	462a      	mov	r2, r5
    22a8:	4620      	mov	r0, r4
    22aa:	f7ff ffd5 	bl	2258 <isrMessageGet>
    22ae:	4620      	mov	r0, r4
    22b0:	bd38      	pop	{r3, r4, r5, pc}
    22b2:	4608      	mov	r0, r1
    22b4:	4611      	mov	r1, r2
    22b6:	f8df c00c 	ldr.w	r12, [pc, #12]	; 22c4 <osMessageGet+0x30>
    22ba:	df00      	svc	0
    22bc:	e884 0007 	stmia.w	r4, {r0, r1, r2}
    22c0:	e7f5      	b.n	22ae <osMessageGet+0x1a>
    22c2:	0000      	.short	0x0000
    22c4:	00002175 	.word	0x00002175

000022c8 <osTimerThread>:
    22c8:	b57f      	push	{r0, r1, r2, r3, r4, r5, r6, lr}
    22ca:	4c0a      	ldr	r4, [pc, #40]	; (22f4 <osTimerThread+0x2c>)
    22cc:	f04f 32ff 	mov.w	r2, #4294967295	; 0xffffffff
    22d0:	6821      	ldr	r1, [r4, #0]
    22d2:	a803      	add	r0, sp, #12
    22d4:	f7ff ffde 	bl	2294 <osMessageGet>
    22d8:	9b03      	ldr	r3, [sp, #12]
    22da:	2b10      	cmp	r3, #16
    22dc:	d1f6      	bne.n	22cc <osTimerThread+0x4>
    22de:	9904      	ldr	r1, [sp, #16]
    22e0:	a801      	add	r0, sp, #4
    22e2:	f7ff fe15 	bl	1f10 <osTimerCall>
    22e6:	9b01      	ldr	r3, [sp, #4]
    22e8:	2b00      	cmp	r3, #0
    22ea:	d0ef      	beq.n	22cc <osTimerThread+0x4>
    22ec:	9802      	ldr	r0, [sp, #8]
    22ee:	4798      	blx	r3
    22f0:	e7ec      	b.n	22cc <osTimerThread+0x4>
    22f2:	bf00      	nop
    22f4:	10001cd0 	.word	0x10001cd0

000022f8 <rt_switch_req>:
    22f8:	4b05      	ldr	r3, [pc, #20]	; (2310 <rt_switch_req+0x18>)
    22fa:	6058      	str	r0, [r3, #4]
    22fc:	2302      	movs	r3, #2
    22fe:	7043      	strb	r3, [r0, #1]
    2300:	4b04      	ldr	r3, [pc, #16]	; (2314 <rt_switch_req+0x1c>)
    2302:	681b      	ldr	r3, [r3, #0]
    2304:	b11b      	cbz	r3, 230e <rt_switch_req+0x16>
    2306:	691b      	ldr	r3, [r3, #16]
    2308:	b10b      	cbz	r3, 230e <rt_switch_req+0x16>
    230a:	6bc0      	ldr	r0, [r0, #60]	; 0x3c
    230c:	4718      	bx	r3
    230e:	4770      	bx	lr
    2310:	10002414 	.word	0x10002414
    2314:	100023fc 	.word	0x100023fc

00002318 <rt_dispatch.part.0>:
    2318:	b508      	push	{r3, lr}
    231a:	4803      	ldr	r0, [pc, #12]	; (2328 <rt_dispatch.part.0+0x10>)
    231c:	f7ff f93a 	bl	1594 <rt_get_first>
    2320:	e8bd 4008 	ldmia.w	sp!, {r3, lr}
    2324:	f7ff bfe8 	b.w	22f8 <rt_switch_req>
    2328:	100023c8 	.word	0x100023c8

0000232c <rt_dispatch>:
    232c:	b570      	push	{r4, r5, r6, lr}
    232e:	4604      	mov	r4, r0
    2330:	b918      	cbnz	r0, 233a <rt_dispatch+0xe>
    2332:	e8bd 4070 	ldmia.w	sp!, {r4, r5, r6, lr}
    2336:	f7ff bfef 	b.w	2318 <rt_dispatch.part.0>
    233a:	4e0b      	ldr	r6, [pc, #44]	; (2368 <rt_dispatch+0x3c>)
    233c:	78a2      	ldrb	r2, [r4, #2]
    233e:	6830      	ldr	r0, [r6, #0]
    2340:	2501      	movs	r5, #1
    2342:	7883      	ldrb	r3, [r0, #2]
    2344:	429a      	cmp	r2, r3
    2346:	d908      	bls.n	235a <rt_dispatch+0x2e>
    2348:	f7ff f936 	bl	15b8 <rt_put_rdy_first>
    234c:	6833      	ldr	r3, [r6, #0]
    234e:	4620      	mov	r0, r4
    2350:	705d      	strb	r5, [r3, #1]
    2352:	e8bd 4070 	ldmia.w	sp!, {r4, r5, r6, lr}
    2356:	f7ff bfcf 	b.w	22f8 <rt_switch_req>
    235a:	7065      	strb	r5, [r4, #1]
    235c:	4621      	mov	r1, r4
    235e:	e8bd 4070 	ldmia.w	sp!, {r4, r5, r6, lr}
    2362:	4802      	ldr	r0, [pc, #8]	; (236c <rt_dispatch+0x40>)
    2364:	f7ff b8fe 	b.w	1564 <rt_put_prio>
    2368:	10002414 	.word	0x10002414
    236c:	100023c8 	.word	0x100023c8

00002370 <rt_block>:
    2370:	b538      	push	{r3, r4, r5, lr}
    2372:	460d      	mov	r5, r1
    2374:	4601      	mov	r1, r0
    2376:	b180      	cbz	r0, 239a <rt_block+0x2a>
    2378:	f64f 73ff 	movw	r3, #65535	; 0xffff
    237c:	4298      	cmp	r0, r3
    237e:	4c07      	ldr	r4, [pc, #28]	; (239c <rt_block+0x2c>)
    2380:	d002      	beq.n	2388 <rt_block+0x18>
    2382:	6820      	ldr	r0, [r4, #0]
    2384:	f7ff f922 	bl	15cc <rt_put_dly>
    2388:	6823      	ldr	r3, [r4, #0]
    238a:	4805      	ldr	r0, [pc, #20]	; (23a0 <rt_block+0x30>)
    238c:	705d      	strb	r5, [r3, #1]
    238e:	f7ff f901 	bl	1594 <rt_get_first>
    2392:	e8bd 4038 	ldmia.w	sp!, {r3, r4, r5, lr}
    2396:	f7ff bfaf 	b.w	22f8 <rt_switch_req>
    239a:	bd38      	pop	{r3, r4, r5, pc}
    239c:	10002414 	.word	0x10002414
    23a0:	100023c8 	.word	0x100023c8

000023a4 <rt_tsk_self>:
    23a4:	4b02      	ldr	r3, [pc, #8]	; (23b0 <rt_tsk_self+0xc>)
    23a6:	6818      	ldr	r0, [r3, #0]
    23a8:	b100      	cbz	r0, 23ac <rt_tsk_self+0x8>
    23aa:	78c0      	ldrb	r0, [r0, #3]
    23ac:	4770      	bx	lr
    23ae:	bf00      	nop
    23b0:	10002414 	.word	0x10002414

000023b4 <rt_tsk_prio>:
    23b4:	b510      	push	{r4, lr}
    23b6:	b9a8      	cbnz	r0, 23e4 <rt_tsk_prio+0x30>
    23b8:	4b19      	ldr	r3, [pc, #100]	; (2420 <rt_tsk_prio+0x6c>)
    23ba:	681b      	ldr	r3, [r3, #0]
    23bc:	7099      	strb	r1, [r3, #2]
    23be:	f883 1024 	strb.w	r1, [r3, #36]	; 0x24
    23c2:	4818      	ldr	r0, [pc, #96]	; (2424 <rt_tsk_prio+0x70>)
    23c4:	6843      	ldr	r3, [r0, #4]
    23c6:	789b      	ldrb	r3, [r3, #2]
    23c8:	428b      	cmp	r3, r1
    23ca:	d801      	bhi.n	23d0 <rt_tsk_prio+0x1c>
    23cc:	2000      	movs	r0, #0
    23ce:	bd10      	pop	{r4, pc}
    23d0:	4c13      	ldr	r4, [pc, #76]	; (2420 <rt_tsk_prio+0x6c>)
    23d2:	6821      	ldr	r1, [r4, #0]
    23d4:	f7ff f8c6 	bl	1564 <rt_put_prio>
    23d8:	2201      	movs	r2, #1
    23da:	6823      	ldr	r3, [r4, #0]
    23dc:	705a      	strb	r2, [r3, #1]
    23de:	f7ff ff9b 	bl	2318 <rt_dispatch.part.0>
    23e2:	e7f3      	b.n	23cc <rt_tsk_prio+0x18>
    23e4:	4b10      	ldr	r3, [pc, #64]	; (2428 <rt_tsk_prio+0x74>)
    23e6:	881b      	ldrh	r3, [r3, #0]
    23e8:	4298      	cmp	r0, r3
    23ea:	d817      	bhi.n	241c <rt_tsk_prio+0x68>
    23ec:	4b0f      	ldr	r3, [pc, #60]	; (242c <rt_tsk_prio+0x78>)
    23ee:	3801      	subs	r0, #1
    23f0:	f853 4020 	ldr.w	r4, [r3, r0, lsl #2]
    23f4:	b194      	cbz	r4, 241c <rt_tsk_prio+0x68>
    23f6:	4b0a      	ldr	r3, [pc, #40]	; (2420 <rt_tsk_prio+0x6c>)
    23f8:	70a1      	strb	r1, [r4, #2]
    23fa:	681b      	ldr	r3, [r3, #0]
    23fc:	f884 1024 	strb.w	r1, [r4, #36]	; 0x24
    2400:	429c      	cmp	r4, r3
    2402:	d0de      	beq.n	23c2 <rt_tsk_prio+0xe>
    2404:	4620      	mov	r0, r4
    2406:	f7ff f953 	bl	16b0 <rt_resort_prio>
    240a:	7863      	ldrb	r3, [r4, #1]
    240c:	2b01      	cmp	r3, #1
    240e:	d1dd      	bne.n	23cc <rt_tsk_prio+0x18>
    2410:	4804      	ldr	r0, [pc, #16]	; (2424 <rt_tsk_prio+0x70>)
    2412:	f7ff f8bf 	bl	1594 <rt_get_first>
    2416:	f7ff ff89 	bl	232c <rt_dispatch>
    241a:	e7d7      	b.n	23cc <rt_tsk_prio+0x18>
    241c:	20ff      	movs	r0, #255	; 0xff
    241e:	bd10      	pop	{r4, pc}
    2420:	10002414 	.word	0x10002414
    2424:	100023c8 	.word	0x100023c8
    2428:	000058f8 	.word	0x000058f8
    242c:	10001c10 	.word	0x10001c10

00002430 <rt_tsk_create>:
    2430:	e92d 47f0 	stmdb	sp!, {r4, r5, r6, r7, r8, r9, r10, lr}
    2434:	460d      	mov	r5, r1
    2436:	f011 0fff 	tst.w	r1, #255	; 0xff
    243a:	4680      	mov	r8, r0
    243c:	4823      	ldr	r0, [pc, #140]	; (24cc <rt_tsk_create+0x9c>)
    243e:	4616      	mov	r6, r2
    2440:	469a      	mov	r10, r3
    2442:	bf08      	it	eq
    2444:	3501      	addeq	r5, #1
    2446:	f7ff fa93 	bl	1970 <rt_alloc_box>
    244a:	4604      	mov	r4, r0
    244c:	b920      	cbnz	r0, 2458 <rt_tsk_create+0x28>
    244e:	f04f 0900 	mov.w	r9, #0
    2452:	4648      	mov	r0, r9
    2454:	e8bd 87f0 	ldmia.w	sp!, {r4, r5, r6, r7, r8, r9, r10, pc}
    2458:	2100      	movs	r1, #0
    245a:	4b1d      	ldr	r3, [pc, #116]	; (24d0 <rt_tsk_create+0xa0>)
    245c:	6306      	str	r6, [r0, #48]	; 0x30
    245e:	881b      	ldrh	r3, [r3, #0]
    2460:	0a28      	lsrs	r0, r5, #8
    2462:	4e1c      	ldr	r6, [pc, #112]	; (24d4 <rt_tsk_create+0xa4>)
    2464:	62a0      	str	r0, [r4, #40]	; 0x28
    2466:	428b      	cmp	r3, r1
    2468:	f101 0901 	add.w	r9, r1, #1
    246c:	d0ef      	beq.n	244e <rt_tsk_create+0x1e>
    246e:	eb06 0289 	add.w	r2, r6, r9, lsl #2
    2472:	f852 2c04 	ldr.w	r2, [r2, #-4]
    2476:	460f      	mov	r7, r1
    2478:	4649      	mov	r1, r9
    247a:	2a00      	cmp	r2, #0
    247c:	d1f3      	bne.n	2466 <rt_tsk_create+0x36>
    247e:	2301      	movs	r3, #1
    2480:	b2ed      	uxtb	r5, r5
    2482:	f884 9003 	strb.w	r9, [r4, #3]
    2486:	f8c4 a01c 	str.w	r10, [r4, #28]
    248a:	f8c4 a038 	str.w	r10, [r4, #56]	; 0x38
    248e:	7022      	strb	r2, [r4, #0]
    2490:	7063      	strb	r3, [r4, #1]
    2492:	70a5      	strb	r5, [r4, #2]
    2494:	f884 5024 	strb.w	r5, [r4, #36]	; 0x24
    2498:	6062      	str	r2, [r4, #4]
    249a:	60a2      	str	r2, [r4, #8]
    249c:	60e2      	str	r2, [r4, #12]
    249e:	6122      	str	r2, [r4, #16]
    24a0:	6222      	str	r2, [r4, #32]
    24a2:	82a2      	strh	r2, [r4, #20]
    24a4:	82e2      	strh	r2, [r4, #22]
    24a6:	8322      	strh	r2, [r4, #24]
    24a8:	8362      	strh	r2, [r4, #26]
    24aa:	f884 2025 	strb.w	r2, [r4, #37]	; 0x25
    24ae:	b918      	cbnz	r0, 24b8 <rt_tsk_create+0x88>
    24b0:	4809      	ldr	r0, [pc, #36]	; (24d8 <rt_tsk_create+0xa8>)
    24b2:	f7ff fa5d 	bl	1970 <rt_alloc_box>
    24b6:	6320      	str	r0, [r4, #48]	; 0x30
    24b8:	4620      	mov	r0, r4
    24ba:	4641      	mov	r1, r8
    24bc:	f7ff f9e2 	bl	1884 <rt_init_stack>
    24c0:	4620      	mov	r0, r4
    24c2:	f846 4027 	str.w	r4, [r6, r7, lsl #2]
    24c6:	f7ff ff31 	bl	232c <rt_dispatch>
    24ca:	e7c2      	b.n	2452 <rt_tsk_create+0x22>
    24cc:	10001ff8 	.word	0x10001ff8
    24d0:	000058f8 	.word	0x000058f8
    24d4:	10001c10 	.word	0x10001c10
    24d8:	10001a00 	.word	0x10001a00

000024dc <rt_tsk_delete>:
    24dc:	e92d 4ff8 	stmdb	sp!, {r3, r4, r5, r6, r7, r8, r9, r10, r11, lr}
    24e0:	4d4d      	ldr	r5, [pc, #308]	; (2618 <rt_tsk_delete+0x13c>)
    24e2:	b118      	cbz	r0, 24ec <rt_tsk_delete+0x10>
    24e4:	682b      	ldr	r3, [r5, #0]
    24e6:	78db      	ldrb	r3, [r3, #3]
    24e8:	4298      	cmp	r0, r3
    24ea:	d141      	bne.n	2570 <rt_tsk_delete+0x94>
    24ec:	2300      	movs	r3, #0
    24ee:	682c      	ldr	r4, [r5, #0]
    24f0:	2701      	movs	r7, #1
    24f2:	7063      	strb	r3, [r4, #1]
    24f4:	f001 f9dd 	bl	38b2 <rt_get_PSP>
    24f8:	62e0      	str	r0, [r4, #44]	; 0x2c
    24fa:	f7ff f9b1 	bl	1860 <rt_stk_check>
    24fe:	682b      	ldr	r3, [r5, #0]
    2500:	f8df 8128 	ldr.w	r8, [pc, #296]	; 262c <rt_tsk_delete+0x150>
    2504:	6a1c      	ldr	r4, [r3, #32]
    2506:	b9a4      	cbnz	r4, 2532 <rt_tsk_delete+0x56>
    2508:	682a      	ldr	r2, [r5, #0]
    250a:	4944      	ldr	r1, [pc, #272]	; (261c <rt_tsk_delete+0x140>)
    250c:	78d3      	ldrb	r3, [r2, #3]
    250e:	4844      	ldr	r0, [pc, #272]	; (2620 <rt_tsk_delete+0x144>)
    2510:	3b01      	subs	r3, #1
    2512:	f841 4023 	str.w	r4, [r1, r3, lsl #2]
    2516:	6b11      	ldr	r1, [r2, #48]	; 0x30
    2518:	f7ff fa37 	bl	198a <rt_free_box>
    251c:	6829      	ldr	r1, [r5, #0]
    251e:	4841      	ldr	r0, [pc, #260]	; (2624 <rt_tsk_delete+0x148>)
    2520:	630c      	str	r4, [r1, #48]	; 0x30
    2522:	f7ff fa32 	bl	198a <rt_free_box>
    2526:	602c      	str	r4, [r5, #0]
    2528:	f7ff fef6 	bl	2318 <rt_dispatch.part.0>
    252c:	4620      	mov	r0, r4
    252e:	e8bd 8ff8 	ldmia.w	sp!, {r3, r4, r5, r6, r7, r8, r9, r10, r11, pc}
    2532:	6863      	ldr	r3, [r4, #4]
    2534:	b1b3      	cbz	r3, 2564 <rt_tsk_delete+0x88>
    2536:	4620      	mov	r0, r4
    2538:	f7ff f82c 	bl	1594 <rt_get_first>
    253c:	4606      	mov	r6, r0
    253e:	2100      	movs	r1, #0
    2540:	f7ff f9ea 	bl	1918 <rt_ret_val>
    2544:	4630      	mov	r0, r6
    2546:	f7ff f8cb 	bl	16e0 <rt_rmv_dly>
    254a:	7077      	strb	r7, [r6, #1]
    254c:	4631      	mov	r1, r6
    254e:	4640      	mov	r0, r8
    2550:	f7ff f808 	bl	1564 <rt_put_prio>
    2554:	68e3      	ldr	r3, [r4, #12]
    2556:	6a32      	ldr	r2, [r6, #32]
    2558:	8067      	strh	r7, [r4, #2]
    255a:	60a6      	str	r6, [r4, #8]
    255c:	60e2      	str	r2, [r4, #12]
    255e:	6234      	str	r4, [r6, #32]
    2560:	461c      	mov	r4, r3
    2562:	e7d0      	b.n	2506 <rt_tsk_delete+0x2a>
    2564:	68e2      	ldr	r2, [r4, #12]
    2566:	8063      	strh	r3, [r4, #2]
    2568:	60a3      	str	r3, [r4, #8]
    256a:	60e3      	str	r3, [r4, #12]
    256c:	4614      	mov	r4, r2
    256e:	e7ca      	b.n	2506 <rt_tsk_delete+0x2a>
    2570:	4b2d      	ldr	r3, [pc, #180]	; (2628 <rt_tsk_delete+0x14c>)
    2572:	881b      	ldrh	r3, [r3, #0]
    2574:	4298      	cmp	r0, r3
    2576:	d84d      	bhi.n	2614 <rt_tsk_delete+0x138>
    2578:	4b28      	ldr	r3, [pc, #160]	; (261c <rt_tsk_delete+0x140>)
    257a:	1e47      	subs	r7, r0, #1
    257c:	f853 6027 	ldr.w	r6, [r3, r7, lsl #2]
    2580:	4699      	mov	r9, r3
    2582:	2e00      	cmp	r6, #0
    2584:	d046      	beq.n	2614 <rt_tsk_delete+0x138>
    2586:	f04f 0a01 	mov.w	r10, #1
    258a:	4630      	mov	r0, r6
    258c:	f7ff f87a 	bl	1684 <rt_rmv_list>
    2590:	4630      	mov	r0, r6
    2592:	f7ff f8a5 	bl	16e0 <rt_rmv_dly>
    2596:	f8df b094 	ldr.w	r11, [pc, #148]	; 262c <rt_tsk_delete+0x150>
    259a:	6a34      	ldr	r4, [r6, #32]
    259c:	b9b4      	cbnz	r4, 25cc <rt_tsk_delete+0xf0>
    259e:	6b31      	ldr	r1, [r6, #48]	; 0x30
    25a0:	481f      	ldr	r0, [pc, #124]	; (2620 <rt_tsk_delete+0x144>)
    25a2:	f849 4027 	str.w	r4, [r9, r7, lsl #2]
    25a6:	f7ff f9f0 	bl	198a <rt_free_box>
    25aa:	4631      	mov	r1, r6
    25ac:	6334      	str	r4, [r6, #48]	; 0x30
    25ae:	481d      	ldr	r0, [pc, #116]	; (2624 <rt_tsk_delete+0x148>)
    25b0:	f7ff f9eb 	bl	198a <rt_free_box>
    25b4:	481d      	ldr	r0, [pc, #116]	; (262c <rt_tsk_delete+0x150>)
    25b6:	6829      	ldr	r1, [r5, #0]
    25b8:	6843      	ldr	r3, [r0, #4]
    25ba:	789a      	ldrb	r2, [r3, #2]
    25bc:	788b      	ldrb	r3, [r1, #2]
    25be:	429a      	cmp	r2, r3
    25c0:	d9b4      	bls.n	252c <rt_tsk_delete+0x50>
    25c2:	2301      	movs	r3, #1
    25c4:	704b      	strb	r3, [r1, #1]
    25c6:	f7fe ffcd 	bl	1564 <rt_put_prio>
    25ca:	e7ad      	b.n	2528 <rt_tsk_delete+0x4c>
    25cc:	6863      	ldr	r3, [r4, #4]
    25ce:	b1db      	cbz	r3, 2608 <rt_tsk_delete+0x12c>
    25d0:	4620      	mov	r0, r4
    25d2:	f7fe ffdf 	bl	1594 <rt_get_first>
    25d6:	4680      	mov	r8, r0
    25d8:	2100      	movs	r1, #0
    25da:	f7ff f99d 	bl	1918 <rt_ret_val>
    25de:	4640      	mov	r0, r8
    25e0:	f7ff f87e 	bl	16e0 <rt_rmv_dly>
    25e4:	f888 a001 	strb.w	r10, [r8, #1]
    25e8:	4641      	mov	r1, r8
    25ea:	4658      	mov	r0, r11
    25ec:	f7fe ffba 	bl	1564 <rt_put_prio>
    25f0:	68e3      	ldr	r3, [r4, #12]
    25f2:	f8d8 2020 	ldr.w	r2, [r8, #32]
    25f6:	f8a4 a002 	strh.w	r10, [r4, #2]
    25fa:	f8c4 8008 	str.w	r8, [r4, #8]
    25fe:	60e2      	str	r2, [r4, #12]
    2600:	f8c8 4020 	str.w	r4, [r8, #32]
    2604:	461c      	mov	r4, r3
    2606:	e7c9      	b.n	259c <rt_tsk_delete+0xc0>
    2608:	68e2      	ldr	r2, [r4, #12]
    260a:	8063      	strh	r3, [r4, #2]
    260c:	60a3      	str	r3, [r4, #8]
    260e:	60e3      	str	r3, [r4, #12]
    2610:	4614      	mov	r4, r2
    2612:	e7c3      	b.n	259c <rt_tsk_delete+0xc0>
    2614:	24ff      	movs	r4, #255	; 0xff
    2616:	e789      	b.n	252c <rt_tsk_delete+0x50>
    2618:	10002414 	.word	0x10002414
    261c:	10001c10 	.word	0x10001c10
    2620:	10001a00 	.word	0x10001a00
    2624:	10001ff8 	.word	0x10001ff8
    2628:	000058f8 	.word	0x000058f8
    262c:	100023c8 	.word	0x100023c8

00002630 <rt_sys_init>:
    2630:	b538      	push	{r3, r4, r5, lr}
    2632:	4b2c      	ldr	r3, [pc, #176]	; (26e4 <rt_sys_init+0xb4>)
    2634:	492c      	ldr	r1, [pc, #176]	; (26e8 <rt_sys_init+0xb8>)
    2636:	881a      	ldrh	r2, [r3, #0]
    2638:	2300      	movs	r3, #0
    263a:	4618      	mov	r0, r3
    263c:	4293      	cmp	r3, r2
    263e:	d34d      	bcc.n	26dc <rt_sys_init+0xac>
    2640:	4b2a      	ldr	r3, [pc, #168]	; (26ec <rt_sys_init+0xbc>)
    2642:	2240      	movs	r2, #64	; 0x40
    2644:	8819      	ldrh	r1, [r3, #0]
    2646:	482a      	ldr	r0, [pc, #168]	; (26f0 <rt_sys_init+0xc0>)
    2648:	f7ff f96d 	bl	1926 <_init_box>
    264c:	4b29      	ldr	r3, [pc, #164]	; (26f4 <rt_sys_init+0xc4>)
    264e:	482a      	ldr	r0, [pc, #168]	; (26f8 <rt_sys_init+0xc8>)
    2650:	881a      	ldrh	r2, [r3, #0]
    2652:	4b2a      	ldr	r3, [pc, #168]	; (26fc <rt_sys_init+0xcc>)
    2654:	f042 4200 	orr.w	r2, r2, #2147483648	; 0x80000000
    2658:	6819      	ldr	r1, [r3, #0]
    265a:	f7ff f964 	bl	1926 <_init_box>
    265e:	4b28      	ldr	r3, [pc, #160]	; (2700 <rt_sys_init+0xd0>)
    2660:	2208      	movs	r2, #8
    2662:	8819      	ldrh	r1, [r3, #0]
    2664:	4b27      	ldr	r3, [pc, #156]	; (2704 <rt_sys_init+0xd4>)
    2666:	4c28      	ldr	r4, [pc, #160]	; (2708 <rt_sys_init+0xd8>)
    2668:	6818      	ldr	r0, [r3, #0]
    266a:	f7ff f95c 	bl	1926 <_init_box>
    266e:	23ff      	movs	r3, #255	; 0xff
    2670:	2500      	movs	r5, #0
    2672:	70e3      	strb	r3, [r4, #3]
    2674:	2301      	movs	r3, #1
    2676:	4820      	ldr	r0, [pc, #128]	; (26f8 <rt_sys_init+0xc8>)
    2678:	7063      	strb	r3, [r4, #1]
    267a:	62a5      	str	r5, [r4, #40]	; 0x28
    267c:	7025      	strb	r5, [r4, #0]
    267e:	70a5      	strb	r5, [r4, #2]
    2680:	f884 5024 	strb.w	r5, [r4, #36]	; 0x24
    2684:	6065      	str	r5, [r4, #4]
    2686:	60a5      	str	r5, [r4, #8]
    2688:	60e5      	str	r5, [r4, #12]
    268a:	6125      	str	r5, [r4, #16]
    268c:	6225      	str	r5, [r4, #32]
    268e:	82a5      	strh	r5, [r4, #20]
    2690:	82e5      	strh	r5, [r4, #22]
    2692:	8325      	strh	r5, [r4, #24]
    2694:	8365      	strh	r5, [r4, #26]
    2696:	f884 5025 	strb.w	r5, [r4, #37]	; 0x25
    269a:	f7ff f969 	bl	1970 <rt_alloc_box>
    269e:	491b      	ldr	r1, [pc, #108]	; (270c <rt_sys_init+0xdc>)
    26a0:	6320      	str	r0, [r4, #48]	; 0x30
    26a2:	4620      	mov	r0, r4
    26a4:	f7ff f8ee 	bl	1884 <rt_init_stack>
    26a8:	2204      	movs	r2, #4
    26aa:	4b19      	ldr	r3, [pc, #100]	; (2710 <rt_sys_init+0xe0>)
    26ac:	4620      	mov	r0, r4
    26ae:	701a      	strb	r2, [r3, #0]
    26b0:	605d      	str	r5, [r3, #4]
    26b2:	4b18      	ldr	r3, [pc, #96]	; (2714 <rt_sys_init+0xe4>)
    26b4:	701a      	strb	r2, [r3, #0]
    26b6:	60dd      	str	r5, [r3, #12]
    26b8:	611d      	str	r5, [r3, #16]
    26ba:	829d      	strh	r5, [r3, #20]
    26bc:	4b16      	ldr	r3, [pc, #88]	; (2718 <rt_sys_init+0xe8>)
    26be:	601c      	str	r4, [r3, #0]
    26c0:	2302      	movs	r3, #2
    26c2:	7063      	strb	r3, [r4, #1]
    26c4:	f7ff fe18 	bl	22f8 <rt_switch_req>
    26c8:	4a14      	ldr	r2, [pc, #80]	; (271c <rt_sys_init+0xec>)
    26ca:	4b15      	ldr	r3, [pc, #84]	; (2720 <rt_sys_init+0xf0>)
    26cc:	7812      	ldrb	r2, [r2, #0]
    26ce:	701d      	strb	r5, [r3, #0]
    26d0:	705d      	strb	r5, [r3, #1]
    26d2:	70da      	strb	r2, [r3, #3]
    26d4:	e8bd 4038 	ldmia.w	sp!, {r3, r4, r5, lr}
    26d8:	f7ff ba9e 	b.w	1c18 <rt_init_robin>
    26dc:	f841 0023 	str.w	r0, [r1, r3, lsl #2]
    26e0:	3301      	adds	r3, #1
    26e2:	e7ab      	b.n	263c <rt_sys_init+0xc>
    26e4:	000058f8 	.word	0x000058f8
    26e8:	10001c10 	.word	0x10001c10
    26ec:	000058c4 	.word	0x000058c4
    26f0:	10001ff8 	.word	0x10001ff8
    26f4:	00005914 	.word	0x00005914
    26f8:	10001a00 	.word	0x10001a00
    26fc:	000058c0 	.word	0x000058c0
    2700:	000058c6 	.word	0x000058c6
    2704:	10000788 	.word	0x10000788
    2708:	1000241c 	.word	0x1000241c
    270c:	000014c5 	.word	0x000014c5
    2710:	100023c8 	.word	0x100023c8
    2714:	100023e0 	.word	0x100023e0
    2718:	10002414 	.word	0x10002414
    271c:	000058f5 	.word	0x000058f5
    2720:	10001c4c 	.word	0x10001c4c

00002724 <rt_sys_start>:
    2724:	b508      	push	{r3, lr}
    2726:	4b1e      	ldr	r3, [pc, #120]	; (27a0 <rt_sys_start+0x7c>)
    2728:	681a      	ldr	r2, [r3, #0]
    272a:	f442 027f 	orr.w	r2, r2, #16711680	; 0xff0000
    272e:	601a      	str	r2, [r3, #0]
    2730:	681b      	ldr	r3, [r3, #0]
    2732:	021b      	lsls	r3, r3, #8
    2734:	f003 437f 	and.w	r3, r3, #4278190080	; 0xff000000
    2738:	43db      	mvns	r3, r3
    273a:	fab3 f383 	clz	r3, r3
    273e:	4a19      	ldr	r2, [pc, #100]	; (27a4 <rt_sys_start+0x80>)
    2740:	b2db      	uxtb	r3, r3
    2742:	6812      	ldr	r2, [r2, #0]
    2744:	f1c3 0308 	rsb	r3, r3, #8
    2748:	f3c2 2202 	ubfx	r2, r2, #8, #3
    274c:	4293      	cmp	r3, r2
    274e:	bf98      	it	ls
    2750:	1c53      	addls	r3, r2, #1
    2752:	f06f 7280 	mvn.w	r2, #16777216	; 0x1000000
    2756:	4814      	ldr	r0, [pc, #80]	; (27a8 <rt_sys_start+0x84>)
    2758:	fa02 f303 	lsl.w	r3, r2, r3
    275c:	6801      	ldr	r1, [r0, #0]
    275e:	f003 437f 	and.w	r3, r3, #4278190080	; 0xff000000
    2762:	f021 427f 	bic.w	r2, r1, #4278190080	; 0xff000000
    2766:	4313      	orrs	r3, r2
    2768:	6003      	str	r3, [r0, #0]
    276a:	f7ff f841 	bl	17f0 <os_tick_init>
    276e:	4b0f      	ldr	r3, [pc, #60]	; (27ac <rt_sys_start+0x88>)
    2770:	2800      	cmp	r0, #0
    2772:	6018      	str	r0, [r3, #0]
    2774:	db12      	blt.n	279c <rt_sys_start+0x78>
    2776:	22ff      	movs	r2, #255	; 0xff
    2778:	2101      	movs	r1, #1
    277a:	f100 4060 	add.w	r0, r0, #3758096384	; 0xe0000000
    277e:	f500 4064 	add.w	r0, r0, #58368	; 0xe400
    2782:	7002      	strb	r2, [r0, #0]
    2784:	681a      	ldr	r2, [r3, #0]
    2786:	0953      	lsrs	r3, r2, #5
    2788:	009b      	lsls	r3, r3, #2
    278a:	f103 4360 	add.w	r3, r3, #3758096384	; 0xe0000000
    278e:	f002 021f 	and.w	r2, r2, #31
    2792:	f503 4361 	add.w	r3, r3, #57600	; 0xe100
    2796:	fa01 f202 	lsl.w	r2, r1, r2
    279a:	601a      	str	r2, [r3, #0]
    279c:	bd08      	pop	{r3, pc}
    279e:	bf00      	nop
    27a0:	e000ed20 	.word	0xe000ed20
    27a4:	e000ed0c 	.word	0xe000ed0c
    27a8:	e000ed1c 	.word	0xe000ed1c
    27ac:	100023f8 	.word	0x100023f8

000027b0 <rt_mut_init>:
    27b0:	2303      	movs	r3, #3
    27b2:	7003      	strb	r3, [r0, #0]
    27b4:	2300      	movs	r3, #0
    27b6:	8043      	strh	r3, [r0, #2]
    27b8:	6043      	str	r3, [r0, #4]
    27ba:	6083      	str	r3, [r0, #8]
    27bc:	60c3      	str	r3, [r0, #12]
    27be:	4770      	bx	lr

000027c0 <rt_mut_release>:
    27c0:	e92d 43f8 	stmdb	sp!, {r3, r4, r5, r6, r7, r8, r9, lr}
    27c4:	8843      	ldrh	r3, [r0, #2]
    27c6:	4605      	mov	r5, r0
    27c8:	2b00      	cmp	r3, #0
    27ca:	d063      	beq.n	2894 <rt_mut_release+0xd4>
    27cc:	4f32      	ldr	r7, [pc, #200]	; (2898 <rt_mut_release+0xd8>)
    27ce:	6881      	ldr	r1, [r0, #8]
    27d0:	683a      	ldr	r2, [r7, #0]
    27d2:	4291      	cmp	r1, r2
    27d4:	d15e      	bne.n	2894 <rt_mut_release+0xd4>
    27d6:	3b01      	subs	r3, #1
    27d8:	b29b      	uxth	r3, r3
    27da:	8043      	strh	r3, [r0, #2]
    27dc:	b11b      	cbz	r3, 27e6 <rt_mut_release+0x26>
    27de:	2400      	movs	r4, #0
    27e0:	4620      	mov	r0, r4
    27e2:	e8bd 83f8 	ldmia.w	sp!, {r3, r4, r5, r6, r7, r8, r9, pc}
    27e6:	6a0b      	ldr	r3, [r1, #32]
    27e8:	4298      	cmp	r0, r3
    27ea:	d129      	bne.n	2840 <rt_mut_release+0x80>
    27ec:	68c3      	ldr	r3, [r0, #12]
    27ee:	620b      	str	r3, [r1, #32]
    27f0:	f891 3024 	ldrb.w	r3, [r1, #36]	; 0x24
    27f4:	6a0c      	ldr	r4, [r1, #32]
    27f6:	bb5c      	cbnz	r4, 2850 <rt_mut_release+0x90>
    27f8:	708b      	strb	r3, [r1, #2]
    27fa:	686a      	ldr	r2, [r5, #4]
    27fc:	f8df 809c 	ldr.w	r8, [pc, #156]	; 289c <rt_mut_release+0xdc>
    2800:	2a00      	cmp	r2, #0
    2802:	d03b      	beq.n	287c <rt_mut_release+0xbc>
    2804:	4628      	mov	r0, r5
    2806:	f7fe fec5 	bl	1594 <rt_get_first>
    280a:	4606      	mov	r6, r0
    280c:	f04f 0901 	mov.w	r9, #1
    2810:	4621      	mov	r1, r4
    2812:	f7ff f881 	bl	1918 <rt_ret_val>
    2816:	4630      	mov	r0, r6
    2818:	f7fe ff62 	bl	16e0 <rt_rmv_dly>
    281c:	6a33      	ldr	r3, [r6, #32]
    281e:	6839      	ldr	r1, [r7, #0]
    2820:	60eb      	str	r3, [r5, #12]
    2822:	f8d8 3004 	ldr.w	r3, [r8, #4]
    2826:	f8a5 9002 	strh.w	r9, [r5, #2]
    282a:	60ae      	str	r6, [r5, #8]
    282c:	6235      	str	r5, [r6, #32]
    282e:	788a      	ldrb	r2, [r1, #2]
    2830:	789b      	ldrb	r3, [r3, #2]
    2832:	429a      	cmp	r2, r3
    2834:	d314      	bcc.n	2860 <rt_mut_release+0xa0>
    2836:	4630      	mov	r0, r6
    2838:	f7ff fd78 	bl	232c <rt_dispatch>
    283c:	e7d0      	b.n	27e0 <rt_mut_release+0x20>
    283e:	4613      	mov	r3, r2
    2840:	2b00      	cmp	r3, #0
    2842:	d0d5      	beq.n	27f0 <rt_mut_release+0x30>
    2844:	68da      	ldr	r2, [r3, #12]
    2846:	4295      	cmp	r5, r2
    2848:	d1f9      	bne.n	283e <rt_mut_release+0x7e>
    284a:	68ea      	ldr	r2, [r5, #12]
    284c:	60da      	str	r2, [r3, #12]
    284e:	e7cf      	b.n	27f0 <rt_mut_release+0x30>
    2850:	6862      	ldr	r2, [r4, #4]
    2852:	b11a      	cbz	r2, 285c <rt_mut_release+0x9c>
    2854:	7892      	ldrb	r2, [r2, #2]
    2856:	4293      	cmp	r3, r2
    2858:	bf38      	it	cc
    285a:	4613      	movcc	r3, r2
    285c:	68e4      	ldr	r4, [r4, #12]
    285e:	e7ca      	b.n	27f6 <rt_mut_release+0x36>
    2860:	4640      	mov	r0, r8
    2862:	f7fe fe7f 	bl	1564 <rt_put_prio>
    2866:	4631      	mov	r1, r6
    2868:	4640      	mov	r0, r8
    286a:	f7fe fe7b 	bl	1564 <rt_put_prio>
    286e:	683b      	ldr	r3, [r7, #0]
    2870:	f883 9001 	strb.w	r9, [r3, #1]
    2874:	f886 9001 	strb.w	r9, [r6, #1]
    2878:	4620      	mov	r0, r4
    287a:	e7dd      	b.n	2838 <rt_mut_release+0x78>
    287c:	f8d8 2004 	ldr.w	r2, [r8, #4]
    2880:	7892      	ldrb	r2, [r2, #2]
    2882:	429a      	cmp	r2, r3
    2884:	d9ab      	bls.n	27de <rt_mut_release+0x1e>
    2886:	4640      	mov	r0, r8
    2888:	f7fe fe6c 	bl	1564 <rt_put_prio>
    288c:	2201      	movs	r2, #1
    288e:	683b      	ldr	r3, [r7, #0]
    2890:	705a      	strb	r2, [r3, #1]
    2892:	e7f1      	b.n	2878 <rt_mut_release+0xb8>
    2894:	24ff      	movs	r4, #255	; 0xff
    2896:	e7a3      	b.n	27e0 <rt_mut_release+0x20>
    2898:	10002414 	.word	0x10002414
    289c:	100023c8 	.word	0x100023c8

000028a0 <rt_mut_wait>:
    28a0:	8843      	ldrh	r3, [r0, #2]
    28a2:	b570      	push	{r4, r5, r6, lr}
    28a4:	4604      	mov	r4, r0
    28a6:	460e      	mov	r6, r1
    28a8:	4d13      	ldr	r5, [pc, #76]	; (28f8 <rt_mut_wait+0x58>)
    28aa:	b943      	cbnz	r3, 28be <rt_mut_wait+0x1e>
    28ac:	682a      	ldr	r2, [r5, #0]
    28ae:	6a11      	ldr	r1, [r2, #32]
    28b0:	6082      	str	r2, [r0, #8]
    28b2:	60c1      	str	r1, [r0, #12]
    28b4:	6210      	str	r0, [r2, #32]
    28b6:	3301      	adds	r3, #1
    28b8:	8063      	strh	r3, [r4, #2]
    28ba:	2000      	movs	r0, #0
    28bc:	bd70      	pop	{r4, r5, r6, pc}
    28be:	6880      	ldr	r0, [r0, #8]
    28c0:	682a      	ldr	r2, [r5, #0]
    28c2:	4290      	cmp	r0, r2
    28c4:	d0f7      	beq.n	28b6 <rt_mut_wait+0x16>
    28c6:	b181      	cbz	r1, 28ea <rt_mut_wait+0x4a>
    28c8:	7893      	ldrb	r3, [r2, #2]
    28ca:	7882      	ldrb	r2, [r0, #2]
    28cc:	429a      	cmp	r2, r3
    28ce:	d202      	bcs.n	28d6 <rt_mut_wait+0x36>
    28d0:	7083      	strb	r3, [r0, #2]
    28d2:	f7fe feed 	bl	16b0 <rt_resort_prio>
    28d6:	6862      	ldr	r2, [r4, #4]
    28d8:	b14a      	cbz	r2, 28ee <rt_mut_wait+0x4e>
    28da:	6829      	ldr	r1, [r5, #0]
    28dc:	4620      	mov	r0, r4
    28de:	f7fe fe41 	bl	1564 <rt_put_prio>
    28e2:	2109      	movs	r1, #9
    28e4:	4630      	mov	r0, r6
    28e6:	f7ff fd43 	bl	2370 <rt_block>
    28ea:	2001      	movs	r0, #1
    28ec:	bd70      	pop	{r4, r5, r6, pc}
    28ee:	682b      	ldr	r3, [r5, #0]
    28f0:	6063      	str	r3, [r4, #4]
    28f2:	605a      	str	r2, [r3, #4]
    28f4:	609c      	str	r4, [r3, #8]
    28f6:	e7f4      	b.n	28e2 <rt_mut_wait+0x42>
    28f8:	10002414 	.word	0x10002414

000028fc <rt_dly_wait>:
    28fc:	2103      	movs	r1, #3
    28fe:	f7ff bd37 	b.w	2370 <rt_block>
	...

00002904 <rt_sem_psh>:
    2904:	6842      	ldr	r2, [r0, #4]
    2906:	b510      	push	{r4, lr}
    2908:	b17a      	cbz	r2, 292a <rt_sem_psh+0x26>
    290a:	f7fe fe43 	bl	1594 <rt_get_first>
    290e:	4604      	mov	r4, r0
    2910:	f7fe fee6 	bl	16e0 <rt_rmv_dly>
    2914:	2101      	movs	r1, #1
    2916:	4620      	mov	r0, r4
    2918:	7061      	strb	r1, [r4, #1]
    291a:	f7fe fffd 	bl	1918 <rt_ret_val>
    291e:	4621      	mov	r1, r4
    2920:	e8bd 4010 	ldmia.w	sp!, {r4, lr}
    2924:	4803      	ldr	r0, [pc, #12]	; (2934 <rt_sem_psh+0x30>)
    2926:	f7fe be1d 	b.w	1564 <rt_put_prio>
    292a:	8842      	ldrh	r2, [r0, #2]
    292c:	3201      	adds	r2, #1
    292e:	8042      	strh	r2, [r0, #2]
    2930:	bd10      	pop	{r4, pc}
    2932:	bf00      	nop
    2934:	100023c8 	.word	0x100023c8

00002938 <gpio_set>:
    2938:	b510      	push	{r4, lr}
    293a:	2100      	movs	r1, #0
    293c:	4604      	mov	r4, r0
    293e:	f000 f95b 	bl	2bf8 <pin_function>
    2942:	2001      	movs	r0, #1
    2944:	f004 041f 	and.w	r4, r4, #31
    2948:	40a0      	lsls	r0, r4
    294a:	bd10      	pop	{r4, pc}

0000294c <gpio_init>:
    294c:	b538      	push	{r3, r4, r5, lr}
    294e:	4605      	mov	r5, r0
    2950:	1c4b      	adds	r3, r1, #1
    2952:	460c      	mov	r4, r1
    2954:	6029      	str	r1, [r5, #0]
    2956:	d00f      	beq.n	2978 <gpio_init+0x2c>
    2958:	4608      	mov	r0, r1
    295a:	f7ff ffed 	bl	2938 <gpio_set>
    295e:	f024 041f 	bic.w	r4, r4, #31
    2962:	f104 0318 	add.w	r3, r4, #24
    2966:	60eb      	str	r3, [r5, #12]
    2968:	f104 031c 	add.w	r3, r4, #28
    296c:	612b      	str	r3, [r5, #16]
    296e:	f104 0314 	add.w	r3, r4, #20
    2972:	6068      	str	r0, [r5, #4]
    2974:	616b      	str	r3, [r5, #20]
    2976:	60ac      	str	r4, [r5, #8]
    2978:	bd38      	pop	{r3, r4, r5, pc}

0000297a <gpio_mode>:
    297a:	6800      	ldr	r0, [r0, #0]
    297c:	f000 b955 	b.w	2c2a <pin_mode>

00002980 <gpio_dir>:
    2980:	b111      	cbz	r1, 2988 <gpio_dir+0x8>
    2982:	2901      	cmp	r1, #1
    2984:	d007      	beq.n	2996 <gpio_dir+0x16>
    2986:	4770      	bx	lr
    2988:	6882      	ldr	r2, [r0, #8]
    298a:	6841      	ldr	r1, [r0, #4]
    298c:	6813      	ldr	r3, [r2, #0]
    298e:	ea23 0301 	bic.w	r3, r3, r1
    2992:	6013      	str	r3, [r2, #0]
    2994:	4770      	bx	lr
    2996:	6882      	ldr	r2, [r0, #8]
    2998:	6841      	ldr	r1, [r0, #4]
    299a:	6813      	ldr	r3, [r2, #0]
    299c:	430b      	orrs	r3, r1
    299e:	e7f8      	b.n	2992 <gpio_dir+0x12>

000029a0 <hal_sleep>:
    29a0:	b508      	push	{r3, lr}
    29a2:	f7fe fcc1 	bl	1328 <mbed_interface_disconnect>
    29a6:	2200      	movs	r2, #0
    29a8:	4b04      	ldr	r3, [pc, #16]	; (29bc <hal_sleep+0x1c>)
    29aa:	f8c3 20c0 	str.w	r2, [r3, #192]	; 0xc0
    29ae:	4a04      	ldr	r2, [pc, #16]	; (29c0 <hal_sleep+0x20>)
    29b0:	6913      	ldr	r3, [r2, #16]
    29b2:	f023 0304 	bic.w	r3, r3, #4
    29b6:	6113      	str	r3, [r2, #16]
    29b8:	bf30      	wfi
    29ba:	bd08      	pop	{r3, pc}
    29bc:	400fc000 	.word	0x400fc000
    29c0:	e000ed00 	.word	0xe000ed00

000029c4 <us_ticker_init>:
    29c4:	b508      	push	{r3, lr}
    29c6:	4b10      	ldr	r3, [pc, #64]	; (2a08 <us_ticker_init+0x44>)
    29c8:	6818      	ldr	r0, [r3, #0]
    29ca:	b9e0      	cbnz	r0, 2a06 <us_ticker_init+0x42>
    29cc:	2101      	movs	r1, #1
    29ce:	4a0f      	ldr	r2, [pc, #60]	; (2a0c <us_ticker_init+0x48>)
    29d0:	6019      	str	r1, [r3, #0]
    29d2:	f8d2 30c4 	ldr.w	r3, [r2, #196]	; 0xc4
    29d6:	f443 0300 	orr.w	r3, r3, #8388608	; 0x800000
    29da:	f8c2 30c4 	str.w	r3, [r2, #196]	; 0xc4
    29de:	f5a2 22d0 	sub.w	r2, r2, #425984	; 0x68000
    29e2:	6710      	str	r0, [r2, #112]	; 0x70
    29e4:	2002      	movs	r0, #2
    29e6:	4b0a      	ldr	r3, [pc, #40]	; (2a10 <us_ticker_init+0x4c>)
    29e8:	681b      	ldr	r3, [r3, #0]
    29ea:	6050      	str	r0, [r2, #4]
    29ec:	4809      	ldr	r0, [pc, #36]	; (2a14 <us_ticker_init+0x50>)
    29ee:	fbb3 f3f0 	udiv	r3, r3, r0
    29f2:	3b01      	subs	r3, #1
    29f4:	60d3      	str	r3, [r2, #12]
    29f6:	2004      	movs	r0, #4
    29f8:	6051      	str	r1, [r2, #4]
    29fa:	4907      	ldr	r1, [pc, #28]	; (2a18 <us_ticker_init+0x54>)
    29fc:	f000 fc76 	bl	32ec <__NVIC_SetVector>
    2a00:	2210      	movs	r2, #16
    2a02:	4b06      	ldr	r3, [pc, #24]	; (2a1c <us_ticker_init+0x58>)
    2a04:	601a      	str	r2, [r3, #0]
    2a06:	bd08      	pop	{r3, pc}
    2a08:	100017fc 	.word	0x100017fc
    2a0c:	400fc000 	.word	0x400fc000
    2a10:	10000100 	.word	0x10000100
    2a14:	003d0900 	.word	0x003d0900
    2a18:	00001239 	.word	0x00001239
    2a1c:	e000e100 	.word	0xe000e100

00002a20 <us_ticker_read>:
    2a20:	b508      	push	{r3, lr}
    2a22:	4b04      	ldr	r3, [pc, #16]	; (2a34 <us_ticker_read+0x14>)
    2a24:	681b      	ldr	r3, [r3, #0]
    2a26:	b90b      	cbnz	r3, 2a2c <us_ticker_read+0xc>
    2a28:	f7ff ffcc 	bl	29c4 <us_ticker_init>
    2a2c:	4b02      	ldr	r3, [pc, #8]	; (2a38 <us_ticker_read+0x18>)
    2a2e:	6898      	ldr	r0, [r3, #8]
    2a30:	bd08      	pop	{r3, pc}
    2a32:	bf00      	nop
    2a34:	100017fc 	.word	0x100017fc
    2a38:	40094000 	.word	0x40094000

00002a3c <us_ticker_set_interrupt>:
    2a3c:	4b03      	ldr	r3, [pc, #12]	; (2a4c <us_ticker_set_interrupt+0x10>)
    2a3e:	6198      	str	r0, [r3, #24]
    2a40:	695a      	ldr	r2, [r3, #20]
    2a42:	f042 0201 	orr.w	r2, r2, #1
    2a46:	615a      	str	r2, [r3, #20]
    2a48:	4770      	bx	lr
    2a4a:	bf00      	nop
    2a4c:	40094000 	.word	0x40094000

00002a50 <us_ticker_disable_interrupt>:
    2a50:	4a02      	ldr	r2, [pc, #8]	; (2a5c <us_ticker_disable_interrupt+0xc>)
    2a52:	6953      	ldr	r3, [r2, #20]
    2a54:	f023 0301 	bic.w	r3, r3, #1
    2a58:	6153      	str	r3, [r2, #20]
    2a5a:	4770      	bx	lr
    2a5c:	40094000 	.word	0x40094000

00002a60 <us_ticker_clear_interrupt>:
    2a60:	2201      	movs	r2, #1
    2a62:	4b01      	ldr	r3, [pc, #4]	; (2a68 <us_ticker_clear_interrupt+0x8>)
    2a64:	601a      	str	r2, [r3, #0]
    2a66:	4770      	bx	lr
    2a68:	40094000 	.word	0x40094000

00002a6c <pwmout_write>:
    2a6c:	b570      	push	{r4, r5, r6, lr}
    2a6e:	460d      	mov	r5, r1
    2a70:	4606      	mov	r6, r0
    2a72:	2100      	movs	r1, #0
    2a74:	4628      	mov	r0, r5
    2a76:	f001 fe95 	bl	47a4 <__aeabi_fcmplt>
    2a7a:	b9e8      	cbnz	r0, 2ab8 <pwmout_write+0x4c>
    2a7c:	f04f 517e 	mov.w	r1, #1065353216	; 0x3f800000
    2a80:	4628      	mov	r0, r5
    2a82:	f001 fead 	bl	47e0 <__aeabi_fcmpgt>
    2a86:	b108      	cbz	r0, 2a8c <pwmout_write+0x20>
    2a88:	f04f 557e 	mov.w	r5, #1065353216	; 0x3f800000
    2a8c:	4c0b      	ldr	r4, [pc, #44]	; (2abc <pwmout_write+0x50>)
    2a8e:	69a0      	ldr	r0, [r4, #24]
    2a90:	f001 fc92 	bl	43b8 <__aeabi_ui2f>
    2a94:	4629      	mov	r1, r5
    2a96:	f001 fce7 	bl	4468 <__aeabi_fmul>
    2a9a:	f001 fed1 	bl	4840 <__aeabi_f2uiz>
    2a9e:	69a3      	ldr	r3, [r4, #24]
    2aa0:	7931      	ldrb	r1, [r6, #4]
    2aa2:	4298      	cmp	r0, r3
    2aa4:	6833      	ldr	r3, [r6, #0]
    2aa6:	bf08      	it	eq
    2aa8:	3001      	addeq	r0, #1
    2aaa:	6018      	str	r0, [r3, #0]
    2aac:	2301      	movs	r3, #1
    2aae:	6d22      	ldr	r2, [r4, #80]	; 0x50
    2ab0:	408b      	lsls	r3, r1
    2ab2:	4313      	orrs	r3, r2
    2ab4:	6523      	str	r3, [r4, #80]	; 0x50
    2ab6:	bd70      	pop	{r4, r5, r6, pc}
    2ab8:	2500      	movs	r5, #0
    2aba:	e7e7      	b.n	2a8c <pwmout_write+0x20>
    2abc:	40018000 	.word	0x40018000

00002ac0 <pwmout_period_us>:
    2ac0:	4b0b      	ldr	r3, [pc, #44]	; (2af0 <pwmout_period_us+0x30>)
    2ac2:	b510      	push	{r4, lr}
    2ac4:	681a      	ldr	r2, [r3, #0]
    2ac6:	4b0b      	ldr	r3, [pc, #44]	; (2af4 <pwmout_period_us+0x34>)
    2ac8:	434a      	muls	r2, r1
    2aca:	2102      	movs	r1, #2
    2acc:	6059      	str	r1, [r3, #4]
    2ace:	619a      	str	r2, [r3, #24]
    2ad0:	6999      	ldr	r1, [r3, #24]
    2ad2:	b131      	cbz	r1, 2ae2 <pwmout_period_us+0x22>
    2ad4:	6800      	ldr	r0, [r0, #0]
    2ad6:	6801      	ldr	r1, [r0, #0]
    2ad8:	699c      	ldr	r4, [r3, #24]
    2ada:	4351      	muls	r1, r2
    2adc:	fbb1 f1f4 	udiv	r1, r1, r4
    2ae0:	6001      	str	r1, [r0, #0]
    2ae2:	6d1a      	ldr	r2, [r3, #80]	; 0x50
    2ae4:	f042 0201 	orr.w	r2, r2, #1
    2ae8:	651a      	str	r2, [r3, #80]	; 0x50
    2aea:	2209      	movs	r2, #9
    2aec:	605a      	str	r2, [r3, #4]
    2aee:	bd10      	pop	{r4, pc}
    2af0:	10001800 	.word	0x10001800
    2af4:	40018000 	.word	0x40018000

00002af8 <pwmout_period>:
    2af8:	b510      	push	{r4, lr}
    2afa:	4604      	mov	r4, r0
    2afc:	4608      	mov	r0, r1
    2afe:	4905      	ldr	r1, [pc, #20]	; (2b14 <pwmout_period+0x1c>)
    2b00:	f001 fcb2 	bl	4468 <__aeabi_fmul>
    2b04:	f001 fe76 	bl	47f4 <__aeabi_f2iz>
    2b08:	4601      	mov	r1, r0
    2b0a:	4620      	mov	r0, r4
    2b0c:	e8bd 4010 	ldmia.w	sp!, {r4, lr}
    2b10:	f7ff bfd6 	b.w	2ac0 <pwmout_period_us>
    2b14:	49742400 	.word	0x49742400

00002b18 <pwmout_init>:
    2b18:	b570      	push	{r4, r5, r6, lr}
    2b1a:	460d      	mov	r5, r1
    2b1c:	4e1d      	ldr	r6, [pc, #116]	; (2b94 <pwmout_init+0x7c>)
    2b1e:	4604      	mov	r4, r0
    2b20:	4631      	mov	r1, r6
    2b22:	4628      	mov	r0, r5
    2b24:	f7fe fbee 	bl	1304 <pinmap_peripheral>
    2b28:	4b1b      	ldr	r3, [pc, #108]	; (2b98 <pwmout_init+0x80>)
    2b2a:	7120      	strb	r0, [r4, #4]
    2b2c:	b2c0      	uxtb	r0, r0
    2b2e:	f853 3020 	ldr.w	r3, [r3, r0, lsl #2]
    2b32:	6023      	str	r3, [r4, #0]
    2b34:	4b19      	ldr	r3, [pc, #100]	; (2b9c <pwmout_init+0x84>)
    2b36:	f8d3 20c4 	ldr.w	r2, [r3, #196]	; 0xc4
    2b3a:	f042 0240 	orr.w	r2, r2, #64	; 0x40
    2b3e:	f8c3 20c4 	str.w	r2, [r3, #196]	; 0xc4
    2b42:	f8d3 21a8 	ldr.w	r2, [r3, #424]	; 0x1a8
    2b46:	f422 5240 	bic.w	r2, r2, #12288	; 0x3000
    2b4a:	f8c3 21a8 	str.w	r2, [r3, #424]	; 0x1a8
    2b4e:	2200      	movs	r2, #0
    2b50:	f5a3 2364 	sub.w	r3, r3, #933888	; 0xe4000
    2b54:	60da      	str	r2, [r3, #12]
    2b56:	2202      	movs	r2, #2
    2b58:	615a      	str	r2, [r3, #20]
    2b5a:	f100 0208 	add.w	r2, r0, #8
    2b5e:	2001      	movs	r0, #1
    2b60:	6cd9      	ldr	r1, [r3, #76]	; 0x4c
    2b62:	4090      	lsls	r0, r2
    2b64:	4308      	orrs	r0, r1
    2b66:	64d8      	str	r0, [r3, #76]	; 0x4c
    2b68:	4b0d      	ldr	r3, [pc, #52]	; (2ba0 <pwmout_init+0x88>)
    2b6a:	4a0e      	ldr	r2, [pc, #56]	; (2ba4 <pwmout_init+0x8c>)
    2b6c:	681b      	ldr	r3, [r3, #0]
    2b6e:	4620      	mov	r0, r4
    2b70:	fbb3 f3f2 	udiv	r3, r3, r2
    2b74:	4a0c      	ldr	r2, [pc, #48]	; (2ba8 <pwmout_init+0x90>)
    2b76:	f644 6120 	movw	r1, #20000	; 0x4e20
    2b7a:	6013      	str	r3, [r2, #0]
    2b7c:	f7ff ffa0 	bl	2ac0 <pwmout_period_us>
    2b80:	4620      	mov	r0, r4
    2b82:	2100      	movs	r1, #0
    2b84:	f7ff ff72 	bl	2a6c <pwmout_write>
    2b88:	4631      	mov	r1, r6
    2b8a:	4628      	mov	r0, r5
    2b8c:	e8bd 4070 	ldmia.w	sp!, {r4, r5, r6, lr}
    2b90:	f7fe bb7e 	b.w	1290 <pinmap_pinout>
    2b94:	00005934 	.word	0x00005934
    2b98:	100000e4 	.word	0x100000e4
    2b9c:	400fc000 	.word	0x400fc000
    2ba0:	10000100 	.word	0x10000100
    2ba4:	003d0900 	.word	0x003d0900
    2ba8:	10001800 	.word	0x10001800

00002bac <pwmout_pulsewidth_us>:
    2bac:	4b08      	ldr	r3, [pc, #32]	; (2bd0 <pwmout_pulsewidth_us+0x24>)
    2bae:	681b      	ldr	r3, [r3, #0]
    2bb0:	4359      	muls	r1, r3
    2bb2:	4b08      	ldr	r3, [pc, #32]	; (2bd4 <pwmout_pulsewidth_us+0x28>)
    2bb4:	699a      	ldr	r2, [r3, #24]
    2bb6:	4291      	cmp	r1, r2
    2bb8:	6802      	ldr	r2, [r0, #0]
    2bba:	bf08      	it	eq
    2bbc:	3101      	addeq	r1, #1
    2bbe:	6011      	str	r1, [r2, #0]
    2bc0:	2201      	movs	r2, #1
    2bc2:	7900      	ldrb	r0, [r0, #4]
    2bc4:	6d19      	ldr	r1, [r3, #80]	; 0x50
    2bc6:	4082      	lsls	r2, r0
    2bc8:	430a      	orrs	r2, r1
    2bca:	651a      	str	r2, [r3, #80]	; 0x50
    2bcc:	4770      	bx	lr
    2bce:	bf00      	nop
    2bd0:	10001800 	.word	0x10001800
    2bd4:	40018000 	.word	0x40018000

00002bd8 <pwmout_pulsewidth>:
    2bd8:	b510      	push	{r4, lr}
    2bda:	4604      	mov	r4, r0
    2bdc:	4608      	mov	r0, r1
    2bde:	4905      	ldr	r1, [pc, #20]	; (2bf4 <pwmout_pulsewidth+0x1c>)
    2be0:	f001 fc42 	bl	4468 <__aeabi_fmul>
    2be4:	f001 fe06 	bl	47f4 <__aeabi_f2iz>
    2be8:	4601      	mov	r1, r0
    2bea:	4620      	mov	r0, r4
    2bec:	e8bd 4010 	ldmia.w	sp!, {r4, lr}
    2bf0:	f7ff bfdc 	b.w	2bac <pwmout_pulsewidth_us>
    2bf4:	49742400 	.word	0x49742400

00002bf8 <pin_function>:
    2bf8:	b510      	push	{r4, lr}
    2bfa:	2403      	movs	r4, #3
    2bfc:	f100 4060 	add.w	r0, r0, #3758096384	; 0xe0000000
    2c00:	f5a0 201c 	sub.w	r0, r0, #638976	; 0x9c000
    2c04:	0043      	lsls	r3, r0, #1
    2c06:	0900      	lsrs	r0, r0, #4
    2c08:	0080      	lsls	r0, r0, #2
    2c0a:	f100 4080 	add.w	r0, r0, #1073741824	; 0x40000000
    2c0e:	f500 3030 	add.w	r0, r0, #180224	; 0x2c000
    2c12:	6802      	ldr	r2, [r0, #0]
    2c14:	f003 031e 	and.w	r3, r3, #30
    2c18:	409c      	lsls	r4, r3
    2c1a:	ea22 0204 	bic.w	r2, r2, r4
    2c1e:	6002      	str	r2, [r0, #0]
    2c20:	6802      	ldr	r2, [r0, #0]
    2c22:	4099      	lsls	r1, r3
    2c24:	4311      	orrs	r1, r2
    2c26:	6001      	str	r1, [r0, #0]
    2c28:	bd10      	pop	{r4, pc}

00002c2a <pin_mode>:
    2c2a:	f100 4060 	add.w	r0, r0, #3758096384	; 0xe0000000
    2c2e:	f5a0 201c 	sub.w	r0, r0, #638976	; 0x9c000
    2c32:	0943      	lsrs	r3, r0, #5
    2c34:	009b      	lsls	r3, r3, #2
    2c36:	f103 4380 	add.w	r3, r3, #1073741824	; 0x40000000
    2c3a:	f503 3330 	add.w	r3, r3, #180224	; 0x2c000
    2c3e:	b530      	push	{r4, r5, lr}
    2c40:	f000 021f 	and.w	r2, r0, #31
    2c44:	6e9c      	ldr	r4, [r3, #104]	; 0x68
    2c46:	f3c1 0580 	ubfx	r5, r1, #2, #1
    2c4a:	fa05 f202 	lsl.w	r2, r5, r2
    2c4e:	ea24 0402 	bic.w	r4, r4, r2
    2c52:	669c      	str	r4, [r3, #104]	; 0x68
    2c54:	6e9c      	ldr	r4, [r3, #104]	; 0x68
    2c56:	4322      	orrs	r2, r4
    2c58:	669a      	str	r2, [r3, #104]	; 0x68
    2c5a:	b995      	cbnz	r5, 2c82 <pin_mode+0x58>
    2c5c:	2403      	movs	r4, #3
    2c5e:	0043      	lsls	r3, r0, #1
    2c60:	0900      	lsrs	r0, r0, #4
    2c62:	0080      	lsls	r0, r0, #2
    2c64:	f100 4080 	add.w	r0, r0, #1073741824	; 0x40000000
    2c68:	f500 3030 	add.w	r0, r0, #180224	; 0x2c000
    2c6c:	6c02      	ldr	r2, [r0, #64]	; 0x40
    2c6e:	f003 031e 	and.w	r3, r3, #30
    2c72:	409c      	lsls	r4, r3
    2c74:	ea22 0204 	bic.w	r2, r2, r4
    2c78:	6402      	str	r2, [r0, #64]	; 0x40
    2c7a:	6c02      	ldr	r2, [r0, #64]	; 0x40
    2c7c:	4099      	lsls	r1, r3
    2c7e:	4311      	orrs	r1, r2
    2c80:	6401      	str	r1, [r0, #64]	; 0x40
    2c82:	bd30      	pop	{r4, r5, pc}

00002c84 <uart_irq>:
    2c84:	2801      	cmp	r0, #1
    2c86:	b410      	push	{r4}
    2c88:	d008      	beq.n	2c9c <uart_irq+0x18>
    2c8a:	2802      	cmp	r0, #2
    2c8c:	d008      	beq.n	2ca0 <uart_irq+0x1c>
    2c8e:	bc10      	pop	{r4}
    2c90:	4770      	bx	lr
    2c92:	6850      	ldr	r0, [r2, #4]
    2c94:	f020 0001 	bic.w	r0, r0, #1
    2c98:	6050      	str	r0, [r2, #4]
    2c9a:	e010      	b.n	2cbe <uart_irq+0x3a>
    2c9c:	4603      	mov	r3, r0
    2c9e:	e00e      	b.n	2cbe <uart_irq+0x3a>
    2ca0:	2338      	movs	r3, #56	; 0x38
    2ca2:	480f      	ldr	r0, [pc, #60]	; (2ce0 <uart_irq+0x5c>)
    2ca4:	fb03 0301 	mla	r3, r3, r1, r0
    2ca8:	6858      	ldr	r0, [r3, #4]
    2caa:	3001      	adds	r0, #1
    2cac:	d006      	beq.n	2cbc <uart_irq+0x38>
    2cae:	6918      	ldr	r0, [r3, #16]
    2cb0:	689c      	ldr	r4, [r3, #8]
    2cb2:	6004      	str	r4, [r0, #0]
    2cb4:	f893 3036 	ldrb.w	r3, [r3, #54]	; 0x36
    2cb8:	2b00      	cmp	r3, #0
    2cba:	d0ea      	beq.n	2c92 <uart_irq+0xe>
    2cbc:	2300      	movs	r3, #0
    2cbe:	2238      	movs	r2, #56	; 0x38
    2cc0:	4351      	muls	r1, r2
    2cc2:	4807      	ldr	r0, [pc, #28]	; (2ce0 <uart_irq+0x5c>)
    2cc4:	1842      	adds	r2, r0, r1
    2cc6:	5840      	ldr	r0, [r0, r1]
    2cc8:	2800      	cmp	r0, #0
    2cca:	d0e0      	beq.n	2c8e <uart_irq+0xa>
    2ccc:	b91b      	cbnz	r3, 2cd6 <uart_irq+0x52>
    2cce:	f892 2036 	ldrb.w	r2, [r2, #54]	; 0x36
    2cd2:	2a00      	cmp	r2, #0
    2cd4:	d0db      	beq.n	2c8e <uart_irq+0xa>
    2cd6:	4a03      	ldr	r2, [pc, #12]	; (2ce4 <uart_irq+0x60>)
    2cd8:	4619      	mov	r1, r3
    2cda:	6812      	ldr	r2, [r2, #0]
    2cdc:	bc10      	pop	{r4}
    2cde:	4710      	bx	r2
    2ce0:	1000180c 	.word	0x1000180c
    2ce4:	10001804 	.word	0x10001804

00002ce8 <uart0_irq>:
    2ce8:	4a03      	ldr	r2, [pc, #12]	; (2cf8 <uart0_irq+0x10>)
    2cea:	2100      	movs	r1, #0
    2cec:	6890      	ldr	r0, [r2, #8]
    2cee:	f3c0 0042 	ubfx	r0, r0, #1, #3
    2cf2:	f7ff bfc7 	b.w	2c84 <uart_irq>
    2cf6:	bf00      	nop
    2cf8:	4000c000 	.word	0x4000c000

00002cfc <uart1_irq>:
    2cfc:	4a03      	ldr	r2, [pc, #12]	; (2d0c <uart1_irq+0x10>)
    2cfe:	2101      	movs	r1, #1
    2d00:	6890      	ldr	r0, [r2, #8]
    2d02:	f3c0 0042 	ubfx	r0, r0, #1, #3
    2d06:	f7ff bfbd 	b.w	2c84 <uart_irq>
    2d0a:	bf00      	nop
    2d0c:	40010000 	.word	0x40010000

00002d10 <uart2_irq>:
    2d10:	4a03      	ldr	r2, [pc, #12]	; (2d20 <uart2_irq+0x10>)
    2d12:	2102      	movs	r1, #2
    2d14:	6890      	ldr	r0, [r2, #8]
    2d16:	f3c0 0042 	ubfx	r0, r0, #1, #3
    2d1a:	f7ff bfb3 	b.w	2c84 <uart_irq>
    2d1e:	bf00      	nop
    2d20:	40098000 	.word	0x40098000

00002d24 <uart3_irq>:
    2d24:	4a03      	ldr	r2, [pc, #12]	; (2d34 <uart3_irq+0x10>)
    2d26:	2103      	movs	r1, #3
    2d28:	6890      	ldr	r0, [r2, #8]
    2d2a:	f3c0 0042 	ubfx	r0, r0, #1, #3
    2d2e:	f7ff bfa9 	b.w	2c84 <uart_irq>
    2d32:	bf00      	nop
    2d34:	4009c000 	.word	0x4009c000

00002d38 <serial_irq_set_internal>:
    2d38:	b570      	push	{r4, r5, r6, lr}
    2d3a:	460b      	mov	r3, r1
    2d3c:	6806      	ldr	r6, [r0, #0]
    2d3e:	4929      	ldr	r1, [pc, #164]	; (2de4 <serial_irq_set_internal+0xac>)
    2d40:	428e      	cmp	r6, r1
    2d42:	d022      	beq.n	2d8a <serial_irq_set_internal+0x52>
    2d44:	dc06      	bgt.n	2d54 <serial_irq_set_internal+0x1c>
    2d46:	f5a1 4180 	sub.w	r1, r1, #16384	; 0x4000
    2d4a:	428e      	cmp	r6, r1
    2d4c:	d00c      	beq.n	2d68 <serial_irq_set_internal+0x30>
    2d4e:	2100      	movs	r1, #0
    2d50:	460c      	mov	r4, r1
    2d52:	e00b      	b.n	2d6c <serial_irq_set_internal+0x34>
    2d54:	4924      	ldr	r1, [pc, #144]	; (2de8 <serial_irq_set_internal+0xb0>)
    2d56:	428e      	cmp	r6, r1
    2d58:	d01a      	beq.n	2d90 <serial_irq_set_internal+0x58>
    2d5a:	f501 4180 	add.w	r1, r1, #16384	; 0x4000
    2d5e:	428e      	cmp	r6, r1
    2d60:	d1f5      	bne.n	2d4e <serial_irq_set_internal+0x16>
    2d62:	4922      	ldr	r1, [pc, #136]	; (2dec <serial_irq_set_internal+0xb4>)
    2d64:	2408      	movs	r4, #8
    2d66:	e001      	b.n	2d6c <serial_irq_set_internal+0x34>
    2d68:	2405      	movs	r4, #5
    2d6a:	4921      	ldr	r1, [pc, #132]	; (2df0 <serial_irq_set_internal+0xb8>)
    2d6c:	b19a      	cbz	r2, 2d96 <serial_irq_set_internal+0x5e>
    2d6e:	2501      	movs	r5, #1
    2d70:	6872      	ldr	r2, [r6, #4]
    2d72:	fa05 f303 	lsl.w	r3, r5, r3
    2d76:	4313      	orrs	r3, r2
    2d78:	6073      	str	r3, [r6, #4]
    2d7a:	4620      	mov	r0, r4
    2d7c:	f000 fab6 	bl	32ec <__NVIC_SetVector>
    2d80:	4b1c      	ldr	r3, [pc, #112]	; (2df4 <serial_irq_set_internal+0xbc>)
    2d82:	fa05 f404 	lsl.w	r4, r5, r4
    2d86:	601c      	str	r4, [r3, #0]
    2d88:	bd70      	pop	{r4, r5, r6, pc}
    2d8a:	491b      	ldr	r1, [pc, #108]	; (2df8 <serial_irq_set_internal+0xc0>)
    2d8c:	2406      	movs	r4, #6
    2d8e:	e7ed      	b.n	2d6c <serial_irq_set_internal+0x34>
    2d90:	491a      	ldr	r1, [pc, #104]	; (2dfc <serial_irq_set_internal+0xc4>)
    2d92:	2407      	movs	r4, #7
    2d94:	e7ea      	b.n	2d6c <serial_irq_set_internal+0x34>
    2d96:	2b01      	cmp	r3, #1
    2d98:	d00a      	beq.n	2db0 <serial_irq_set_internal+0x78>
    2d9a:	6842      	ldr	r2, [r0, #4]
    2d9c:	2038      	movs	r0, #56	; 0x38
    2d9e:	4918      	ldr	r1, [pc, #96]	; (2e00 <serial_irq_set_internal+0xc8>)
    2da0:	fb00 1202 	mla	r2, r0, r2, r1
    2da4:	f892 1036 	ldrb.w	r1, [r2, #54]	; 0x36
    2da8:	f892 2035 	ldrb.w	r2, [r2, #53]	; 0x35
    2dac:	42d1      	cmn	r1, r2
    2dae:	d117      	bne.n	2de0 <serial_irq_set_internal+0xa8>
    2db0:	2201      	movs	r2, #1
    2db2:	fa02 f003 	lsl.w	r0, r2, r3
    2db6:	fab3 f383 	clz	r3, r3
    2dba:	6871      	ldr	r1, [r6, #4]
    2dbc:	095b      	lsrs	r3, r3, #5
    2dbe:	ea21 0100 	bic.w	r1, r1, r0
    2dc2:	6071      	str	r1, [r6, #4]
    2dc4:	6871      	ldr	r1, [r6, #4]
    2dc6:	fa02 f303 	lsl.w	r3, r2, r3
    2dca:	420b      	tst	r3, r1
    2dcc:	d108      	bne.n	2de0 <serial_irq_set_internal+0xa8>
    2dce:	4b09      	ldr	r3, [pc, #36]	; (2df4 <serial_irq_set_internal+0xbc>)
    2dd0:	fa02 f404 	lsl.w	r4, r2, r4
    2dd4:	f8c3 4080 	str.w	r4, [r3, #128]	; 0x80
    2dd8:	f3bf 8f4f 	dsb	sy
    2ddc:	f3bf 8f6f 	isb	sy
    2de0:	bd70      	pop	{r4, r5, r6, pc}
    2de2:	bf00      	nop
    2de4:	40010000 	.word	0x40010000
    2de8:	40098000 	.word	0x40098000
    2dec:	00002d25 	.word	0x00002d25
    2df0:	00002ce9 	.word	0x00002ce9
    2df4:	e000e100 	.word	0xe000e100
    2df8:	00002cfd 	.word	0x00002cfd
    2dfc:	00002d11 	.word	0x00002d11
    2e00:	1000180c 	.word	0x1000180c

00002e04 <serial_baud>:
    2e04:	e92d 4ff0 	stmdb	sp!, {r4, r5, r6, r7, r8, r9, r10, r11, lr}
    2e08:	4b64      	ldr	r3, [pc, #400]	; (2f9c <serial_baud+0x198>)
    2e0a:	6804      	ldr	r4, [r0, #0]
    2e0c:	b087      	sub	sp, #28
    2e0e:	429c      	cmp	r4, r3
    2e10:	f000 808d 	beq.w	2f2e <serial_baud+0x12a>
    2e14:	dc6a      	bgt.n	2eec <serial_baud+0xe8>
    2e16:	f5a3 4380 	sub.w	r3, r3, #16384	; 0x4000
    2e1a:	429c      	cmp	r4, r3
    2e1c:	d079      	beq.n	2f12 <serial_baud+0x10e>
    2e1e:	4b60      	ldr	r3, [pc, #384]	; (2fa0 <serial_baud+0x19c>)
    2e20:	0108      	lsls	r0, r1, #4
    2e22:	f8d3 c000 	ldr.w	r12, [r3]
    2e26:	fbbc f2f0 	udiv	r2, r12, r0
    2e2a:	b293      	uxth	r3, r2
    2e2c:	fb00 c212 	mls	r2, r0, r2, r12
    2e30:	2a00      	cmp	r2, #0
    2e32:	f000 80aa 	beq.w	2f8a <serial_baud+0x186>
    2e36:	2501      	movs	r5, #1
    2e38:	46e6      	mov	lr, r12
    2e3a:	4699      	mov	r9, r3
    2e3c:	46ab      	mov	r11, r5
    2e3e:	f04f 0a00 	mov.w	r10, #0
    2e42:	9101      	str	r1, [sp, #4]
    2e44:	9103      	str	r1, [sp, #12]
    2e46:	2600      	movs	r6, #0
    2e48:	ea4f 034e 	mov.w	r3, lr, lsl #1
    2e4c:	9304      	str	r3, [sp, #16]
    2e4e:	f8dd 8004 	ldr.w	r8, [sp, #4]
    2e52:	ea4f 038e 	mov.w	r3, lr, lsl #2
    2e56:	b2ef      	uxtb	r7, r5
    2e58:	9305      	str	r3, [sp, #20]
    2e5a:	b2f3      	uxtb	r3, r6
    2e5c:	9300      	str	r3, [sp, #0]
    2e5e:	9b04      	ldr	r3, [sp, #16]
    2e60:	2b00      	cmp	r3, #0
    2e62:	bfab      	itete	ge
    2e64:	9b05      	ldrge	r3, [sp, #20]
    2e66:	fbb3 f3f8 	udivlt	r3, r3, r8
    2e6a:	fbb3 f3f8 	udivge	r3, r3, r8
    2e6e:	091b      	lsrlt	r3, r3, #4
    2e70:	bfa8      	it	ge
    2e72:	095b      	lsrge	r3, r3, #5
    2e74:	3301      	adds	r3, #1
    2e76:	f3c3 034f 	ubfx	r3, r3, #1, #16
    2e7a:	2b00      	cmp	r3, #0
    2e7c:	f000 8088 	beq.w	2f90 <serial_baud+0x18c>
    2e80:	b116      	cbz	r6, 2e88 <serial_baud+0x84>
    2e82:	2b01      	cmp	r3, #1
    2e84:	bf08      	it	eq
    2e86:	2302      	moveq	r3, #2
    2e88:	19a8      	adds	r0, r5, r6
    2e8a:	4358      	muls	r0, r3
    2e8c:	00c0      	lsls	r0, r0, #3
    2e8e:	fbbe f0f0 	udiv	r0, lr, r0
    2e92:	3001      	adds	r0, #1
    2e94:	ebc1 0050 	rsb	r0, r1, r0, lsr #1
    2e98:	2800      	cmp	r0, #0
    2e9a:	bfb8      	it	lt
    2e9c:	4240      	neglt	r0, r0
    2e9e:	9002      	str	r0, [sp, #8]
    2ea0:	9a02      	ldr	r2, [sp, #8]
    2ea2:	9803      	ldr	r0, [sp, #12]
    2ea4:	4282      	cmp	r2, r0
    2ea6:	da62      	bge.n	2f6e <serial_baud+0x16a>
    2ea8:	4291      	cmp	r1, r2
    2eaa:	d15a      	bne.n	2f62 <serial_baud+0x15e>
    2eac:	2d0f      	cmp	r5, #15
    2eae:	d107      	bne.n	2ec0 <serial_baud+0xbc>
    2eb0:	46bb      	mov	r11, r7
    2eb2:	4699      	mov	r9, r3
    2eb4:	f8dd a000 	ldr.w	r10, [sp]
    2eb8:	465f      	mov	r7, r11
    2eba:	464b      	mov	r3, r9
    2ebc:	f8cd a000 	str.w	r10, [sp]
    2ec0:	7b21      	ldrb	r1, [r4, #12]
    2ec2:	f041 0180 	orr.w	r1, r1, #128	; 0x80
    2ec6:	7321      	strb	r1, [r4, #12]
    2ec8:	f3c3 2107 	ubfx	r1, r3, #8, #8
    2ecc:	b2db      	uxtb	r3, r3
    2ece:	7121      	strb	r1, [r4, #4]
    2ed0:	7023      	strb	r3, [r4, #0]
    2ed2:	9b00      	ldr	r3, [sp, #0]
    2ed4:	ea43 1207 	orr.w	r2, r3, r7, lsl #4
    2ed8:	b2d2      	uxtb	r2, r2
    2eda:	f884 2028 	strb.w	r2, [r4, #40]	; 0x28
    2ede:	7b23      	ldrb	r3, [r4, #12]
    2ee0:	f003 037f 	and.w	r3, r3, #127	; 0x7f
    2ee4:	7323      	strb	r3, [r4, #12]
    2ee6:	b007      	add	sp, #28
    2ee8:	e8bd 8ff0 	ldmia.w	sp!, {r4, r5, r6, r7, r8, r9, r10, r11, pc}
    2eec:	4b2d      	ldr	r3, [pc, #180]	; (2fa4 <serial_baud+0x1a0>)
    2eee:	429c      	cmp	r4, r3
    2ef0:	d029      	beq.n	2f46 <serial_baud+0x142>
    2ef2:	f503 4380 	add.w	r3, r3, #16384	; 0x4000
    2ef6:	429c      	cmp	r4, r3
    2ef8:	d191      	bne.n	2e1e <serial_baud+0x1a>
    2efa:	4b2b      	ldr	r3, [pc, #172]	; (2fa8 <serial_baud+0x1a4>)
    2efc:	f8d3 21ac 	ldr.w	r2, [r3, #428]	; 0x1ac
    2f00:	f422 2240 	bic.w	r2, r2, #786432	; 0xc0000
    2f04:	f8c3 21ac 	str.w	r2, [r3, #428]	; 0x1ac
    2f08:	f8d3 21ac 	ldr.w	r2, [r3, #428]	; 0x1ac
    2f0c:	f442 2280 	orr.w	r2, r2, #262144	; 0x40000
    2f10:	e024      	b.n	2f5c <serial_baud+0x158>
    2f12:	4b25      	ldr	r3, [pc, #148]	; (2fa8 <serial_baud+0x1a4>)
    2f14:	f8d3 21a8 	ldr.w	r2, [r3, #424]	; 0x1a8
    2f18:	f022 02c0 	bic.w	r2, r2, #192	; 0xc0
    2f1c:	f8c3 21a8 	str.w	r2, [r3, #424]	; 0x1a8
    2f20:	f8d3 21a8 	ldr.w	r2, [r3, #424]	; 0x1a8
    2f24:	f042 0240 	orr.w	r2, r2, #64	; 0x40
    2f28:	f8c3 21a8 	str.w	r2, [r3, #424]	; 0x1a8
    2f2c:	e777      	b.n	2e1e <serial_baud+0x1a>
    2f2e:	4b1e      	ldr	r3, [pc, #120]	; (2fa8 <serial_baud+0x1a4>)
    2f30:	f8d3 21a8 	ldr.w	r2, [r3, #424]	; 0x1a8
    2f34:	f422 7240 	bic.w	r2, r2, #768	; 0x300
    2f38:	f8c3 21a8 	str.w	r2, [r3, #424]	; 0x1a8
    2f3c:	f8d3 21a8 	ldr.w	r2, [r3, #424]	; 0x1a8
    2f40:	f442 7280 	orr.w	r2, r2, #256	; 0x100
    2f44:	e7f0      	b.n	2f28 <serial_baud+0x124>
    2f46:	4b18      	ldr	r3, [pc, #96]	; (2fa8 <serial_baud+0x1a4>)
    2f48:	f8d3 21ac 	ldr.w	r2, [r3, #428]	; 0x1ac
    2f4c:	f422 3240 	bic.w	r2, r2, #196608	; 0x30000
    2f50:	f8c3 21ac 	str.w	r2, [r3, #428]	; 0x1ac
    2f54:	f8d3 21ac 	ldr.w	r2, [r3, #428]	; 0x1ac
    2f58:	f442 3280 	orr.w	r2, r2, #65536	; 0x10000
    2f5c:	f8c3 21ac 	str.w	r2, [r3, #428]	; 0x1ac
    2f60:	e75d      	b.n	2e1e <serial_baud+0x1a>
    2f62:	46bb      	mov	r11, r7
    2f64:	4699      	mov	r9, r3
    2f66:	9a02      	ldr	r2, [sp, #8]
    2f68:	f8dd a000 	ldr.w	r10, [sp]
    2f6c:	9203      	str	r2, [sp, #12]
    2f6e:	3601      	adds	r6, #1
    2f70:	b2f3      	uxtb	r3, r6
    2f72:	42bb      	cmp	r3, r7
    2f74:	4488      	add	r8, r1
    2f76:	f4ff af70 	bcc.w	2e5a <serial_baud+0x56>
    2f7a:	2d0f      	cmp	r5, #15
    2f7c:	d09c      	beq.n	2eb8 <serial_baud+0xb4>
    2f7e:	9b01      	ldr	r3, [sp, #4]
    2f80:	3501      	adds	r5, #1
    2f82:	440b      	add	r3, r1
    2f84:	44e6      	add	lr, r12
    2f86:	9301      	str	r3, [sp, #4]
    2f88:	e75d      	b.n	2e46 <serial_baud+0x42>
    2f8a:	2701      	movs	r7, #1
    2f8c:	9200      	str	r2, [sp, #0]
    2f8e:	e797      	b.n	2ec0 <serial_baud+0xbc>
    2f90:	2e00      	cmp	r6, #0
    2f92:	bf0c      	ite	eq
    2f94:	2301      	moveq	r3, #1
    2f96:	2302      	movne	r3, #2
    2f98:	e776      	b.n	2e88 <serial_baud+0x84>
    2f9a:	bf00      	nop
    2f9c:	40010000 	.word	0x40010000
    2fa0:	10000100 	.word	0x10000100
    2fa4:	40098000 	.word	0x40098000
    2fa8:	400fc000 	.word	0x400fc000

00002fac <serial_irq_handler>:
    2fac:	4b03      	ldr	r3, [pc, #12]	; (2fbc <serial_irq_handler+0x10>)
    2fae:	6019      	str	r1, [r3, #0]
    2fb0:	2338      	movs	r3, #56	; 0x38
    2fb2:	6841      	ldr	r1, [r0, #4]
    2fb4:	434b      	muls	r3, r1
    2fb6:	4902      	ldr	r1, [pc, #8]	; (2fc0 <serial_irq_handler+0x14>)
    2fb8:	50ca      	str	r2, [r1, r3]
    2fba:	4770      	bx	lr
    2fbc:	10001804 	.word	0x10001804
    2fc0:	1000180c 	.word	0x1000180c

00002fc4 <serial_irq_set>:
    2fc4:	b430      	push	{r4, r5}
    2fc6:	b931      	cbnz	r1, 2fd6 <serial_irq_set+0x12>
    2fc8:	2538      	movs	r5, #56	; 0x38
    2fca:	6843      	ldr	r3, [r0, #4]
    2fcc:	4c03      	ldr	r4, [pc, #12]	; (2fdc <serial_irq_set+0x18>)
    2fce:	fb05 4303 	mla	r3, r5, r3, r4
    2fd2:	f883 2036 	strb.w	r2, [r3, #54]	; 0x36
    2fd6:	bc30      	pop	{r4, r5}
    2fd8:	f7ff beae 	b.w	2d38 <serial_irq_set_internal>
    2fdc:	1000180c 	.word	0x1000180c

00002fe0 <serial_getc>:
    2fe0:	b510      	push	{r4, lr}
    2fe2:	6802      	ldr	r2, [r0, #0]
    2fe4:	7d13      	ldrb	r3, [r2, #20]
    2fe6:	07db      	lsls	r3, r3, #31
    2fe8:	d5fc      	bpl.n	2fe4 <serial_getc+0x4>
    2fea:	2438      	movs	r4, #56	; 0x38
    2fec:	6843      	ldr	r3, [r0, #4]
    2fee:	4808      	ldr	r0, [pc, #32]	; (3010 <serial_getc+0x30>)
    2ff0:	7811      	ldrb	r1, [r2, #0]
    2ff2:	fb04 0303 	mla	r3, r4, r3, r0
    2ff6:	6858      	ldr	r0, [r3, #4]
    2ff8:	b2c9      	uxtb	r1, r1
    2ffa:	3001      	adds	r0, #1
    2ffc:	d006      	beq.n	300c <serial_getc+0x2c>
    2ffe:	6958      	ldr	r0, [r3, #20]
    3000:	689b      	ldr	r3, [r3, #8]
    3002:	6003      	str	r3, [r0, #0]
    3004:	6853      	ldr	r3, [r2, #4]
    3006:	f043 0301 	orr.w	r3, r3, #1
    300a:	6053      	str	r3, [r2, #4]
    300c:	4608      	mov	r0, r1
    300e:	bd10      	pop	{r4, pc}
    3010:	1000180c 	.word	0x1000180c

00003014 <serial_readable>:
    3014:	6803      	ldr	r3, [r0, #0]
    3016:	7d18      	ldrb	r0, [r3, #20]
    3018:	f000 0001 	and.w	r0, r0, #1
    301c:	4770      	bx	lr
	...

00003020 <serial_writable>:
    3020:	2138      	movs	r1, #56	; 0x38
    3022:	4a11      	ldr	r2, [pc, #68]	; (3068 <serial_writable+0x48>)
    3024:	6843      	ldr	r3, [r0, #4]
    3026:	fb01 2303 	mla	r3, r1, r3, r2
    302a:	69da      	ldr	r2, [r3, #28]
    302c:	3201      	adds	r2, #1
    302e:	d009      	beq.n	3044 <serial_writable+0x24>
    3030:	6b1a      	ldr	r2, [r3, #48]	; 0x30
    3032:	6a1b      	ldr	r3, [r3, #32]
    3034:	6812      	ldr	r2, [r2, #0]
    3036:	421a      	tst	r2, r3
    3038:	d114      	bne.n	3064 <serial_writable+0x44>
    303a:	6803      	ldr	r3, [r0, #0]
    303c:	7d18      	ldrb	r0, [r3, #20]
    303e:	f3c0 1080 	ubfx	r0, r0, #6, #1
    3042:	4770      	bx	lr
    3044:	6802      	ldr	r2, [r0, #0]
    3046:	7d12      	ldrb	r2, [r2, #20]
    3048:	0692      	lsls	r2, r2, #26
    304a:	d504      	bpl.n	3056 <serial_writable+0x36>
    304c:	2200      	movs	r2, #0
    304e:	2001      	movs	r0, #1
    3050:	f883 2034 	strb.w	r2, [r3, #52]	; 0x34
    3054:	4770      	bx	lr
    3056:	f893 0034 	ldrb.w	r0, [r3, #52]	; 0x34
    305a:	280f      	cmp	r0, #15
    305c:	bf8c      	ite	hi
    305e:	2000      	movhi	r0, #0
    3060:	2001      	movls	r0, #1
    3062:	4770      	bx	lr
    3064:	2000      	movs	r0, #0
    3066:	4770      	bx	lr
    3068:	1000180c 	.word	0x1000180c

0000306c <serial_putc>:
    306c:	b538      	push	{r3, r4, r5, lr}
    306e:	4604      	mov	r4, r0
    3070:	460d      	mov	r5, r1
    3072:	4620      	mov	r0, r4
    3074:	f7ff ffd4 	bl	3020 <serial_writable>
    3078:	2800      	cmp	r0, #0
    307a:	d0fa      	beq.n	3072 <serial_putc+0x6>
    307c:	2138      	movs	r1, #56	; 0x38
    307e:	6823      	ldr	r3, [r4, #0]
    3080:	b2ed      	uxtb	r5, r5
    3082:	701d      	strb	r5, [r3, #0]
    3084:	6863      	ldr	r3, [r4, #4]
    3086:	4a04      	ldr	r2, [pc, #16]	; (3098 <serial_putc+0x2c>)
    3088:	fb01 2303 	mla	r3, r1, r3, r2
    308c:	f893 2034 	ldrb.w	r2, [r3, #52]	; 0x34
    3090:	3201      	adds	r2, #1
    3092:	f883 2034 	strb.w	r2, [r3, #52]	; 0x34
    3096:	bd38      	pop	{r3, r4, r5, pc}
    3098:	1000180c 	.word	0x1000180c

0000309c <serial_set_flow_control>:
    309c:	e92d 4ff8 	stmdb	sp!, {r3, r4, r5, r6, r7, r8, r9, r10, r11, lr}
    30a0:	469a      	mov	r10, r3
    30a2:	4c3c      	ldr	r4, [pc, #240]	; (3194 <serial_set_flow_control+0xf8>)
    30a4:	6803      	ldr	r3, [r0, #0]
    30a6:	4605      	mov	r5, r0
    30a8:	42a3      	cmp	r3, r4
    30aa:	bf18      	it	ne
    30ac:	2400      	movne	r4, #0
    30ae:	4689      	mov	r9, r1
    30b0:	4690      	mov	r8, r2
    30b2:	6847      	ldr	r7, [r0, #4]
    30b4:	b11c      	cbz	r4, 30be <serial_set_flow_control+0x22>
    30b6:	7c23      	ldrb	r3, [r4, #16]
    30b8:	f003 033f 	and.w	r3, r3, #63	; 0x3f
    30bc:	7423      	strb	r3, [r4, #16]
    30be:	2338      	movs	r3, #56	; 0x38
    30c0:	f04f 32ff 	mov.w	r2, #4294967295	; 0xffffffff
    30c4:	4e34      	ldr	r6, [pc, #208]	; (3198 <serial_set_flow_control+0xfc>)
    30c6:	4628      	mov	r0, r5
    30c8:	fb03 6307 	mla	r3, r3, r7, r6
    30cc:	61da      	str	r2, [r3, #28]
    30ce:	605a      	str	r2, [r3, #4]
    30d0:	2200      	movs	r2, #0
    30d2:	f883 2035 	strb.w	r2, [r3, #53]	; 0x35
    30d6:	4611      	mov	r1, r2
    30d8:	f7ff fe2e 	bl	2d38 <serial_irq_set_internal>
    30dc:	f1b9 0f00 	cmp.w	r9, #0
    30e0:	d055      	beq.n	318e <serial_set_flow_control+0xf2>
    30e2:	492e      	ldr	r1, [pc, #184]	; (319c <serial_set_flow_control+0x100>)
    30e4:	4640      	mov	r0, r8
    30e6:	f7fe f901 	bl	12ec <pinmap_find_peripheral>
    30ea:	492d      	ldr	r1, [pc, #180]	; (31a0 <serial_set_flow_control+0x104>)
    30ec:	4683      	mov	r11, r0
    30ee:	4650      	mov	r0, r10
    30f0:	f7fe f8fc 	bl	12ec <pinmap_find_peripheral>
    30f4:	f1a9 0302 	sub.w	r3, r9, #2
    30f8:	2b01      	cmp	r3, #1
    30fa:	d81b      	bhi.n	3134 <serial_set_flow_control+0x98>
    30fc:	f1ba 3fff 	cmp.w	r10, #4294967295	; 0xffffffff
    3100:	d00b      	beq.n	311a <serial_set_flow_control+0x7e>
    3102:	4b24      	ldr	r3, [pc, #144]	; (3194 <serial_set_flow_control+0xf8>)
    3104:	4298      	cmp	r0, r3
    3106:	d10d      	bne.n	3124 <serial_set_flow_control+0x88>
    3108:	b164      	cbz	r4, 3124 <serial_set_flow_control+0x88>
    310a:	7c23      	ldrb	r3, [r4, #16]
    310c:	4924      	ldr	r1, [pc, #144]	; (31a0 <serial_set_flow_control+0x104>)
    310e:	f043 0380 	orr.w	r3, r3, #128	; 0x80
    3112:	7423      	strb	r3, [r4, #16]
    3114:	4650      	mov	r0, r10
    3116:	f7fe f8bb 	bl	1290 <pinmap_pinout>
    311a:	f1b9 0f03 	cmp.w	r9, #3
    311e:	d00c      	beq.n	313a <serial_set_flow_control+0x9e>
    3120:	e8bd 8ff8 	ldmia.w	sp!, {r3, r4, r5, r6, r7, r8, r9, r10, r11, pc}
    3124:	2038      	movs	r0, #56	; 0x38
    3126:	fb00 6007 	mla	r0, r0, r7, r6
    312a:	4651      	mov	r1, r10
    312c:	301c      	adds	r0, #28
    312e:	f7fe f869 	bl	1204 <gpio_init_in>
    3132:	e7f2      	b.n	311a <serial_set_flow_control+0x7e>
    3134:	f1b9 0f01 	cmp.w	r9, #1
    3138:	d129      	bne.n	318e <serial_set_flow_control+0xf2>
    313a:	f1b8 3fff 	cmp.w	r8, #4294967295	; 0xffffffff
    313e:	d101      	bne.n	3144 <serial_set_flow_control+0xa8>
    3140:	e8bd 8ff8 	ldmia.w	sp!, {r3, r4, r5, r6, r7, r8, r9, r10, r11, pc}
    3144:	2207      	movs	r2, #7
    3146:	682b      	ldr	r3, [r5, #0]
    3148:	721a      	strb	r2, [r3, #8]
    314a:	4b12      	ldr	r3, [pc, #72]	; (3194 <serial_set_flow_control+0xf8>)
    314c:	459b      	cmp	r11, r3
    314e:	d10a      	bne.n	3166 <serial_set_flow_control+0xca>
    3150:	b14c      	cbz	r4, 3166 <serial_set_flow_control+0xca>
    3152:	7c23      	ldrb	r3, [r4, #16]
    3154:	4640      	mov	r0, r8
    3156:	f043 0340 	orr.w	r3, r3, #64	; 0x40
    315a:	7423      	strb	r3, [r4, #16]
    315c:	490f      	ldr	r1, [pc, #60]	; (319c <serial_set_flow_control+0x100>)
    315e:	e8bd 4ff8 	ldmia.w	sp!, {r3, r4, r5, r6, r7, r8, r9, r10, r11, lr}
    3162:	f7fe b895 	b.w	1290 <pinmap_pinout>
    3166:	2438      	movs	r4, #56	; 0x38
    3168:	fb04 6007 	mla	r0, r4, r7, r6
    316c:	4641      	mov	r1, r8
    316e:	2200      	movs	r2, #0
    3170:	3004      	adds	r0, #4
    3172:	f7fe f84a 	bl	120a <gpio_init_out_ex>
    3176:	2201      	movs	r2, #1
    3178:	686b      	ldr	r3, [r5, #4]
    317a:	4628      	mov	r0, r5
    317c:	fb04 6603 	mla	r6, r4, r3, r6
    3180:	f886 2035 	strb.w	r2, [r6, #53]	; 0x35
    3184:	2100      	movs	r1, #0
    3186:	e8bd 4ff8 	ldmia.w	sp!, {r3, r4, r5, r6, r7, r8, r9, r10, r11, lr}
    318a:	f7ff bdd5 	b.w	2d38 <serial_irq_set_internal>
    318e:	e8bd 8ff8 	ldmia.w	sp!, {r3, r4, r5, r6, r7, r8, r9, r10, r11, pc}
    3192:	bf00      	nop
    3194:	40010000 	.word	0x40010000
    3198:	1000180c 	.word	0x1000180c
    319c:	00005a0c 	.word	0x00005a0c
    31a0:	000059e8 	.word	0x000059e8

000031a4 <serial_init>:
    31a4:	e92d 41f0 	stmdb	sp!, {r4, r5, r6, r7, r8, lr}
    31a8:	460f      	mov	r7, r1
    31aa:	4605      	mov	r5, r0
    31ac:	4946      	ldr	r1, [pc, #280]	; (32c8 <serial_init+0x124>)
    31ae:	4638      	mov	r0, r7
    31b0:	4616      	mov	r6, r2
    31b2:	f7fe f8a7 	bl	1304 <pinmap_peripheral>
    31b6:	4945      	ldr	r1, [pc, #276]	; (32cc <serial_init+0x128>)
    31b8:	4604      	mov	r4, r0
    31ba:	4630      	mov	r0, r6
    31bc:	f7fe f8a2 	bl	1304 <pinmap_peripheral>
    31c0:	4601      	mov	r1, r0
    31c2:	4620      	mov	r0, r4
    31c4:	f7fe f880 	bl	12c8 <pinmap_merge>
    31c8:	4b41      	ldr	r3, [pc, #260]	; (32d0 <serial_init+0x12c>)
    31ca:	4604      	mov	r4, r0
    31cc:	4298      	cmp	r0, r3
    31ce:	6028      	str	r0, [r5, #0]
    31d0:	d05d      	beq.n	328e <serial_init+0xea>
    31d2:	d847      	bhi.n	3264 <serial_init+0xc0>
    31d4:	f5a3 4380 	sub.w	r3, r3, #16384	; 0x4000
    31d8:	4298      	cmp	r0, r3
    31da:	d050      	beq.n	327e <serial_init+0xda>
    31dc:	2301      	movs	r3, #1
    31de:	f04f 0800 	mov.w	r8, #0
    31e2:	7223      	strb	r3, [r4, #8]
    31e4:	f44f 5116 	mov.w	r1, #9600	; 0x2580
    31e8:	4628      	mov	r0, r5
    31ea:	f8c4 8004 	str.w	r8, [r4, #4]
    31ee:	f7ff fe09 	bl	2e04 <serial_baud>
    31f2:	2203      	movs	r2, #3
    31f4:	682b      	ldr	r3, [r5, #0]
    31f6:	4934      	ldr	r1, [pc, #208]	; (32c8 <serial_init+0x124>)
    31f8:	731a      	strb	r2, [r3, #12]
    31fa:	4638      	mov	r0, r7
    31fc:	f7fe f848 	bl	1290 <pinmap_pinout>
    3200:	4932      	ldr	r1, [pc, #200]	; (32cc <serial_init+0x128>)
    3202:	4630      	mov	r0, r6
    3204:	f7fe f844 	bl	1290 <pinmap_pinout>
    3208:	1c7a      	adds	r2, r7, #1
    320a:	d003      	beq.n	3214 <serial_init+0x70>
    320c:	4641      	mov	r1, r8
    320e:	4638      	mov	r0, r7
    3210:	f7ff fd0b 	bl	2c2a <pin_mode>
    3214:	1c73      	adds	r3, r6, #1
    3216:	d003      	beq.n	3220 <serial_init+0x7c>
    3218:	2100      	movs	r1, #0
    321a:	4630      	mov	r0, r6
    321c:	f7ff fd05 	bl	2c2a <pin_mode>
    3220:	4b2b      	ldr	r3, [pc, #172]	; (32d0 <serial_init+0x12c>)
    3222:	429c      	cmp	r4, r3
    3224:	d04b      	beq.n	32be <serial_init+0x11a>
    3226:	d83e      	bhi.n	32a6 <serial_init+0x102>
    3228:	f5a3 4380 	sub.w	r3, r3, #16384	; 0x4000
    322c:	429c      	cmp	r4, r3
    322e:	d043      	beq.n	32b8 <serial_init+0x114>
    3230:	2138      	movs	r1, #56	; 0x38
    3232:	686a      	ldr	r2, [r5, #4]
    3234:	4b27      	ldr	r3, [pc, #156]	; (32d4 <serial_init+0x130>)
    3236:	4628      	mov	r0, r5
    3238:	fb01 3202 	mla	r2, r1, r2, r3
    323c:	f04f 33ff 	mov.w	r3, #4294967295	; 0xffffffff
    3240:	2100      	movs	r1, #0
    3242:	6053      	str	r3, [r2, #4]
    3244:	61d3      	str	r3, [r2, #28]
    3246:	461a      	mov	r2, r3
    3248:	f7ff ff28 	bl	309c <serial_set_flow_control>
    324c:	4b22      	ldr	r3, [pc, #136]	; (32d8 <serial_init+0x134>)
    324e:	429c      	cmp	r4, r3
    3250:	d106      	bne.n	3260 <serial_init+0xbc>
    3252:	2201      	movs	r2, #1
    3254:	4b21      	ldr	r3, [pc, #132]	; (32dc <serial_init+0x138>)
    3256:	6869      	ldr	r1, [r5, #4]
    3258:	601a      	str	r2, [r3, #0]
    325a:	6828      	ldr	r0, [r5, #0]
    325c:	4b20      	ldr	r3, [pc, #128]	; (32e0 <serial_init+0x13c>)
    325e:	c303      	stmia	r3!, {r0, r1}
    3260:	e8bd 81f0 	ldmia.w	sp!, {r4, r5, r6, r7, r8, pc}
    3264:	4b1f      	ldr	r3, [pc, #124]	; (32e4 <serial_init+0x140>)
    3266:	4298      	cmp	r0, r3
    3268:	d017      	beq.n	329a <serial_init+0xf6>
    326a:	f503 4380 	add.w	r3, r3, #16384	; 0x4000
    326e:	4298      	cmp	r0, r3
    3270:	d1b4      	bne.n	31dc <serial_init+0x38>
    3272:	4a1d      	ldr	r2, [pc, #116]	; (32e8 <serial_init+0x144>)
    3274:	f8d2 30c4 	ldr.w	r3, [r2, #196]	; 0xc4
    3278:	f043 7300 	orr.w	r3, r3, #33554432	; 0x2000000
    327c:	e004      	b.n	3288 <serial_init+0xe4>
    327e:	4a1a      	ldr	r2, [pc, #104]	; (32e8 <serial_init+0x144>)
    3280:	f8d2 30c4 	ldr.w	r3, [r2, #196]	; 0xc4
    3284:	f043 0308 	orr.w	r3, r3, #8
    3288:	f8c2 30c4 	str.w	r3, [r2, #196]	; 0xc4
    328c:	e7a6      	b.n	31dc <serial_init+0x38>
    328e:	4a16      	ldr	r2, [pc, #88]	; (32e8 <serial_init+0x144>)
    3290:	f8d2 30c4 	ldr.w	r3, [r2, #196]	; 0xc4
    3294:	f043 0310 	orr.w	r3, r3, #16
    3298:	e7f6      	b.n	3288 <serial_init+0xe4>
    329a:	4a13      	ldr	r2, [pc, #76]	; (32e8 <serial_init+0x144>)
    329c:	f8d2 30c4 	ldr.w	r3, [r2, #196]	; 0xc4
    32a0:	f043 7380 	orr.w	r3, r3, #16777216	; 0x1000000
    32a4:	e7f0      	b.n	3288 <serial_init+0xe4>
    32a6:	4b0f      	ldr	r3, [pc, #60]	; (32e4 <serial_init+0x140>)
    32a8:	429c      	cmp	r4, r3
    32aa:	d00a      	beq.n	32c2 <serial_init+0x11e>
    32ac:	f503 4380 	add.w	r3, r3, #16384	; 0x4000
    32b0:	429c      	cmp	r4, r3
    32b2:	d1bd      	bne.n	3230 <serial_init+0x8c>
    32b4:	2303      	movs	r3, #3
    32b6:	e000      	b.n	32ba <serial_init+0x116>
    32b8:	2300      	movs	r3, #0
    32ba:	606b      	str	r3, [r5, #4]
    32bc:	e7b8      	b.n	3230 <serial_init+0x8c>
    32be:	2301      	movs	r3, #1
    32c0:	e7fb      	b.n	32ba <serial_init+0x116>
    32c2:	2302      	movs	r3, #2
    32c4:	e7f9      	b.n	32ba <serial_init+0x116>
    32c6:	bf00      	nop
    32c8:	00005a9c 	.word	0x00005a9c
    32cc:	00005a30 	.word	0x00005a30
    32d0:	40010000 	.word	0x40010000
    32d4:	1000180c 	.word	0x1000180c
    32d8:	4000c000 	.word	0x4000c000
    32dc:	10001808 	.word	0x10001808
    32e0:	10002460 	.word	0x10002460
    32e4:	40098000 	.word	0x40098000
    32e8:	400fc000 	.word	0x400fc000

000032ec <__NVIC_SetVector>:
    32ec:	b530      	push	{r4, r5, lr}
    32ee:	4c0c      	ldr	r4, [pc, #48]	; (3320 <__NVIC_SetVector+0x34>)
    32f0:	68a2      	ldr	r2, [r4, #8]
    32f2:	68a4      	ldr	r4, [r4, #8]
    32f4:	4613      	mov	r3, r2
    32f6:	f1b4 5f80 	cmp.w	r4, #268435456	; 0x10000000
    32fa:	d20c      	bcs.n	3316 <__NVIC_SetVector+0x2a>
    32fc:	1f13      	subs	r3, r2, #4
    32fe:	4c09      	ldr	r4, [pc, #36]	; (3324 <__NVIC_SetVector+0x38>)
    3300:	4a09      	ldr	r2, [pc, #36]	; (3328 <__NVIC_SetVector+0x3c>)
    3302:	f853 5f04 	ldr.w	r5, [r3, #4]!
    3306:	f842 5f04 	str.w	r5, [r2, #4]!
    330a:	42a2      	cmp	r2, r4
    330c:	d1f9      	bne.n	3302 <__NVIC_SetVector+0x16>
    330e:	f04f 5380 	mov.w	r3, #268435456	; 0x10000000
    3312:	4a03      	ldr	r2, [pc, #12]	; (3320 <__NVIC_SetVector+0x34>)
    3314:	6093      	str	r3, [r2, #8]
    3316:	3010      	adds	r0, #16
    3318:	f843 1020 	str.w	r1, [r3, r0, lsl #2]
    331c:	bd30      	pop	{r4, r5, pc}
    331e:	bf00      	nop
    3320:	e000ed00 	.word	0xe000ed00
    3324:	100000c0 	.word	0x100000c0
    3328:	0ffffffc 	.word	0x0ffffffc

0000332c <SystemInit>:
    332c:	2220      	movs	r2, #32
    332e:	4b26      	ldr	r3, [pc, #152]	; (33c8 <SystemInit+0x9c>)
    3330:	f8c3 21a0 	str.w	r2, [r3, #416]	; 0x1a0
    3334:	f8d3 21a0 	ldr.w	r2, [r3, #416]	; 0x1a0
    3338:	0692      	lsls	r2, r2, #26
    333a:	d503      	bpl.n	3344 <SystemInit+0x18>
    333c:	f8d3 21a0 	ldr.w	r2, [r3, #416]	; 0x1a0
    3340:	0650      	lsls	r0, r2, #25
    3342:	d5fb      	bpl.n	333c <SystemInit+0x10>
    3344:	2202      	movs	r2, #2
    3346:	f8c3 2104 	str.w	r2, [r3, #260]	; 0x104
    334a:	2200      	movs	r2, #0
    334c:	2001      	movs	r0, #1
    334e:	f8c3 21a8 	str.w	r2, [r3, #424]	; 0x1a8
    3352:	f8c3 21ac 	str.w	r2, [r3, #428]	; 0x1ac
    3356:	220b      	movs	r2, #11
    3358:	f8c3 010c 	str.w	r0, [r3, #268]	; 0x10c
    335c:	21aa      	movs	r1, #170	; 0xaa
    335e:	f8c3 2084 	str.w	r2, [r3, #132]	; 0x84
    3362:	2255      	movs	r2, #85	; 0x55
    3364:	f8c3 108c 	str.w	r1, [r3, #140]	; 0x8c
    3368:	f8c3 208c 	str.w	r2, [r3, #140]	; 0x8c
    336c:	f8c3 0080 	str.w	r0, [r3, #128]	; 0x80
    3370:	f8c3 108c 	str.w	r1, [r3, #140]	; 0x8c
    3374:	f8c3 208c 	str.w	r2, [r3, #140]	; 0x8c
    3378:	4b13      	ldr	r3, [pc, #76]	; (33c8 <SystemInit+0x9c>)
    337a:	461a      	mov	r2, r3
    337c:	f8d3 1088 	ldr.w	r1, [r3, #136]	; 0x88
    3380:	0149      	lsls	r1, r1, #5
    3382:	d5fb      	bpl.n	337c <SystemInit+0x50>
    3384:	2103      	movs	r1, #3
    3386:	f8c3 1080 	str.w	r1, [r3, #128]	; 0x80
    338a:	21aa      	movs	r1, #170	; 0xaa
    338c:	f8c3 108c 	str.w	r1, [r3, #140]	; 0x8c
    3390:	2155      	movs	r1, #85	; 0x55
    3392:	f8c3 108c 	str.w	r1, [r3, #140]	; 0x8c
    3396:	f8d2 3088 	ldr.w	r3, [r2, #136]	; 0x88
    339a:	f013 7f40 	tst.w	r3, #50331648	; 0x3000000
    339e:	d0fa      	beq.n	3396 <SystemInit+0x6a>
    33a0:	2305      	movs	r3, #5
    33a2:	f8c2 3108 	str.w	r3, [r2, #264]	; 0x108
    33a6:	4b09      	ldr	r3, [pc, #36]	; (33cc <SystemInit+0xa0>)
    33a8:	f8c2 30c4 	str.w	r3, [r2, #196]	; 0xc4
    33ac:	2300      	movs	r3, #0
    33ae:	f8c2 31c8 	str.w	r3, [r2, #456]	; 0x1c8
    33b2:	6813      	ldr	r3, [r2, #0]
    33b4:	f423 4370 	bic.w	r3, r3, #61440	; 0xf000
    33b8:	f023 033a 	bic.w	r3, r3, #58	; 0x3a
    33bc:	f443 5340 	orr.w	r3, r3, #12288	; 0x3000
    33c0:	f043 033a 	orr.w	r3, r3, #58	; 0x3a
    33c4:	6013      	str	r3, [r2, #0]
    33c6:	4770      	bx	lr
    33c8:	400fc000 	.word	0x400fc000
    33cc:	042887de 	.word	0x042887de

000033d0 <mbed::Timer::start()>:
    33d0:	b510      	push	{r4, lr}
    33d2:	4604      	mov	r4, r0
    33d4:	f7fd ffbe 	bl	1354 <core_util_critical_section_enter>
    33d8:	6823      	ldr	r3, [r4, #0]
    33da:	b92b      	cbnz	r3, 33e8 <mbed::Timer::start()+0x18>
    33dc:	68e0      	ldr	r0, [r4, #12]
    33de:	f7fd ff54 	bl	128a <ticker_read>
    33e2:	2301      	movs	r3, #1
    33e4:	6060      	str	r0, [r4, #4]
    33e6:	6023      	str	r3, [r4, #0]
    33e8:	e8bd 4010 	ldmia.w	sp!, {r4, lr}
    33ec:	f7fd bfc8 	b.w	1380 <core_util_critical_section_exit>

000033f0 <mbed::Timer::slicetime()>:
    33f0:	b538      	push	{r3, r4, r5, lr}
    33f2:	4605      	mov	r5, r0
    33f4:	f7fd ffae 	bl	1354 <core_util_critical_section_enter>
    33f8:	682c      	ldr	r4, [r5, #0]
    33fa:	b124      	cbz	r4, 3406 <mbed::Timer::slicetime()+0x16>
    33fc:	68e8      	ldr	r0, [r5, #12]
    33fe:	f7fd ff44 	bl	128a <ticker_read>
    3402:	686c      	ldr	r4, [r5, #4]
    3404:	1b04      	subs	r4, r0, r4
    3406:	f7fd ffbb 	bl	1380 <core_util_critical_section_exit>
    340a:	4620      	mov	r0, r4
    340c:	bd38      	pop	{r3, r4, r5, pc}

0000340e <mbed::Timer::read_us()>:
    340e:	b538      	push	{r3, r4, r5, lr}
    3410:	4605      	mov	r5, r0
    3412:	f7fd ff9f 	bl	1354 <core_util_critical_section_enter>
    3416:	4628      	mov	r0, r5
    3418:	68ac      	ldr	r4, [r5, #8]
    341a:	f7ff ffe9 	bl	33f0 <mbed::Timer::slicetime()>
    341e:	4404      	add	r4, r0
    3420:	f7fd ffae 	bl	1380 <core_util_critical_section_exit>
    3424:	4620      	mov	r0, r4
    3426:	bd38      	pop	{r3, r4, r5, pc}

00003428 <mbed::Timer::read_ms()>:
    3428:	b508      	push	{r3, lr}
    342a:	f7ff fff0 	bl	340e <mbed::Timer::read_us()>
    342e:	f44f 737a 	mov.w	r3, #1000	; 0x3e8
    3432:	fb90 f0f3 	sdiv	r0, r0, r3
    3436:	bd08      	pop	{r3, pc}

00003438 <mbed::Timer::reset()>:
    3438:	b510      	push	{r4, lr}
    343a:	4604      	mov	r4, r0
    343c:	f7fd ff8a 	bl	1354 <core_util_critical_section_enter>
    3440:	68e0      	ldr	r0, [r4, #12]
    3442:	f7fd ff22 	bl	128a <ticker_read>
    3446:	2300      	movs	r3, #0
    3448:	6060      	str	r0, [r4, #4]
    344a:	60a3      	str	r3, [r4, #8]
    344c:	e8bd 4010 	ldmia.w	sp!, {r4, lr}
    3450:	f7fd bf96 	b.w	1380 <core_util_critical_section_exit>

00003454 <mbed::Timer::Timer()>:
    3454:	2300      	movs	r3, #0
    3456:	b510      	push	{r4, lr}
    3458:	6003      	str	r3, [r0, #0]
    345a:	6043      	str	r3, [r0, #4]
    345c:	6083      	str	r3, [r0, #8]
    345e:	4604      	mov	r4, r0
    3460:	f7fd fee6 	bl	1230 <get_us_ticker_data>
    3464:	60e0      	str	r0, [r4, #12]
    3466:	4620      	mov	r0, r4
    3468:	f7ff ffe6 	bl	3438 <mbed::Timer::reset()>
    346c:	4620      	mov	r0, r4
    346e:	bd10      	pop	{r4, pc}

00003470 <void mbed::Callback<void ()>::function_call<void (*)()>(void const*)>:
    3470:	6803      	ldr	r3, [r0, #0]
    3472:	4718      	bx	r3

00003474 <void mbed::Callback<void ()>::function_move<void (*)()>(void*, void const*)>:
    3474:	b108      	cbz	r0, 347a <void mbed::Callback<void ()>::function_move<void (*)()>(void*, void const*)+0x6>
    3476:	680b      	ldr	r3, [r1, #0]
    3478:	6003      	str	r3, [r0, #0]
    347a:	4770      	bx	lr

0000347c <void mbed::Callback<void ()>::function_dtor<void (*)()>(void*)>:
    347c:	4770      	bx	lr

0000347e <mbed::Callback<void ()>::operator=(mbed::Callback<void ()> const&)>:
    347e:	4288      	cmp	r0, r1
    3480:	b538      	push	{r3, r4, r5, lr}
    3482:	4604      	mov	r4, r0
    3484:	460d      	mov	r5, r1
    3486:	d00a      	beq.n	349e <mbed::Callback<void ()>::operator=(mbed::Callback<void ()> const&)+0x20>
    3488:	f7fd fcf3 	bl	e72 <mbed::Callback<void ()>::~Callback()>
    348c:	b13c      	cbz	r4, 349e <mbed::Callback<void ()>::operator=(mbed::Callback<void ()> const&)+0x20>
    348e:	68eb      	ldr	r3, [r5, #12]
    3490:	b11b      	cbz	r3, 349a <mbed::Callback<void ()>::operator=(mbed::Callback<void ()> const&)+0x1c>
    3492:	685b      	ldr	r3, [r3, #4]
    3494:	4629      	mov	r1, r5
    3496:	4620      	mov	r0, r4
    3498:	4798      	blx	r3
    349a:	68eb      	ldr	r3, [r5, #12]
    349c:	60e3      	str	r3, [r4, #12]
    349e:	4620      	mov	r0, r4
    34a0:	bd38      	pop	{r3, r4, r5, pc}

000034a2 <mbed::RawSerial::lock()>:
    34a2:	4770      	bx	lr

000034a4 <mbed::RawSerial::~RawSerial()>:
    34a4:	b510      	push	{r4, lr}
    34a6:	4604      	mov	r4, r0
    34a8:	4b02      	ldr	r3, [pc, #8]	; (34b4 <mbed::RawSerial::~RawSerial()+0x10>)
    34aa:	6003      	str	r3, [r0, #0]
    34ac:	f7fd fcea 	bl	e84 <mbed::SerialBase::~SerialBase()>
    34b0:	4620      	mov	r0, r4
    34b2:	bd10      	pop	{r4, pc}
    34b4:	00005b1c 	.word	0x00005b1c

000034b8 <mbed::RawSerial::~RawSerial()>:
    34b8:	b510      	push	{r4, lr}
    34ba:	4604      	mov	r4, r0
    34bc:	f7ff fff2 	bl	34a4 <mbed::RawSerial::~RawSerial()>
    34c0:	4620      	mov	r0, r4
    34c2:	f000 f9e7 	bl	3894 <operator delete(void*)>
    34c6:	4620      	mov	r0, r4
    34c8:	bd10      	pop	{r4, pc}
	...

000034cc <mbed::RawSerial::RawSerial(PinName, PinName, int)>:
    34cc:	b510      	push	{r4, lr}
    34ce:	4604      	mov	r4, r0
    34d0:	f000 f824 	bl	351c <mbed::SerialBase::SerialBase(PinName, PinName, int)>
    34d4:	4b01      	ldr	r3, [pc, #4]	; (34dc <mbed::RawSerial::RawSerial(PinName, PinName, int)+0x10>)
    34d6:	4620      	mov	r0, r4
    34d8:	6023      	str	r3, [r4, #0]
    34da:	bd10      	pop	{r4, pc}
    34dc:	00005b1c 	.word	0x00005b1c

000034e0 <mbed::donothing()>:
    34e0:	4770      	bx	lr

000034e2 <mbed::SerialBase::lock()>:
    34e2:	4770      	bx	lr

000034e4 <mbed::SerialBase::unlock()>:
    34e4:	4770      	bx	lr

000034e6 <mbed::SerialBase::_irq_handler(unsigned long, SerialIrq)>:
    34e6:	eb00 1201 	add.w	r2, r0, r1, lsl #4
    34ea:	6993      	ldr	r3, [r2, #24]
    34ec:	f102 000c 	add.w	r0, r2, #12
    34f0:	681b      	ldr	r3, [r3, #0]
    34f2:	4718      	bx	r3

000034f4 <mbed::SerialBase::baud(int)>:
    34f4:	b570      	push	{r4, r5, r6, lr}
    34f6:	4605      	mov	r5, r0
    34f8:	460e      	mov	r6, r1
    34fa:	4604      	mov	r4, r0
    34fc:	f855 3b04 	ldr.w	r3, [r5], #4
    3500:	681b      	ldr	r3, [r3, #0]
    3502:	4798      	blx	r3
    3504:	4628      	mov	r0, r5
    3506:	4631      	mov	r1, r6
    3508:	f7ff fc7c 	bl	2e04 <serial_baud>
    350c:	6823      	ldr	r3, [r4, #0]
    350e:	62e6      	str	r6, [r4, #44]	; 0x2c
    3510:	4620      	mov	r0, r4
    3512:	e8bd 4070 	ldmia.w	sp!, {r4, r5, r6, lr}
    3516:	685b      	ldr	r3, [r3, #4]
    3518:	4718      	bx	r3
	...

0000351c <mbed::SerialBase::SerialBase(PinName, PinName, int)>:
    351c:	e92d 41ff 	stmdb	sp!, {r0, r1, r2, r3, r4, r5, r6, r7, r8, lr}
    3520:	460f      	mov	r7, r1
    3522:	2100      	movs	r1, #0
    3524:	4604      	mov	r4, r0
    3526:	4690      	mov	r8, r2
    3528:	4a17      	ldr	r2, [pc, #92]	; (3588 <mbed::SerialBase::SerialBase(PinName, PinName, int)+0x6c>)
    352a:	4e18      	ldr	r6, [pc, #96]	; (358c <mbed::SerialBase::SerialBase(PinName, PinName, int)+0x70>)
    352c:	4d18      	ldr	r5, [pc, #96]	; (3590 <mbed::SerialBase::SerialBase(PinName, PinName, int)+0x74>)
    352e:	62c3      	str	r3, [r0, #44]	; 0x2c
    3530:	6002      	str	r2, [r0, #0]
    3532:	6041      	str	r1, [r0, #4]
    3534:	6081      	str	r1, [r0, #8]
    3536:	6181      	str	r1, [r0, #24]
    3538:	6281      	str	r1, [r0, #40]	; 0x28
    353a:	4669      	mov	r1, sp
    353c:	300c      	adds	r0, #12
    353e:	9503      	str	r5, [sp, #12]
    3540:	9600      	str	r6, [sp, #0]
    3542:	f7ff ff9c 	bl	347e <mbed::Callback<void ()>::operator=(mbed::Callback<void ()> const&)>
    3546:	4668      	mov	r0, sp
    3548:	f7fd fc93 	bl	e72 <mbed::Callback<void ()>::~Callback()>
    354c:	4669      	mov	r1, sp
    354e:	f104 001c 	add.w	r0, r4, #28
    3552:	9503      	str	r5, [sp, #12]
    3554:	9600      	str	r6, [sp, #0]
    3556:	1d25      	adds	r5, r4, #4
    3558:	f7ff ff91 	bl	347e <mbed::Callback<void ()>::operator=(mbed::Callback<void ()> const&)>
    355c:	4668      	mov	r0, sp
    355e:	f7fd fc88 	bl	e72 <mbed::Callback<void ()>::~Callback()>
    3562:	4642      	mov	r2, r8
    3564:	4639      	mov	r1, r7
    3566:	4628      	mov	r0, r5
    3568:	f7ff fe1c 	bl	31a4 <serial_init>
    356c:	6ae1      	ldr	r1, [r4, #44]	; 0x2c
    356e:	4628      	mov	r0, r5
    3570:	f7ff fc48 	bl	2e04 <serial_baud>
    3574:	4628      	mov	r0, r5
    3576:	4622      	mov	r2, r4
    3578:	4906      	ldr	r1, [pc, #24]	; (3594 <mbed::SerialBase::SerialBase(PinName, PinName, int)+0x78>)
    357a:	f7ff fd17 	bl	2fac <serial_irq_handler>
    357e:	4620      	mov	r0, r4
    3580:	b004      	add	sp, #16
    3582:	e8bd 81f0 	ldmia.w	sp!, {r4, r5, r6, r7, r8, pc}
    3586:	bf00      	nop
    3588:	00005b34 	.word	0x00005b34
    358c:	000034e1 	.word	0x000034e1
    3590:	00005b08 	.word	0x00005b08
    3594:	000034e7 	.word	0x000034e7

00003598 <mbed::SerialBase::attach(mbed::Callback<void ()>, mbed::SerialBase::IrqType)>:
    3598:	e92d 41ff 	stmdb	sp!, {r0, r1, r2, r3, r4, r5, r6, r7, r8, lr}
    359c:	4605      	mov	r5, r0
    359e:	4688      	mov	r8, r1
    35a0:	4616      	mov	r6, r2
    35a2:	f855 3b04 	ldr.w	r3, [r5], #4
    35a6:	4604      	mov	r4, r0
    35a8:	681b      	ldr	r3, [r3, #0]
    35aa:	4798      	blx	r3
    35ac:	f7fd fed2 	bl	1354 <core_util_critical_section_enter>
    35b0:	f8d8 700c 	ldr.w	r7, [r8, #12]
    35b4:	0130      	lsls	r0, r6, #4
    35b6:	b197      	cbz	r7, 35de <mbed::SerialBase::attach(mbed::Callback<void ()>, mbed::SerialBase::IrqType)+0x46>
    35b8:	300c      	adds	r0, #12
    35ba:	4641      	mov	r1, r8
    35bc:	4420      	add	r0, r4
    35be:	f7ff ff5e 	bl	347e <mbed::Callback<void ()>::operator=(mbed::Callback<void ()> const&)>
    35c2:	2201      	movs	r2, #1
    35c4:	4631      	mov	r1, r6
    35c6:	4628      	mov	r0, r5
    35c8:	f7ff fcfc 	bl	2fc4 <serial_irq_set>
    35cc:	f7fd fed8 	bl	1380 <core_util_critical_section_exit>
    35d0:	6823      	ldr	r3, [r4, #0]
    35d2:	4620      	mov	r0, r4
    35d4:	685b      	ldr	r3, [r3, #4]
    35d6:	4798      	blx	r3
    35d8:	b004      	add	sp, #16
    35da:	e8bd 81f0 	ldmia.w	sp!, {r4, r5, r6, r7, r8, pc}
    35de:	4b07      	ldr	r3, [pc, #28]	; (35fc <mbed::SerialBase::attach(mbed::Callback<void ()>, mbed::SerialBase::IrqType)+0x64>)
    35e0:	300c      	adds	r0, #12
    35e2:	9300      	str	r3, [sp, #0]
    35e4:	4b06      	ldr	r3, [pc, #24]	; (3600 <mbed::SerialBase::attach(mbed::Callback<void ()>, mbed::SerialBase::IrqType)+0x68>)
    35e6:	4669      	mov	r1, sp
    35e8:	4420      	add	r0, r4
    35ea:	9303      	str	r3, [sp, #12]
    35ec:	f7ff ff47 	bl	347e <mbed::Callback<void ()>::operator=(mbed::Callback<void ()> const&)>
    35f0:	4668      	mov	r0, sp
    35f2:	f7fd fc3e 	bl	e72 <mbed::Callback<void ()>::~Callback()>
    35f6:	463a      	mov	r2, r7
    35f8:	e7e4      	b.n	35c4 <mbed::SerialBase::attach(mbed::Callback<void ()>, mbed::SerialBase::IrqType)+0x2c>
    35fa:	bf00      	nop
    35fc:	000034e1 	.word	0x000034e1
    3600:	00005b08 	.word	0x00005b08

00003604 <__wrap__malloc_r>:
    3604:	f001 bb8c 	b.w	4d20 <_malloc_r>

00003608 <__wrap__realloc_r>:
    3608:	f001 bbe8 	b.w	4ddc <_realloc_r>

0000360c <__wrap__free_r>:
    360c:	f001 bb3c 	b.w	4c88 <_free_r>

00003610 <wait_us>:
    3610:	b570      	push	{r4, r5, r6, lr}
    3612:	4605      	mov	r5, r0
    3614:	f44f 747a 	mov.w	r4, #1000	; 0x3e8
    3618:	f7ff fa02 	bl	2a20 <us_ticker_read>
    361c:	fb95 f4f4 	sdiv	r4, r5, r4
    3620:	2c00      	cmp	r4, #0
    3622:	4606      	mov	r6, r0
    3624:	dd02      	ble.n	362c <wait_us+0x1c>
    3626:	f7fd fe8e 	bl	1346 <core_util_are_interrupts_enabled>
    362a:	b928      	cbnz	r0, 3638 <wait_us+0x28>
    362c:	f7ff f9f8 	bl	2a20 <us_ticker_read>
    3630:	1b80      	subs	r0, r0, r6
    3632:	42a8      	cmp	r0, r5
    3634:	d3fa      	bcc.n	362c <wait_us+0x1c>
    3636:	bd70      	pop	{r4, r5, r6, pc}
    3638:	4620      	mov	r0, r4
    363a:	f000 f935 	bl	38a8 <rtos::Thread::wait(unsigned long)>
    363e:	e7f5      	b.n	362c <wait_us+0x1c>

00003640 <wait_ms>:
    3640:	f44f 737a 	mov.w	r3, #1000	; 0x3e8
    3644:	4358      	muls	r0, r3
    3646:	f7ff bfe3 	b.w	3610 <wait_us>
	...

0000364c <init_serial()>:
    364c:	b508      	push	{r3, lr}
    364e:	4b08      	ldr	r3, [pc, #32]	; (3670 <init_serial()+0x24>)
    3650:	681b      	ldr	r3, [r3, #0]
    3652:	b95b      	cbnz	r3, 366c <init_serial()+0x20>
    3654:	4907      	ldr	r1, [pc, #28]	; (3674 <init_serial()+0x28>)
    3656:	4808      	ldr	r0, [pc, #32]	; (3678 <init_serial()+0x2c>)
    3658:	4a08      	ldr	r2, [pc, #32]	; (367c <init_serial()+0x30>)
    365a:	f7ff fda3 	bl	31a4 <serial_init>
    365e:	f44f 5116 	mov.w	r1, #9600	; 0x2580
    3662:	e8bd 4008 	ldmia.w	sp!, {r3, lr}
    3666:	4804      	ldr	r0, [pc, #16]	; (3678 <init_serial()+0x2c>)
    3668:	f7ff bbcc 	b.w	2e04 <serial_baud>
    366c:	bd08      	pop	{r3, pc}
    366e:	bf00      	nop
    3670:	10001808 	.word	0x10001808
    3674:	2009c002 	.word	0x2009c002
    3678:	10002460 	.word	0x10002460
    367c:	2009c003 	.word	0x2009c003

00003680 <mbed_sdk_init>:
    3680:	4770      	bx	lr
	...

00003684 <_close>:
    3684:	2802      	cmp	r0, #2
    3686:	b510      	push	{r4, lr}
    3688:	4604      	mov	r4, r0
    368a:	dc01      	bgt.n	3690 <_close+0xc>
    368c:	2000      	movs	r0, #0
    368e:	bd10      	pop	{r4, pc}
    3690:	f001 f8f6 	bl	4880 <__errno>
    3694:	2309      	movs	r3, #9
    3696:	2200      	movs	r2, #0
    3698:	6003      	str	r3, [r0, #0]
    369a:	4b09      	ldr	r3, [pc, #36]	; (36c0 <_close+0x3c>)
    369c:	3c03      	subs	r4, #3
    369e:	f853 0024 	ldr.w	r0, [r3, r4, lsl #2]
    36a2:	f843 2024 	str.w	r2, [r3, r4, lsl #2]
    36a6:	b140      	cbz	r0, 36ba <_close+0x36>
    36a8:	6803      	ldr	r3, [r0, #0]
    36aa:	691b      	ldr	r3, [r3, #16]
    36ac:	4798      	blx	r3
    36ae:	1e04      	subs	r4, r0, #0
    36b0:	daec      	bge.n	368c <_close+0x8>
    36b2:	f001 f8e5 	bl	4880 <__errno>
    36b6:	4264      	negs	r4, r4
    36b8:	6004      	str	r4, [r0, #0]
    36ba:	f04f 30ff 	mov.w	r0, #4294967295	; 0xffffffff
    36be:	bd10      	pop	{r4, pc}
    36c0:	100018ec 	.word	0x100018ec

000036c4 <_write>:
    36c4:	b5f8      	push	{r3, r4, r5, r6, r7, lr}
    36c6:	4605      	mov	r5, r0
    36c8:	460e      	mov	r6, r1
    36ca:	4614      	mov	r4, r2
    36cc:	f001 f8d8 	bl	4880 <__errno>
    36d0:	2309      	movs	r3, #9
    36d2:	2d02      	cmp	r5, #2
    36d4:	6003      	str	r3, [r0, #0]
    36d6:	dc0f      	bgt.n	36f8 <_write+0x34>
    36d8:	4b12      	ldr	r3, [pc, #72]	; (3724 <_write+0x60>)
    36da:	681b      	ldr	r3, [r3, #0]
    36dc:	b90b      	cbnz	r3, 36e2 <_write+0x1e>
    36de:	f7ff ffb5 	bl	364c <init_serial()>
    36e2:	4635      	mov	r5, r6
    36e4:	1937      	adds	r7, r6, r4
    36e6:	4e10      	ldr	r6, [pc, #64]	; (3728 <_write+0x64>)
    36e8:	42bd      	cmp	r5, r7
    36ea:	d015      	beq.n	3718 <_write+0x54>
    36ec:	f815 1b01 	ldrb.w	r1, [r5], #1
    36f0:	4630      	mov	r0, r6
    36f2:	f7ff fcbb 	bl	306c <serial_putc>
    36f6:	e7f7      	b.n	36e8 <_write+0x24>
    36f8:	4b0c      	ldr	r3, [pc, #48]	; (372c <_write+0x68>)
    36fa:	3d03      	subs	r5, #3
    36fc:	f853 0025 	ldr.w	r0, [r3, r5, lsl #2]
    3700:	b160      	cbz	r0, 371c <_write+0x58>
    3702:	6803      	ldr	r3, [r0, #0]
    3704:	4622      	mov	r2, r4
    3706:	68db      	ldr	r3, [r3, #12]
    3708:	4631      	mov	r1, r6
    370a:	4798      	blx	r3
    370c:	1e04      	subs	r4, r0, #0
    370e:	da03      	bge.n	3718 <_write+0x54>
    3710:	f001 f8b6 	bl	4880 <__errno>
    3714:	4263      	negs	r3, r4
    3716:	6003      	str	r3, [r0, #0]
    3718:	4620      	mov	r0, r4
    371a:	bdf8      	pop	{r3, r4, r5, r6, r7, pc}
    371c:	f04f 34ff 	mov.w	r4, #4294967295	; 0xffffffff
    3720:	e7fa      	b.n	3718 <_write+0x54>
    3722:	bf00      	nop
    3724:	10001808 	.word	0x10001808
    3728:	10002460 	.word	0x10002460
    372c:	100018ec 	.word	0x100018ec

00003730 <_read>:
    3730:	b570      	push	{r4, r5, r6, lr}
    3732:	4604      	mov	r4, r0
    3734:	460d      	mov	r5, r1
    3736:	4616      	mov	r6, r2
    3738:	f001 f8a2 	bl	4880 <__errno>
    373c:	2309      	movs	r3, #9
    373e:	2c02      	cmp	r4, #2
    3740:	6003      	str	r3, [r0, #0]
    3742:	dc0b      	bgt.n	375c <_read+0x2c>
    3744:	4b0f      	ldr	r3, [pc, #60]	; (3784 <_read+0x54>)
    3746:	681b      	ldr	r3, [r3, #0]
    3748:	b90b      	cbnz	r3, 374e <_read+0x1e>
    374a:	f7ff ff7f 	bl	364c <init_serial()>
    374e:	480e      	ldr	r0, [pc, #56]	; (3788 <_read+0x58>)
    3750:	f7ff fc46 	bl	2fe0 <serial_getc>
    3754:	2401      	movs	r4, #1
    3756:	7028      	strb	r0, [r5, #0]
    3758:	4620      	mov	r0, r4
    375a:	bd70      	pop	{r4, r5, r6, pc}
    375c:	4b0b      	ldr	r3, [pc, #44]	; (378c <_read+0x5c>)
    375e:	3c03      	subs	r4, #3
    3760:	f853 0024 	ldr.w	r0, [r3, r4, lsl #2]
    3764:	b158      	cbz	r0, 377e <_read+0x4e>
    3766:	6803      	ldr	r3, [r0, #0]
    3768:	4632      	mov	r2, r6
    376a:	689b      	ldr	r3, [r3, #8]
    376c:	4629      	mov	r1, r5
    376e:	4798      	blx	r3
    3770:	1e04      	subs	r4, r0, #0
    3772:	daf1      	bge.n	3758 <_read+0x28>
    3774:	f001 f884 	bl	4880 <__errno>
    3778:	4263      	negs	r3, r4
    377a:	6003      	str	r3, [r0, #0]
    377c:	e7ec      	b.n	3758 <_read+0x28>
    377e:	f04f 34ff 	mov.w	r4, #4294967295	; 0xffffffff
    3782:	e7e9      	b.n	3758 <_read+0x28>
    3784:	10001808 	.word	0x10001808
    3788:	10002460 	.word	0x10002460
    378c:	100018ec 	.word	0x100018ec

00003790 <_lseek>:
    3790:	b570      	push	{r4, r5, r6, lr}
    3792:	4604      	mov	r4, r0
    3794:	460d      	mov	r5, r1
    3796:	4616      	mov	r6, r2
    3798:	f001 f872 	bl	4880 <__errno>
    379c:	2309      	movs	r3, #9
    379e:	2c02      	cmp	r4, #2
    37a0:	6003      	str	r3, [r0, #0]
    37a2:	dd0b      	ble.n	37bc <_lseek+0x2c>
    37a4:	4b08      	ldr	r3, [pc, #32]	; (37c8 <_lseek+0x38>)
    37a6:	3c03      	subs	r4, #3
