
KL25Z/rosserial_mbed_PumpControl.elf:     file format elf32-littlearm
architecture: arm, flags 0x00000112:
EXEC_P, HAS_SYMS, D_PAGED
start address 0x000000c1


Disassembly of section .isr_vector:

00000000 <__isr_vector>:
   0:	20003000 	.word	0x20003000
   4:	000000c1 	.word	0x000000c1
   8:	000039b7 	.word	0x000039b7
   c:	00004103 	.word	0x00004103
	...
  2c:	0000400b 	.word	0x0000400b
	...
  38:	00004091 	.word	0x00004091
  3c:	000040d9 	.word	0x000040d9
  40:	0000410b 	.word	0x0000410b
  44:	0000410b 	.word	0x0000410b
  48:	0000410b 	.word	0x0000410b
  4c:	0000410b 	.word	0x0000410b
  50:	0000410b 	.word	0x0000410b
  54:	0000410b 	.word	0x0000410b
  58:	0000410b 	.word	0x0000410b
  5c:	0000410b 	.word	0x0000410b
  60:	0000410b 	.word	0x0000410b
  64:	0000410b 	.word	0x0000410b
  68:	0000410b 	.word	0x0000410b
  6c:	0000410b 	.word	0x0000410b
  70:	0000410b 	.word	0x0000410b
  74:	0000410b 	.word	0x0000410b
  78:	0000410b 	.word	0x0000410b
  7c:	0000410b 	.word	0x0000410b
  80:	0000410b 	.word	0x0000410b
  84:	0000410b 	.word	0x0000410b
  88:	0000410b 	.word	0x0000410b
  8c:	0000410b 	.word	0x0000410b
  90:	0000410b 	.word	0x0000410b
  94:	0000410b 	.word	0x0000410b
  98:	0000410b 	.word	0x0000410b
  9c:	0000410b 	.word	0x0000410b
  a0:	0000410b 	.word	0x0000410b
  a4:	0000410b 	.word	0x0000410b
  a8:	0000410b 	.word	0x0000410b
  ac:	0000410b 	.word	0x0000410b
  b0:	0000410b 	.word	0x0000410b
  b4:	0000410b 	.word	0x0000410b
  b8:	0000410b 	.word	0x0000410b
  bc:	0000410b 	.word	0x0000410b

000000c0 <Reset_Handler>:
  c0:	4907      	ldr	r1, [pc, #28]	; (e0 <Reset_Handler+0x20>)
  c2:	4a08      	ldr	r2, [pc, #32]	; (e4 <Reset_Handler+0x24>)
  c4:	4b08      	ldr	r3, [pc, #32]	; (e8 <Reset_Handler+0x28>)
  c6:	1a9b      	subs	r3, r3, r2
  c8:	dd05      	ble.n	d6 <Reset_Handler+0x16>
  ca:	2400      	movs	r4, #0
  cc:	5908      	ldr	r0, [r1, r4]
  ce:	5110      	str	r0, [r2, r4]
  d0:	3404      	adds	r4, #4
  d2:	429c      	cmp	r4, r3
  d4:	dbfa      	blt.n	cc <Reset_Handler+0xc>
  d6:	4805      	ldr	r0, [pc, #20]	; (ec <Reset_Handler+0x2c>)
  d8:	4780      	blx	r0
  da:	4805      	ldr	r0, [pc, #20]	; (f0 <Reset_Handler+0x30>)
  dc:	4700      	bx	r0
  de:	0000      	.short	0x0000
  e0:	00007b58 	.word	0x00007b58
  e4:	1ffff0c0 	.word	0x1ffff0c0
  e8:	1ffff158 	.word	0x1ffff158
  ec:	000039c5 	.word	0x000039c5
  f0:	0000125d 	.word	0x0000125d

Disassembly of section .text:

00000410 <__do_global_dtors_aux>:
     410:	b510      	push	{r4, lr}
     412:	4c06      	ldr	r4, [pc, #24]	; (42c <__do_global_dtors_aux+0x1c>)
     414:	7823      	ldrb	r3, [r4, #0]
     416:	2b00      	cmp	r3, #0
     418:	d107      	bne.n	42a <__do_global_dtors_aux+0x1a>
     41a:	4b05      	ldr	r3, [pc, #20]	; (430 <__do_global_dtors_aux+0x20>)
     41c:	2b00      	cmp	r3, #0
     41e:	d002      	beq.n	426 <__do_global_dtors_aux+0x16>
     420:	4804      	ldr	r0, [pc, #16]	; (434 <__do_global_dtors_aux+0x24>)
     422:	e000      	b.n	426 <__do_global_dtors_aux+0x16>
     424:	bf00      	nop
     426:	2301      	movs	r3, #1
     428:	7023      	strb	r3, [r4, #0]
     42a:	bd10      	pop	{r4, pc}
     42c:	1ffff158 	.word	0x1ffff158
     430:	00000000 	.word	0x00000000
     434:	00007b4c 	.word	0x00007b4c

00000438 <frame_dummy>:
     438:	4b08      	ldr	r3, [pc, #32]	; (45c <frame_dummy+0x24>)
     43a:	b510      	push	{r4, lr}
     43c:	2b00      	cmp	r3, #0
     43e:	d003      	beq.n	448 <frame_dummy+0x10>
     440:	4907      	ldr	r1, [pc, #28]	; (460 <frame_dummy+0x28>)
     442:	4808      	ldr	r0, [pc, #32]	; (464 <frame_dummy+0x2c>)
     444:	e000      	b.n	448 <frame_dummy+0x10>
     446:	bf00      	nop
     448:	4807      	ldr	r0, [pc, #28]	; (468 <frame_dummy+0x30>)
     44a:	6803      	ldr	r3, [r0, #0]
     44c:	2b00      	cmp	r3, #0
     44e:	d100      	bne.n	452 <frame_dummy+0x1a>
     450:	bd10      	pop	{r4, pc}
     452:	4b06      	ldr	r3, [pc, #24]	; (46c <frame_dummy+0x34>)
     454:	2b00      	cmp	r3, #0
     456:	d0fb      	beq.n	450 <frame_dummy+0x18>
     458:	4798      	blx	r3
     45a:	e7f9      	b.n	450 <frame_dummy+0x18>
     45c:	00000000 	.word	0x00000000
     460:	1ffff15c 	.word	0x1ffff15c
     464:	00007b4c 	.word	0x00007b4c
     468:	1ffff158 	.word	0x1ffff158
     46c:	00000000 	.word	0x00000000

00000470 <std_msgs::Time::serialize(unsigned char*) const>:
     470:	7903      	ldrb	r3, [r0, #4]
     472:	700b      	strb	r3, [r1, #0]
     474:	6843      	ldr	r3, [r0, #4]
     476:	0a1b      	lsrs	r3, r3, #8
     478:	704b      	strb	r3, [r1, #1]
     47a:	6843      	ldr	r3, [r0, #4]
     47c:	0c1b      	lsrs	r3, r3, #16
     47e:	708b      	strb	r3, [r1, #2]
     480:	6843      	ldr	r3, [r0, #4]
     482:	0e1b      	lsrs	r3, r3, #24
     484:	70cb      	strb	r3, [r1, #3]
     486:	7a03      	ldrb	r3, [r0, #8]
     488:	710b      	strb	r3, [r1, #4]
     48a:	6883      	ldr	r3, [r0, #8]
     48c:	0a1b      	lsrs	r3, r3, #8
     48e:	714b      	strb	r3, [r1, #5]
     490:	6883      	ldr	r3, [r0, #8]
     492:	0c1b      	lsrs	r3, r3, #16
     494:	718b      	strb	r3, [r1, #6]
     496:	6883      	ldr	r3, [r0, #8]
     498:	2008      	movs	r0, #8
     49a:	0e1b      	lsrs	r3, r3, #24
     49c:	71cb      	strb	r3, [r1, #7]
     49e:	4770      	bx	lr

000004a0 <std_msgs::Time::deserialize(unsigned char*)>:
     4a0:	780a      	ldrb	r2, [r1, #0]
     4a2:	6042      	str	r2, [r0, #4]
     4a4:	784b      	ldrb	r3, [r1, #1]
     4a6:	021b      	lsls	r3, r3, #8
     4a8:	431a      	orrs	r2, r3
     4aa:	6042      	str	r2, [r0, #4]
     4ac:	788b      	ldrb	r3, [r1, #2]
     4ae:	041b      	lsls	r3, r3, #16
     4b0:	4313      	orrs	r3, r2
     4b2:	6043      	str	r3, [r0, #4]
     4b4:	78ca      	ldrb	r2, [r1, #3]
     4b6:	0612      	lsls	r2, r2, #24
     4b8:	4313      	orrs	r3, r2
     4ba:	6043      	str	r3, [r0, #4]
     4bc:	790a      	ldrb	r2, [r1, #4]
     4be:	6082      	str	r2, [r0, #8]
     4c0:	794b      	ldrb	r3, [r1, #5]
     4c2:	021b      	lsls	r3, r3, #8
     4c4:	431a      	orrs	r2, r3
     4c6:	6082      	str	r2, [r0, #8]
     4c8:	798b      	ldrb	r3, [r1, #6]
     4ca:	041b      	lsls	r3, r3, #16
     4cc:	4313      	orrs	r3, r2
     4ce:	6083      	str	r3, [r0, #8]
     4d0:	79ca      	ldrb	r2, [r1, #7]
     4d2:	0612      	lsls	r2, r2, #24
     4d4:	4313      	orrs	r3, r2
     4d6:	6083      	str	r3, [r0, #8]
     4d8:	2008      	movs	r0, #8
     4da:	4770      	bx	lr

000004dc <std_msgs::Time::getType()>:
     4dc:	4800      	ldr	r0, [pc, #0]	; (4e0 <std_msgs::Time::getType()+0x4>)
     4de:	4770      	bx	lr
     4e0:	000074f8 	.word	0x000074f8

000004e4 <std_msgs::Time::getMD5()>:
     4e4:	4800      	ldr	r0, [pc, #0]	; (4e8 <std_msgs::Time::getMD5()+0x4>)
     4e6:	4770      	bx	lr
     4e8:	000074d7 	.word	0x000074d7

000004ec <rosserial_msgs::TopicInfo::getType()>:
     4ec:	4800      	ldr	r0, [pc, #0]	; (4f0 <rosserial_msgs::TopicInfo::getType()+0x4>)
     4ee:	4770      	bx	lr
     4f0:	00007469 	.word	0x00007469

000004f4 <rosserial_msgs::TopicInfo::getMD5()>:
     4f4:	4800      	ldr	r0, [pc, #0]	; (4f8 <rosserial_msgs::TopicInfo::getMD5()+0x4>)
     4f6:	4770      	bx	lr
     4f8:	00007448 	.word	0x00007448

000004fc <rosserial_msgs::Log::getType()>:
     4fc:	4800      	ldr	r0, [pc, #0]	; (500 <rosserial_msgs::Log::getType()+0x4>)
     4fe:	4770      	bx	lr
     500:	00007435 	.word	0x00007435

00000504 <rosserial_msgs::Log::getMD5()>:
     504:	4800      	ldr	r0, [pc, #0]	; (508 <rosserial_msgs::Log::getMD5()+0x4>)
     506:	4770      	bx	lr
     508:	00007414 	.word	0x00007414

0000050c <rosserial_msgs::RequestParamResponse::getType()>:
     50c:	4800      	ldr	r0, [pc, #0]	; (510 <rosserial_msgs::RequestParamResponse::getType()+0x4>)
     50e:	4770      	bx	lr
     510:	00007482 	.word	0x00007482

00000514 <rosserial_msgs::RequestParamResponse::getMD5()>:
     514:	4800      	ldr	r0, [pc, #0]	; (518 <rosserial_msgs::RequestParamResponse::getMD5()+0x4>)
     516:	4770      	bx	lr
     518:	000073f3 	.word	0x000073f3

0000051c <std_msgs::UInt16::serialize(unsigned char*) const>:
     51c:	8883      	ldrh	r3, [r0, #4]
     51e:	700b      	strb	r3, [r1, #0]
     520:	8883      	ldrh	r3, [r0, #4]
     522:	2002      	movs	r0, #2
     524:	0a1b      	lsrs	r3, r3, #8
     526:	704b      	strb	r3, [r1, #1]
     528:	4770      	bx	lr

0000052a <std_msgs::UInt16::deserialize(unsigned char*)>:
     52a:	780b      	ldrb	r3, [r1, #0]
     52c:	8083      	strh	r3, [r0, #4]
     52e:	784a      	ldrb	r2, [r1, #1]
     530:	0212      	lsls	r2, r2, #8
     532:	4313      	orrs	r3, r2
     534:	8083      	strh	r3, [r0, #4]
     536:	2002      	movs	r0, #2
     538:	4770      	bx	lr
	...

0000053c <std_msgs::UInt16::getType()>:
     53c:	4800      	ldr	r0, [pc, #0]	; (540 <std_msgs::UInt16::getType()+0x4>)
     53e:	4770      	bx	lr
     540:	00007527 	.word	0x00007527

00000544 <std_msgs::UInt16::getMD5()>:
     544:	4800      	ldr	r0, [pc, #0]	; (548 <std_msgs::UInt16::getMD5()+0x4>)
     546:	4770      	bx	lr
     548:	00007506 	.word	0x00007506

0000054c <ros::Subscriber<std_msgs::UInt16, void>::callback(unsigned char*)>:
     54c:	b570      	push	{r4, r5, r6, lr}
     54e:	0004      	movs	r4, r0
     550:	0005      	movs	r5, r0
     552:	340c      	adds	r4, #12
     554:	0020      	movs	r0, r4
     556:	f7ff ffe8 	bl	52a <std_msgs::UInt16::deserialize(unsigned char*)>
     55a:	696b      	ldr	r3, [r5, #20]
     55c:	0020      	movs	r0, r4
     55e:	4798      	blx	r3
     560:	bd70      	pop	{r4, r5, r6, pc}

00000562 <ros::Subscriber<std_msgs::UInt16, void>::getEndpointType()>:
     562:	6980      	ldr	r0, [r0, #24]
     564:	4770      	bx	lr
	...

00000568 <ros::Subscriber<std_msgs::UInt16, void>::getMsgType()>:
     568:	4800      	ldr	r0, [pc, #0]	; (56c <ros::Subscriber<std_msgs::UInt16, void>::getMsgType()+0x4>)
     56a:	4770      	bx	lr
     56c:	00007527 	.word	0x00007527

00000570 <ros::Subscriber<std_msgs::UInt16, void>::getMsgMD5()>:
     570:	4800      	ldr	r0, [pc, #0]	; (574 <ros::Subscriber<std_msgs::UInt16, void>::getMsgMD5()+0x4>)
     572:	4770      	bx	lr
     574:	00007506 	.word	0x00007506

00000578 <ros::NodeHandle_<MbedHardware, 25, 25, 512, 512>::connected()>:
     578:	4b01      	ldr	r3, [pc, #4]	; (580 <ros::NodeHandle_<MbedHardware, 25, 25, 512, 512>::connected()+0x8>)
     57a:	5cc0      	ldrb	r0, [r0, r3]
     57c:	4770      	bx	lr
     57e:	46c0      	nop			; (mov r8, r8)
     580:	0000055c 	.word	0x0000055c

00000584 <pump_cb(std_msgs::UInt16 const&)>:
     584:	b510      	push	{r4, lr}
     586:	8880      	ldrh	r0, [r0, #4]
     588:	f004 fe36 	bl	51f8 <__aeabi_ui2f>
     58c:	1c01      	adds	r1, r0, #0
     58e:	4807      	ldr	r0, [pc, #28]	; (5ac <pump_cb(std_msgs::UInt16 const&)+0x28>)
     590:	f000 fe2c 	bl	11ec <Servo::position(float)>
     594:	4b06      	ldr	r3, [pc, #24]	; (5b0 <pump_cb(std_msgs::UInt16 const&)+0x2c>)
     596:	695a      	ldr	r2, [r3, #20]
     598:	6811      	ldr	r1, [r2, #0]
     59a:	685a      	ldr	r2, [r3, #4]
     59c:	420a      	tst	r2, r1
     59e:	d102      	bne.n	5a6 <pump_cb(std_msgs::UInt16 const&)+0x22>
     5a0:	68db      	ldr	r3, [r3, #12]
     5a2:	601a      	str	r2, [r3, #0]
     5a4:	bd10      	pop	{r4, pc}
     5a6:	691b      	ldr	r3, [r3, #16]
     5a8:	e7fb      	b.n	5a2 <pump_cb(std_msgs::UInt16 const&)+0x1e>
     5aa:	46c0      	nop			; (mov r8, r8)
     5ac:	1ffff70c 	.word	0x1ffff70c
     5b0:	1ffff724 	.word	0x1ffff724

000005b4 <valve_cb(std_msgs::UInt16 const&)>:
     5b4:	b510      	push	{r4, lr}
     5b6:	8880      	ldrh	r0, [r0, #4]
     5b8:	f004 fe1e 	bl	51f8 <__aeabi_ui2f>
     5bc:	1c01      	adds	r1, r0, #0
     5be:	4807      	ldr	r0, [pc, #28]	; (5dc <valve_cb(std_msgs::UInt16 const&)+0x28>)
     5c0:	f000 fe14 	bl	11ec <Servo::position(float)>
     5c4:	4b06      	ldr	r3, [pc, #24]	; (5e0 <valve_cb(std_msgs::UInt16 const&)+0x2c>)
     5c6:	695a      	ldr	r2, [r3, #20]
     5c8:	6811      	ldr	r1, [r2, #0]
     5ca:	685a      	ldr	r2, [r3, #4]
     5cc:	420a      	tst	r2, r1
     5ce:	d102      	bne.n	5d6 <valve_cb(std_msgs::UInt16 const&)+0x22>
     5d0:	68db      	ldr	r3, [r3, #12]
     5d2:	601a      	str	r2, [r3, #0]
     5d4:	bd10      	pop	{r4, pc}
     5d6:	691b      	ldr	r3, [r3, #16]
     5d8:	e7fb      	b.n	5d2 <valve_cb(std_msgs::UInt16 const&)+0x1e>
     5da:	46c0      	nop			; (mov r8, r8)
     5dc:	1ffff758 	.word	0x1ffff758
     5e0:	1ffff770 	.word	0x1ffff770

000005e4 <void ros::Msg::varToArr<unsigned char*, unsigned long>(unsigned char*, unsigned long)>:
     5e4:	2300      	movs	r3, #0
     5e6:	b510      	push	{r4, lr}
     5e8:	000c      	movs	r4, r1
     5ea:	00da      	lsls	r2, r3, #3
     5ec:	40d4      	lsrs	r4, r2
     5ee:	54c4      	strb	r4, [r0, r3]
     5f0:	3301      	adds	r3, #1
     5f2:	2b04      	cmp	r3, #4
     5f4:	d1f8      	bne.n	5e8 <void ros::Msg::varToArr<unsigned char*, unsigned long>(unsigned char*, unsigned long)+0x4>
     5f6:	bd10      	pop	{r4, pc}

000005f8 <rosserial_msgs::RequestParamResponse::serialize(unsigned char*) const>:
     5f8:	7903      	ldrb	r3, [r0, #4]
     5fa:	b5f7      	push	{r0, r1, r2, r4, r5, r6, r7, lr}
     5fc:	700b      	strb	r3, [r1, #0]
     5fe:	6843      	ldr	r3, [r0, #4]
     600:	000d      	movs	r5, r1
     602:	0a1b      	lsrs	r3, r3, #8
     604:	704b      	strb	r3, [r1, #1]
     606:	6843      	ldr	r3, [r0, #4]
     608:	1d0a      	adds	r2, r1, #4
     60a:	0c1b      	lsrs	r3, r3, #16
     60c:	708b      	strb	r3, [r1, #2]
     60e:	6843      	ldr	r3, [r0, #4]
     610:	0004      	movs	r4, r0
     612:	0e1b      	lsrs	r3, r3, #24
     614:	70cb      	strb	r3, [r1, #3]
     616:	2100      	movs	r1, #0
     618:	6860      	ldr	r0, [r4, #4]
     61a:	1b53      	subs	r3, r2, r5
     61c:	4281      	cmp	r1, r0
     61e:	d20c      	bcs.n	63a <rosserial_msgs::RequestParamResponse::serialize(unsigned char*) const+0x42>
     620:	68e0      	ldr	r0, [r4, #12]
     622:	008b      	lsls	r3, r1, #2
     624:	581b      	ldr	r3, [r3, r0]
     626:	3101      	adds	r1, #1
     628:	0a18      	lsrs	r0, r3, #8
     62a:	7013      	strb	r3, [r2, #0]
     62c:	7050      	strb	r0, [r2, #1]
     62e:	0c18      	lsrs	r0, r3, #16
     630:	0e1b      	lsrs	r3, r3, #24
     632:	7090      	strb	r0, [r2, #2]
     634:	70d3      	strb	r3, [r2, #3]
     636:	3204      	adds	r2, #4
     638:	e7ee      	b.n	618 <rosserial_msgs::RequestParamResponse::serialize(unsigned char*) const+0x20>
     63a:	7c22      	ldrb	r2, [r4, #16]
     63c:	54ea      	strb	r2, [r5, r3]
     63e:	6921      	ldr	r1, [r4, #16]
     640:	18ea      	adds	r2, r5, r3
     642:	0a09      	lsrs	r1, r1, #8
     644:	7051      	strb	r1, [r2, #1]
     646:	6921      	ldr	r1, [r4, #16]
     648:	3304      	adds	r3, #4
     64a:	0c09      	lsrs	r1, r1, #16
     64c:	7091      	strb	r1, [r2, #2]
     64e:	6921      	ldr	r1, [r4, #16]
     650:	18eb      	adds	r3, r5, r3
     652:	0e09      	lsrs	r1, r1, #24
     654:	70d1      	strb	r1, [r2, #3]
     656:	2100      	movs	r1, #0
     658:	6922      	ldr	r2, [r4, #16]
     65a:	1b5e      	subs	r6, r3, r5
     65c:	4291      	cmp	r1, r2
     65e:	d20c      	bcs.n	67a <rosserial_msgs::RequestParamResponse::serialize(unsigned char*) const+0x82>
     660:	69a0      	ldr	r0, [r4, #24]
     662:	008a      	lsls	r2, r1, #2
     664:	5812      	ldr	r2, [r2, r0]
     666:	3101      	adds	r1, #1
     668:	0a10      	lsrs	r0, r2, #8
     66a:	701a      	strb	r2, [r3, #0]
     66c:	7058      	strb	r0, [r3, #1]
     66e:	0c10      	lsrs	r0, r2, #16
     670:	0e12      	lsrs	r2, r2, #24
     672:	7098      	strb	r0, [r3, #2]
     674:	70da      	strb	r2, [r3, #3]
     676:	3304      	adds	r3, #4
     678:	e7ee      	b.n	658 <rosserial_msgs::RequestParamResponse::serialize(unsigned char*) const+0x60>
     67a:	2700      	movs	r7, #0
     67c:	7f23      	ldrb	r3, [r4, #28]
     67e:	55ab      	strb	r3, [r5, r6]
     680:	69e2      	ldr	r2, [r4, #28]
     682:	19ab      	adds	r3, r5, r6
     684:	0a12      	lsrs	r2, r2, #8
     686:	705a      	strb	r2, [r3, #1]
     688:	69e2      	ldr	r2, [r4, #28]
     68a:	3604      	adds	r6, #4
     68c:	0c12      	lsrs	r2, r2, #16
     68e:	709a      	strb	r2, [r3, #2]
     690:	69e2      	ldr	r2, [r4, #28]
     692:	0e12      	lsrs	r2, r2, #24
     694:	70da      	strb	r2, [r3, #3]
     696:	69e3      	ldr	r3, [r4, #28]
     698:	429f      	cmp	r7, r3
     69a:	d215      	bcs.n	6c8 <rosserial_msgs::RequestParamResponse::serialize(unsigned char*) const+0xd0>
     69c:	6a63      	ldr	r3, [r4, #36]	; 0x24
     69e:	00ba      	lsls	r2, r7, #2
     6a0:	5898      	ldr	r0, [r3, r2]
     6a2:	f006 fc5b 	bl	6f5c <strlen>
     6a6:	9001      	str	r0, [sp, #4]
     6a8:	9901      	ldr	r1, [sp, #4]
     6aa:	19a8      	adds	r0, r5, r6
     6ac:	f7ff ff9a 	bl	5e4 <void ros::Msg::varToArr<unsigned char*, unsigned long>(unsigned char*, unsigned long)>
     6b0:	6a63      	ldr	r3, [r4, #36]	; 0x24
     6b2:	00ba      	lsls	r2, r7, #2
     6b4:	3604      	adds	r6, #4
     6b6:	5899      	ldr	r1, [r3, r2]
     6b8:	19a8      	adds	r0, r5, r6
     6ba:	9a01      	ldr	r2, [sp, #4]
     6bc:	f006 f96d 	bl	699a <memcpy>
     6c0:	9b01      	ldr	r3, [sp, #4]
     6c2:	3701      	adds	r7, #1
     6c4:	199e      	adds	r6, r3, r6
     6c6:	e7e6      	b.n	696 <rosserial_msgs::RequestParamResponse::serialize(unsigned char*) const+0x9e>
     6c8:	0030      	movs	r0, r6
     6ca:	bdfe      	pop	{r1, r2, r3, r4, r5, r6, r7, pc}

000006cc <rosserial_msgs::Log::serialize(unsigned char*) const>:
     6cc:	b570      	push	{r4, r5, r6, lr}
     6ce:	7903      	ldrb	r3, [r0, #4]
     6d0:	0006      	movs	r6, r0
     6d2:	700b      	strb	r3, [r1, #0]
     6d4:	6880      	ldr	r0, [r0, #8]
     6d6:	000d      	movs	r5, r1
     6d8:	f006 fc40 	bl	6f5c <strlen>
     6dc:	0004      	movs	r4, r0
     6de:	1c68      	adds	r0, r5, #1
     6e0:	0021      	movs	r1, r4
     6e2:	f7ff ff7f 	bl	5e4 <void ros::Msg::varToArr<unsigned char*, unsigned long>(unsigned char*, unsigned long)>
     6e6:	1d68      	adds	r0, r5, #5
     6e8:	68b1      	ldr	r1, [r6, #8]
     6ea:	0022      	movs	r2, r4
     6ec:	f006 f955 	bl	699a <memcpy>
     6f0:	1d60      	adds	r0, r4, #5
     6f2:	bd70      	pop	{r4, r5, r6, pc}

000006f4 <rosserial_msgs::TopicInfo::serialize(unsigned char*) const>:
     6f4:	b5f8      	push	{r3, r4, r5, r6, r7, lr}
     6f6:	8883      	ldrh	r3, [r0, #4]
     6f8:	0006      	movs	r6, r0
     6fa:	700b      	strb	r3, [r1, #0]
     6fc:	8883      	ldrh	r3, [r0, #4]
     6fe:	000c      	movs	r4, r1
     700:	0a1b      	lsrs	r3, r3, #8
     702:	704b      	strb	r3, [r1, #1]
     704:	6880      	ldr	r0, [r0, #8]
     706:	f006 fc29 	bl	6f5c <strlen>
     70a:	0005      	movs	r5, r0
     70c:	1ca0      	adds	r0, r4, #2
     70e:	0029      	movs	r1, r5
     710:	f7ff ff68 	bl	5e4 <void ros::Msg::varToArr<unsigned char*, unsigned long>(unsigned char*, unsigned long)>
     714:	002a      	movs	r2, r5
     716:	68b1      	ldr	r1, [r6, #8]
     718:	1da0      	adds	r0, r4, #6
     71a:	f006 f93e 	bl	699a <memcpy>
     71e:	68f0      	ldr	r0, [r6, #12]
     720:	f006 fc1c 	bl	6f5c <strlen>
     724:	0007      	movs	r7, r0
     726:	1dab      	adds	r3, r5, #6
     728:	18e0      	adds	r0, r4, r3
     72a:	0039      	movs	r1, r7
     72c:	350a      	adds	r5, #10
     72e:	f7ff ff59 	bl	5e4 <void ros::Msg::varToArr<unsigned char*, unsigned long>(unsigned char*, unsigned long)>
     732:	003a      	movs	r2, r7
     734:	68f1      	ldr	r1, [r6, #12]
     736:	1960      	adds	r0, r4, r5
     738:	f006 f92f 	bl	699a <memcpy>
     73c:	6930      	ldr	r0, [r6, #16]
     73e:	f006 fc0d 	bl	6f5c <strlen>
     742:	197d      	adds	r5, r7, r5
     744:	0007      	movs	r7, r0
     746:	1960      	adds	r0, r4, r5
     748:	0039      	movs	r1, r7
     74a:	3504      	adds	r5, #4
     74c:	f7ff ff4a 	bl	5e4 <void ros::Msg::varToArr<unsigned char*, unsigned long>(unsigned char*, unsigned long)>
     750:	1960      	adds	r0, r4, r5
     752:	003a      	movs	r2, r7
     754:	6931      	ldr	r1, [r6, #16]
     756:	f006 f920 	bl	699a <memcpy>
     75a:	6973      	ldr	r3, [r6, #20]
     75c:	197f      	adds	r7, r7, r5
     75e:	55e3      	strb	r3, [r4, r7]
     760:	0a1a      	lsrs	r2, r3, #8
     762:	19e4      	adds	r4, r4, r7
     764:	7062      	strb	r2, [r4, #1]
     766:	0c1a      	lsrs	r2, r3, #16
     768:	0e1b      	lsrs	r3, r3, #24
     76a:	1d38      	adds	r0, r7, #4
     76c:	70a2      	strb	r2, [r4, #2]
     76e:	70e3      	strb	r3, [r4, #3]
     770:	bdf8      	pop	{r3, r4, r5, r6, r7, pc}

00000772 <void ros::Msg::arrToVar<unsigned long, unsigned char*>(unsigned long&, unsigned char*)>:
     772:	2300      	movs	r3, #0
     774:	b510      	push	{r4, lr}
     776:	6003      	str	r3, [r0, #0]
     778:	5cca      	ldrb	r2, [r1, r3]
     77a:	00dc      	lsls	r4, r3, #3
     77c:	40a2      	lsls	r2, r4
     77e:	6804      	ldr	r4, [r0, #0]
     780:	3301      	adds	r3, #1
     782:	4322      	orrs	r2, r4
     784:	6002      	str	r2, [r0, #0]
     786:	2b04      	cmp	r3, #4
     788:	d1f6      	bne.n	778 <void ros::Msg::arrToVar<unsigned long, unsigned char*>(unsigned long&, unsigned char*)+0x6>
     78a:	bd10      	pop	{r4, pc}

0000078c <rosserial_msgs::Log::deserialize(unsigned char*)>:
     78c:	b5f7      	push	{r0, r1, r2, r4, r5, r6, r7, lr}
     78e:	000c      	movs	r4, r1
     790:	780b      	ldrb	r3, [r1, #0]
     792:	0005      	movs	r5, r0
     794:	7103      	strb	r3, [r0, #4]
     796:	3101      	adds	r1, #1
     798:	a801      	add	r0, sp, #4
     79a:	f7ff ffea 	bl	772 <void ros::Msg::arrToVar<unsigned long, unsigned char*>(unsigned long&, unsigned char*)>
     79e:	1d22      	adds	r2, r4, #4
     7a0:	0013      	movs	r3, r2
     7a2:	9901      	ldr	r1, [sp, #4]
     7a4:	1d48      	adds	r0, r1, #5
     7a6:	3301      	adds	r3, #1
     7a8:	1b1e      	subs	r6, r3, r4
     7aa:	42b0      	cmp	r0, r6
     7ac:	d903      	bls.n	7b6 <rosserial_msgs::Log::deserialize(unsigned char*)+0x2a>
     7ae:	781f      	ldrb	r7, [r3, #0]
     7b0:	1e5e      	subs	r6, r3, #1
     7b2:	7037      	strb	r7, [r6, #0]
     7b4:	e7f7      	b.n	7a6 <rosserial_msgs::Log::deserialize(unsigned char*)+0x1a>
     7b6:	2300      	movs	r3, #0
     7b8:	1864      	adds	r4, r4, r1
     7ba:	7123      	strb	r3, [r4, #4]
     7bc:	60aa      	str	r2, [r5, #8]
     7be:	bdfe      	pop	{r1, r2, r3, r4, r5, r6, r7, pc}

000007c0 <rosserial_msgs::TopicInfo::deserialize(unsigned char*)>:
     7c0:	b5f0      	push	{r4, r5, r6, r7, lr}
     7c2:	000c      	movs	r4, r1
     7c4:	780b      	ldrb	r3, [r1, #0]
     7c6:	b085      	sub	sp, #20
     7c8:	8083      	strh	r3, [r0, #4]
     7ca:	784a      	ldrb	r2, [r1, #1]
     7cc:	0006      	movs	r6, r0
     7ce:	0212      	lsls	r2, r2, #8
     7d0:	4313      	orrs	r3, r2
     7d2:	8083      	strh	r3, [r0, #4]
     7d4:	3102      	adds	r1, #2
     7d6:	a801      	add	r0, sp, #4
     7d8:	f7ff ffcb 	bl	772 <void ros::Msg::arrToVar<unsigned long, unsigned char*>(unsigned long&, unsigned char*)>
     7dc:	1d61      	adds	r1, r4, #5
     7de:	000b      	movs	r3, r1
     7e0:	9a01      	ldr	r2, [sp, #4]
     7e2:	1d95      	adds	r5, r2, #6
     7e4:	3301      	adds	r3, #1
     7e6:	1b18      	subs	r0, r3, r4
     7e8:	4285      	cmp	r5, r0
     7ea:	d903      	bls.n	7f4 <rosserial_msgs::TopicInfo::deserialize(unsigned char*)+0x34>
     7ec:	781f      	ldrb	r7, [r3, #0]
     7ee:	1e58      	subs	r0, r3, #1
     7f0:	7007      	strb	r7, [r0, #0]
     7f2:	e7f7      	b.n	7e4 <rosserial_msgs::TopicInfo::deserialize(unsigned char*)+0x24>
     7f4:	2300      	movs	r3, #0
     7f6:	18a2      	adds	r2, r4, r2
     7f8:	7153      	strb	r3, [r2, #5]
     7fa:	a802      	add	r0, sp, #8
     7fc:	60b1      	str	r1, [r6, #8]
     7fe:	1961      	adds	r1, r4, r5
     800:	f7ff ffb7 	bl	772 <void ros::Msg::arrToVar<unsigned long, unsigned char*>(unsigned long&, unsigned char*)>
     804:	9a02      	ldr	r2, [sp, #8]
     806:	1d2b      	adds	r3, r5, #4
     808:	189d      	adds	r5, r3, r2
     80a:	001a      	movs	r2, r3
     80c:	42aa      	cmp	r2, r5
     80e:	d204      	bcs.n	81a <rosserial_msgs::TopicInfo::deserialize(unsigned char*)+0x5a>
     810:	5ca0      	ldrb	r0, [r4, r2]
     812:	1e51      	subs	r1, r2, #1
     814:	5460      	strb	r0, [r4, r1]
     816:	3201      	adds	r2, #1
     818:	e7f8      	b.n	80c <rosserial_msgs::TopicInfo::deserialize(unsigned char*)+0x4c>
     81a:	2000      	movs	r0, #0
     81c:	1961      	adds	r1, r4, r5
     81e:	3b01      	subs	r3, #1
     820:	18e3      	adds	r3, r4, r3
     822:	1e4a      	subs	r2, r1, #1
     824:	7010      	strb	r0, [r2, #0]
     826:	60f3      	str	r3, [r6, #12]
     828:	a803      	add	r0, sp, #12
     82a:	f7ff ffa2 	bl	772 <void ros::Msg::arrToVar<unsigned long, unsigned char*>(unsigned long&, unsigned char*)>
     82e:	9b03      	ldr	r3, [sp, #12]
     830:	3504      	adds	r5, #4
     832:	18e8      	adds	r0, r5, r3
     834:	002b      	movs	r3, r5
     836:	4283      	cmp	r3, r0
     838:	d204      	bcs.n	844 <rosserial_msgs::TopicInfo::deserialize(unsigned char*)+0x84>
     83a:	5ce1      	ldrb	r1, [r4, r3]
     83c:	1e5a      	subs	r2, r3, #1
     83e:	54a1      	strb	r1, [r4, r2]
     840:	3301      	adds	r3, #1
     842:	e7f8      	b.n	836 <rosserial_msgs::TopicInfo::deserialize(unsigned char*)+0x76>
     844:	2100      	movs	r1, #0
     846:	1822      	adds	r2, r4, r0
     848:	3d01      	subs	r5, #1
     84a:	1e53      	subs	r3, r2, #1
     84c:	1965      	adds	r5, r4, r5
     84e:	7019      	strb	r1, [r3, #0]
     850:	6135      	str	r5, [r6, #16]
     852:	7853      	ldrb	r3, [r2, #1]
     854:	7891      	ldrb	r1, [r2, #2]
     856:	021b      	lsls	r3, r3, #8
     858:	0409      	lsls	r1, r1, #16
     85a:	78d2      	ldrb	r2, [r2, #3]
     85c:	430b      	orrs	r3, r1
     85e:	5c21      	ldrb	r1, [r4, r0]
     860:	0612      	lsls	r2, r2, #24
     862:	430b      	orrs	r3, r1
     864:	4313      	orrs	r3, r2
     866:	3004      	adds	r0, #4
     868:	6173      	str	r3, [r6, #20]
     86a:	b005      	add	sp, #20
     86c:	bdf0      	pop	{r4, r5, r6, r7, pc}

0000086e <rosserial_msgs::RequestParamResponse::deserialize(unsigned char*)>:
     86e:	b5f7      	push	{r0, r1, r2, r4, r5, r6, r7, lr}
     870:	784b      	ldrb	r3, [r1, #1]
     872:	780e      	ldrb	r6, [r1, #0]
     874:	021b      	lsls	r3, r3, #8
     876:	4333      	orrs	r3, r6
     878:	788e      	ldrb	r6, [r1, #2]
     87a:	0004      	movs	r4, r0
     87c:	0436      	lsls	r6, r6, #16
     87e:	4333      	orrs	r3, r6
     880:	78ce      	ldrb	r6, [r1, #3]
     882:	000d      	movs	r5, r1
     884:	0636      	lsls	r6, r6, #24
     886:	431e      	orrs	r6, r3
     888:	6843      	ldr	r3, [r0, #4]
     88a:	429e      	cmp	r6, r3
     88c:	d904      	bls.n	898 <rosserial_msgs::RequestParamResponse::deserialize(unsigned char*)+0x2a>
     88e:	00b1      	lsls	r1, r6, #2
     890:	68c0      	ldr	r0, [r0, #12]
     892:	f006 fafb 	bl	6e8c <realloc>
     896:	60e0      	str	r0, [r4, #12]
     898:	2300      	movs	r3, #0
     89a:	6066      	str	r6, [r4, #4]
     89c:	1d2f      	adds	r7, r5, #4
     89e:	6862      	ldr	r2, [r4, #4]
     8a0:	1c5e      	adds	r6, r3, #1
     8a2:	00b0      	lsls	r0, r6, #2
     8a4:	4293      	cmp	r3, r2
     8a6:	d215      	bcs.n	8d4 <rosserial_msgs::RequestParamResponse::deserialize(unsigned char*)+0x66>
     8a8:	0021      	movs	r1, r4
     8aa:	787b      	ldrb	r3, [r7, #1]
     8ac:	78ba      	ldrb	r2, [r7, #2]
     8ae:	021b      	lsls	r3, r3, #8
     8b0:	0412      	lsls	r2, r2, #16
     8b2:	4313      	orrs	r3, r2
     8b4:	783a      	ldrb	r2, [r7, #0]
     8b6:	3804      	subs	r0, #4
     8b8:	4313      	orrs	r3, r2
     8ba:	78fa      	ldrb	r2, [r7, #3]
     8bc:	3108      	adds	r1, #8
     8be:	0612      	lsls	r2, r2, #24
     8c0:	4313      	orrs	r3, r2
     8c2:	60a3      	str	r3, [r4, #8]
     8c4:	68e3      	ldr	r3, [r4, #12]
     8c6:	2204      	movs	r2, #4
     8c8:	1818      	adds	r0, r3, r0
     8ca:	f006 f866 	bl	699a <memcpy>
     8ce:	3704      	adds	r7, #4
     8d0:	0033      	movs	r3, r6
     8d2:	e7e4      	b.n	89e <rosserial_msgs::RequestParamResponse::deserialize(unsigned char*)+0x30>
     8d4:	182a      	adds	r2, r5, r0
     8d6:	7857      	ldrb	r7, [r2, #1]
     8d8:	7893      	ldrb	r3, [r2, #2]
     8da:	5c29      	ldrb	r1, [r5, r0]
     8dc:	041b      	lsls	r3, r3, #16
     8de:	023f      	lsls	r7, r7, #8
     8e0:	431f      	orrs	r7, r3
     8e2:	4339      	orrs	r1, r7
     8e4:	78d7      	ldrb	r7, [r2, #3]
     8e6:	6923      	ldr	r3, [r4, #16]
     8e8:	063f      	lsls	r7, r7, #24
     8ea:	430f      	orrs	r7, r1
     8ec:	1d06      	adds	r6, r0, #4
     8ee:	429f      	cmp	r7, r3
     8f0:	d904      	bls.n	8fc <rosserial_msgs::RequestParamResponse::deserialize(unsigned char*)+0x8e>
     8f2:	00b9      	lsls	r1, r7, #2
     8f4:	69a0      	ldr	r0, [r4, #24]
     8f6:	f006 fac9 	bl	6e8c <realloc>
     8fa:	61a0      	str	r0, [r4, #24]
     8fc:	6127      	str	r7, [r4, #16]
     8fe:	2700      	movs	r7, #0
     900:	19ae      	adds	r6, r5, r6
     902:	6923      	ldr	r3, [r4, #16]
     904:	1b72      	subs	r2, r6, r5
     906:	429f      	cmp	r7, r3
     908:	d215      	bcs.n	936 <rosserial_msgs::RequestParamResponse::deserialize(unsigned char*)+0xc8>
     90a:	0021      	movs	r1, r4
     90c:	7873      	ldrb	r3, [r6, #1]
     90e:	78b2      	ldrb	r2, [r6, #2]
     910:	021b      	lsls	r3, r3, #8
     912:	0412      	lsls	r2, r2, #16
     914:	4313      	orrs	r3, r2
     916:	7832      	ldrb	r2, [r6, #0]
     918:	00b8      	lsls	r0, r7, #2
     91a:	4313      	orrs	r3, r2
     91c:	78f2      	ldrb	r2, [r6, #3]
     91e:	3114      	adds	r1, #20
     920:	0612      	lsls	r2, r2, #24
     922:	4313      	orrs	r3, r2
     924:	6163      	str	r3, [r4, #20]
     926:	69a3      	ldr	r3, [r4, #24]
     928:	2204      	movs	r2, #4
     92a:	1818      	adds	r0, r3, r0
     92c:	f006 f835 	bl	699a <memcpy>
     930:	3701      	adds	r7, #1
     932:	3604      	adds	r6, #4
     934:	e7e5      	b.n	902 <rosserial_msgs::RequestParamResponse::deserialize(unsigned char*)+0x94>
     936:	18a9      	adds	r1, r5, r2
     938:	784f      	ldrb	r7, [r1, #1]
     93a:	788b      	ldrb	r3, [r1, #2]
     93c:	5ca8      	ldrb	r0, [r5, r2]
     93e:	041b      	lsls	r3, r3, #16
     940:	023f      	lsls	r7, r7, #8
     942:	431f      	orrs	r7, r3
     944:	4338      	orrs	r0, r7
     946:	78cf      	ldrb	r7, [r1, #3]
     948:	69e3      	ldr	r3, [r4, #28]
     94a:	063f      	lsls	r7, r7, #24
     94c:	4307      	orrs	r7, r0
     94e:	1d16      	adds	r6, r2, #4
     950:	429f      	cmp	r7, r3
     952:	d904      	bls.n	95e <rosserial_msgs::RequestParamResponse::deserialize(unsigned char*)+0xf0>
     954:	00b9      	lsls	r1, r7, #2
     956:	6a60      	ldr	r0, [r4, #36]	; 0x24
     958:	f006 fa98 	bl	6e8c <realloc>
     95c:	6260      	str	r0, [r4, #36]	; 0x24
     95e:	61e7      	str	r7, [r4, #28]
     960:	2700      	movs	r7, #0
     962:	69e3      	ldr	r3, [r4, #28]
     964:	429f      	cmp	r7, r3
     966:	d21f      	bcs.n	9a8 <rosserial_msgs::RequestParamResponse::deserialize(unsigned char*)+0x13a>
     968:	19a9      	adds	r1, r5, r6
     96a:	a801      	add	r0, sp, #4
     96c:	f7ff ff01 	bl	772 <void ros::Msg::arrToVar<unsigned long, unsigned char*>(unsigned long&, unsigned char*)>
     970:	9a01      	ldr	r2, [sp, #4]
     972:	1d33      	adds	r3, r6, #4
     974:	189e      	adds	r6, r3, r2
     976:	001a      	movs	r2, r3
     978:	42b2      	cmp	r2, r6
     97a:	d204      	bcs.n	986 <rosserial_msgs::RequestParamResponse::deserialize(unsigned char*)+0x118>
     97c:	5ca8      	ldrb	r0, [r5, r2]
     97e:	1e51      	subs	r1, r2, #1
     980:	5468      	strb	r0, [r5, r1]
     982:	3201      	adds	r2, #1
     984:	e7f8      	b.n	978 <rosserial_msgs::RequestParamResponse::deserialize(unsigned char*)+0x10a>
     986:	2100      	movs	r1, #0
     988:	19aa      	adds	r2, r5, r6
     98a:	3a01      	subs	r2, #1
     98c:	7011      	strb	r1, [r2, #0]
     98e:	0021      	movs	r1, r4
     990:	3b01      	subs	r3, #1
     992:	18eb      	adds	r3, r5, r3
     994:	6223      	str	r3, [r4, #32]
     996:	6a63      	ldr	r3, [r4, #36]	; 0x24
     998:	00b8      	lsls	r0, r7, #2
     99a:	1818      	adds	r0, r3, r0
     99c:	2204      	movs	r2, #4
     99e:	3120      	adds	r1, #32
     9a0:	f005 fffb 	bl	699a <memcpy>
     9a4:	3701      	adds	r7, #1
     9a6:	e7dc      	b.n	962 <rosserial_msgs::RequestParamResponse::deserialize(unsigned char*)+0xf4>
     9a8:	0030      	movs	r0, r6
     9aa:	bdfe      	pop	{r1, r2, r3, r4, r5, r6, r7, pc}

000009ac <ros::NodeHandle_<MbedHardware, 25, 25, 512, 512>::requestSyncTime()>:
     9ac:	b51f      	push	{r0, r1, r2, r3, r4, lr}
     9ae:	4b08      	ldr	r3, [pc, #32]	; (9d0 <ros::NodeHandle_<MbedHardware, 25, 25, 512, 512>::requestSyncTime()+0x24>)
     9b0:	0004      	movs	r4, r0
     9b2:	9301      	str	r3, [sp, #4]
     9b4:	2300      	movs	r3, #0
     9b6:	9302      	str	r3, [sp, #8]
     9b8:	9303      	str	r3, [sp, #12]
     9ba:	6803      	ldr	r3, [r0, #0]
     9bc:	aa01      	add	r2, sp, #4
     9be:	681b      	ldr	r3, [r3, #0]
     9c0:	210a      	movs	r1, #10
     9c2:	4798      	blx	r3
     9c4:	0020      	movs	r0, r4
     9c6:	3060      	adds	r0, #96	; 0x60
     9c8:	f003 f895 	bl	3af6 <mbed::Timer::read_ms()>
     9cc:	6720      	str	r0, [r4, #112]	; 0x70
     9ce:	bd1f      	pop	{r0, r1, r2, r3, r4, pc}
     9d0:	0000734c 	.word	0x0000734c

000009d4 <ros::NodeHandle_<MbedHardware, 25, 25, 512, 512>::negotiateTopics()>:
     9d4:	2200      	movs	r2, #0
     9d6:	b5f0      	push	{r4, r5, r6, r7, lr}
     9d8:	4b2d      	ldr	r3, [pc, #180]	; (a90 <ros::NodeHandle_<MbedHardware, 25, 25, 512, 512>::negotiateTopics()+0xbc>)
     9da:	b089      	sub	sp, #36	; 0x24
     9dc:	9302      	str	r3, [sp, #8]
     9de:	ab02      	add	r3, sp, #8
     9e0:	809a      	strh	r2, [r3, #4]
     9e2:	4b2c      	ldr	r3, [pc, #176]	; (a94 <ros::NodeHandle_<MbedHardware, 25, 25, 512, 512>::negotiateTopics()+0xc0>)
     9e4:	2780      	movs	r7, #128	; 0x80
     9e6:	9304      	str	r3, [sp, #16]
     9e8:	9305      	str	r3, [sp, #20]
     9ea:	9306      	str	r3, [sp, #24]
     9ec:	2390      	movs	r3, #144	; 0x90
     9ee:	0005      	movs	r5, r0
     9f0:	00db      	lsls	r3, r3, #3
     9f2:	18c4      	adds	r4, r0, r3
     9f4:	4b28      	ldr	r3, [pc, #160]	; (a98 <ros::NodeHandle_<MbedHardware, 25, 25, 512, 512>::negotiateTopics()+0xc4>)
     9f6:	9207      	str	r2, [sp, #28]
     9f8:	18c6      	adds	r6, r0, r3
     9fa:	00bf      	lsls	r7, r7, #2
     9fc:	6823      	ldr	r3, [r4, #0]
     9fe:	2b00      	cmp	r3, #0
     a00:	d017      	beq.n	a32 <ros::NodeHandle_<MbedHardware, 25, 25, 512, 512>::negotiateTopics()+0x5e>
     a02:	8919      	ldrh	r1, [r3, #8]
     a04:	6858      	ldr	r0, [r3, #4]
     a06:	aa02      	add	r2, sp, #8
     a08:	8091      	strh	r1, [r2, #4]
     a0a:	681a      	ldr	r2, [r3, #0]
     a0c:	6803      	ldr	r3, [r0, #0]
     a0e:	9204      	str	r2, [sp, #16]
     a10:	689b      	ldr	r3, [r3, #8]
     a12:	4798      	blx	r3
     a14:	6823      	ldr	r3, [r4, #0]
     a16:	9005      	str	r0, [sp, #20]
     a18:	6858      	ldr	r0, [r3, #4]
     a1a:	6803      	ldr	r3, [r0, #0]
     a1c:	68db      	ldr	r3, [r3, #12]
     a1e:	4798      	blx	r3
     a20:	6821      	ldr	r1, [r4, #0]
     a22:	682b      	ldr	r3, [r5, #0]
     a24:	9006      	str	r0, [sp, #24]
     a26:	9707      	str	r7, [sp, #28]
     a28:	681b      	ldr	r3, [r3, #0]
     a2a:	aa02      	add	r2, sp, #8
     a2c:	6909      	ldr	r1, [r1, #16]
     a2e:	0028      	movs	r0, r5
     a30:	4798      	blx	r3
     a32:	3404      	adds	r4, #4
     a34:	42b4      	cmp	r4, r6
     a36:	d1e1      	bne.n	9fc <ros::NodeHandle_<MbedHardware, 25, 25, 512, 512>::negotiateTopics()+0x28>
     a38:	23a9      	movs	r3, #169	; 0xa9
     a3a:	2680      	movs	r6, #128	; 0x80
     a3c:	00db      	lsls	r3, r3, #3
     a3e:	18eb      	adds	r3, r5, r3
     a40:	9301      	str	r3, [sp, #4]
     a42:	00b6      	lsls	r6, r6, #2
     a44:	6820      	ldr	r0, [r4, #0]
     a46:	2800      	cmp	r0, #0
     a48:	d018      	beq.n	a7c <ros::NodeHandle_<MbedHardware, 25, 25, 512, 512>::negotiateTopics()+0xa8>
     a4a:	8882      	ldrh	r2, [r0, #4]
     a4c:	ab02      	add	r3, sp, #8
     a4e:	809a      	strh	r2, [r3, #4]
     a50:	6883      	ldr	r3, [r0, #8]
     a52:	9304      	str	r3, [sp, #16]
     a54:	6803      	ldr	r3, [r0, #0]
     a56:	689b      	ldr	r3, [r3, #8]
     a58:	4798      	blx	r3
     a5a:	9005      	str	r0, [sp, #20]
     a5c:	6820      	ldr	r0, [r4, #0]
     a5e:	6803      	ldr	r3, [r0, #0]
     a60:	68db      	ldr	r3, [r3, #12]
     a62:	4798      	blx	r3
     a64:	682b      	ldr	r3, [r5, #0]
     a66:	9006      	str	r0, [sp, #24]
     a68:	6820      	ldr	r0, [r4, #0]
     a6a:	681f      	ldr	r7, [r3, #0]
     a6c:	6803      	ldr	r3, [r0, #0]
     a6e:	9607      	str	r6, [sp, #28]
     a70:	685b      	ldr	r3, [r3, #4]
     a72:	4798      	blx	r3
     a74:	aa02      	add	r2, sp, #8
     a76:	0001      	movs	r1, r0
     a78:	0028      	movs	r0, r5
     a7a:	47b8      	blx	r7
     a7c:	9b01      	ldr	r3, [sp, #4]
     a7e:	3404      	adds	r4, #4
     a80:	42a3      	cmp	r3, r4
     a82:	d1df      	bne.n	a44 <ros::NodeHandle_<MbedHardware, 25, 25, 512, 512>::negotiateTopics()+0x70>
     a84:	2201      	movs	r2, #1
     a86:	4b05      	ldr	r3, [pc, #20]	; (a9c <ros::NodeHandle_<MbedHardware, 25, 25, 512, 512>::negotiateTopics()+0xc8>)
     a88:	54ea      	strb	r2, [r5, r3]
     a8a:	b009      	add	sp, #36	; 0x24
     a8c:	bdf0      	pop	{r4, r5, r6, r7, pc}
     a8e:	46c0      	nop			; (mov r8, r8)
     a90:	00007364 	.word	0x00007364
     a94:	000075bb 	.word	0x000075bb
     a98:	000004e4 	.word	0x000004e4
     a9c:	0000055c 	.word	0x0000055c

00000aa0 <ros::NodeHandle_<MbedHardware, 25, 25, 512, 512>::syncTime(unsigned char*)>:
     aa0:	b5f0      	push	{r4, r5, r6, r7, lr}
     aa2:	4b26      	ldr	r3, [pc, #152]	; (b3c <ros::NodeHandle_<MbedHardware, 25, 25, 512, 512>::syncTime(unsigned char*)+0x9c>)
     aa4:	0006      	movs	r6, r0
     aa6:	b087      	sub	sp, #28
     aa8:	9303      	str	r3, [sp, #12]
     aaa:	2300      	movs	r3, #0
     aac:	0004      	movs	r4, r0
     aae:	3660      	adds	r6, #96	; 0x60
     ab0:	0030      	movs	r0, r6
     ab2:	000f      	movs	r7, r1
     ab4:	9304      	str	r3, [sp, #16]
     ab6:	9305      	str	r3, [sp, #20]
     ab8:	f003 f81d 	bl	3af6 <mbed::Timer::read_ms()>
     abc:	6f23      	ldr	r3, [r4, #112]	; 0x70
     abe:	0039      	movs	r1, r7
     ac0:	1ac5      	subs	r5, r0, r3
     ac2:	a803      	add	r0, sp, #12
     ac4:	f7ff fcec 	bl	4a0 <std_msgs::Time::deserialize(unsigned char*)>
     ac8:	21fa      	movs	r1, #250	; 0xfa
     aca:	0028      	movs	r0, r5
     acc:	0089      	lsls	r1, r1, #2
     ace:	f003 fb1d 	bl	410c <__udivsi3>
     ad2:	21fa      	movs	r1, #250	; 0xfa
     ad4:	9b04      	ldr	r3, [sp, #16]
     ad6:	0089      	lsls	r1, r1, #2
     ad8:	1818      	adds	r0, r3, r0
     ada:	9004      	str	r0, [sp, #16]
     adc:	0028      	movs	r0, r5
     ade:	9301      	str	r3, [sp, #4]
     ae0:	f003 fb9a 	bl	4218 <__aeabi_uidivmod>
     ae4:	4b16      	ldr	r3, [pc, #88]	; (b40 <ros::NodeHandle_<MbedHardware, 25, 25, 512, 512>::syncTime(unsigned char*)+0xa0>)
     ae6:	0030      	movs	r0, r6
     ae8:	4359      	muls	r1, r3
     aea:	9b05      	ldr	r3, [sp, #20]
     aec:	18c9      	adds	r1, r1, r3
     aee:	9301      	str	r3, [sp, #4]
     af0:	9105      	str	r1, [sp, #20]
     af2:	f003 f800 	bl	3af6 <mbed::Timer::read_ms()>
     af6:	21fa      	movs	r1, #250	; 0xfa
     af8:	9b04      	ldr	r3, [sp, #16]
     afa:	0089      	lsls	r1, r1, #2
     afc:	0007      	movs	r7, r0
     afe:	9301      	str	r3, [sp, #4]
     b00:	1e5d      	subs	r5, r3, #1
     b02:	f003 fb03 	bl	410c <__udivsi3>
     b06:	21fa      	movs	r1, #250	; 0xfa
     b08:	1a2d      	subs	r5, r5, r0
     b0a:	6765      	str	r5, [r4, #116]	; 0x74
     b0c:	4b0d      	ldr	r3, [pc, #52]	; (b44 <ros::NodeHandle_<MbedHardware, 25, 25, 512, 512>::syncTime(unsigned char*)+0xa4>)
     b0e:	9d05      	ldr	r5, [sp, #20]
     b10:	0038      	movs	r0, r7
     b12:	0089      	lsls	r1, r1, #2
     b14:	18ed      	adds	r5, r5, r3
     b16:	f003 fb7f 	bl	4218 <__aeabi_uidivmod>
     b1a:	4b09      	ldr	r3, [pc, #36]	; (b40 <ros::NodeHandle_<MbedHardware, 25, 25, 512, 512>::syncTime(unsigned char*)+0xa0>)
     b1c:	0020      	movs	r0, r4
     b1e:	4359      	muls	r1, r3
     b20:	1a69      	subs	r1, r5, r1
     b22:	67a1      	str	r1, [r4, #120]	; 0x78
     b24:	0021      	movs	r1, r4
     b26:	3074      	adds	r0, #116	; 0x74
     b28:	3178      	adds	r1, #120	; 0x78
     b2a:	f000 fbab 	bl	1284 <ros::normalizeSecNSec(unsigned long&, unsigned long&)>
     b2e:	0030      	movs	r0, r6
     b30:	f002 ffe1 	bl	3af6 <mbed::Timer::read_ms()>
     b34:	4b04      	ldr	r3, [pc, #16]	; (b48 <ros::NodeHandle_<MbedHardware, 25, 25, 512, 512>::syncTime(unsigned char*)+0xa8>)
     b36:	50e0      	str	r0, [r4, r3]
     b38:	b007      	add	sp, #28
     b3a:	bdf0      	pop	{r4, r5, r6, r7, pc}
     b3c:	0000734c 	.word	0x0000734c
     b40:	000f4240 	.word	0x000f4240
     b44:	3b9aca00 	.word	0x3b9aca00
     b48:	00000564 	.word	0x00000564

00000b4c <_GLOBAL__sub_I_nh>:
     b4c:	b573      	push	{r0, r1, r4, r5, r6, lr}
     b4e:	4c4e      	ldr	r4, [pc, #312]	; (c88 <_GLOBAL__sub_I_nh+0x13c>)
     b50:	4b4e      	ldr	r3, [pc, #312]	; (c8c <_GLOBAL__sub_I_nh+0x140>)
     b52:	0020      	movs	r0, r4
     b54:	2500      	movs	r5, #0
     b56:	2204      	movs	r2, #4
     b58:	c008      	stmia	r0!, {r3}
     b5a:	0026      	movs	r6, r4
     b5c:	2380      	movs	r3, #128	; 0x80
     b5e:	9200      	str	r2, [sp, #0]
     b60:	2108      	movs	r1, #8
     b62:	9501      	str	r5, [sp, #4]
     b64:	005b      	lsls	r3, r3, #1
     b66:	3660      	adds	r6, #96	; 0x60
     b68:	f000 fc64 	bl	1434 <BufferedSerial::BufferedSerial(PinName, PinName, unsigned long, unsigned long, char const*)>
     b6c:	0030      	movs	r0, r6
     b6e:	f002 ffd7 	bl	3b20 <mbed::Timer::Timer()>
     b72:	23e1      	movs	r3, #225	; 0xe1
     b74:	021b      	lsls	r3, r3, #8
     b76:	65e3      	str	r3, [r4, #92]	; 0x5c
     b78:	0030      	movs	r0, r6
     b7a:	2680      	movs	r6, #128	; 0x80
     b7c:	f002 ff8e 	bl	3a9c <mbed::Timer::start()>
     b80:	0020      	movs	r0, r4
     b82:	00b6      	lsls	r6, r6, #2
     b84:	0029      	movs	r1, r5
     b86:	0032      	movs	r2, r6
     b88:	3080      	adds	r0, #128	; 0x80
     b8a:	6725      	str	r5, [r4, #112]	; 0x70
     b8c:	6765      	str	r5, [r4, #116]	; 0x74
     b8e:	67a5      	str	r5, [r4, #120]	; 0x78
     b90:	67e5      	str	r5, [r4, #124]	; 0x7c
     b92:	f005 ff1d 	bl	69d0 <memset>
     b96:	23a0      	movs	r3, #160	; 0xa0
     b98:	009b      	lsls	r3, r3, #2
     b9a:	0029      	movs	r1, r5
     b9c:	18e0      	adds	r0, r4, r3
     b9e:	0032      	movs	r2, r6
     ba0:	f005 ff16 	bl	69d0 <memset>
     ba4:	2390      	movs	r3, #144	; 0x90
     ba6:	3e9d      	subs	r6, #157	; 0x9d
     ba8:	00db      	lsls	r3, r3, #3
     baa:	3eff      	subs	r6, #255	; 0xff
     bac:	0029      	movs	r1, r5
     bae:	18e0      	adds	r0, r4, r3
     bb0:	0032      	movs	r2, r6
     bb2:	f005 ff0d 	bl	69d0 <memset>
     bb6:	4b36      	ldr	r3, [pc, #216]	; (c90 <_GLOBAL__sub_I_nh+0x144>)
     bb8:	0029      	movs	r1, r5
     bba:	18e0      	adds	r0, r4, r3
     bbc:	0032      	movs	r2, r6
     bbe:	f005 ff07 	bl	69d0 <memset>
     bc2:	23a9      	movs	r3, #169	; 0xa9
     bc4:	00db      	lsls	r3, r3, #3
     bc6:	50e5      	str	r5, [r4, r3]
     bc8:	4b32      	ldr	r3, [pc, #200]	; (c94 <_GLOBAL__sub_I_nh+0x148>)
     bca:	4a33      	ldr	r2, [pc, #204]	; (c98 <_GLOBAL__sub_I_nh+0x14c>)
     bcc:	50e5      	str	r5, [r4, r3]
     bce:	3304      	adds	r3, #4
     bd0:	50e5      	str	r5, [r4, r3]
     bd2:	4b32      	ldr	r3, [pc, #200]	; (c9c <_GLOBAL__sub_I_nh+0x150>)
     bd4:	4932      	ldr	r1, [pc, #200]	; (ca0 <_GLOBAL__sub_I_nh+0x154>)
     bd6:	50e5      	str	r5, [r4, r3]
     bd8:	3304      	adds	r3, #4
     bda:	50e5      	str	r5, [r4, r3]
     bdc:	4b31      	ldr	r3, [pc, #196]	; (ca4 <_GLOBAL__sub_I_nh+0x158>)
     bde:	0020      	movs	r0, r4
     be0:	54e5      	strb	r5, [r4, r3]
     be2:	3304      	adds	r3, #4
     be4:	50e5      	str	r5, [r4, r3]
     be6:	4b30      	ldr	r3, [pc, #192]	; (ca8 <_GLOBAL__sub_I_nh+0x15c>)
     be8:	3e4c      	subs	r6, #76	; 0x4c
     bea:	50e5      	str	r5, [r4, r3]
     bec:	3304      	adds	r3, #4
     bee:	50e5      	str	r5, [r4, r3]
     bf0:	4b2e      	ldr	r3, [pc, #184]	; (cac <_GLOBAL__sub_I_nh+0x160>)
     bf2:	54e5      	strb	r5, [r4, r3]
     bf4:	3304      	adds	r3, #4
     bf6:	50e2      	str	r2, [r4, r3]
     bf8:	2200      	movs	r2, #0
     bfa:	4b2d      	ldr	r3, [pc, #180]	; (cb0 <_GLOBAL__sub_I_nh+0x164>)
     bfc:	50e5      	str	r5, [r4, r3]
     bfe:	3304      	adds	r3, #4
     c00:	50e5      	str	r5, [r4, r3]
     c02:	4b2c      	ldr	r3, [pc, #176]	; (cb4 <_GLOBAL__sub_I_nh+0x168>)
     c04:	50e5      	str	r5, [r4, r3]
     c06:	3304      	adds	r3, #4
     c08:	50e5      	str	r5, [r4, r3]
     c0a:	4b2b      	ldr	r3, [pc, #172]	; (cb8 <_GLOBAL__sub_I_nh+0x16c>)
     c0c:	50e2      	str	r2, [r4, r3]
     c0e:	3304      	adds	r3, #4
     c10:	50e5      	str	r5, [r4, r3]
     c12:	4b2a      	ldr	r3, [pc, #168]	; (cbc <_GLOBAL__sub_I_nh+0x170>)
     c14:	4a2a      	ldr	r2, [pc, #168]	; (cc0 <_GLOBAL__sub_I_nh+0x174>)
     c16:	50e5      	str	r5, [r4, r3]
     c18:	3304      	adds	r3, #4
     c1a:	50e5      	str	r5, [r4, r3]
     c1c:	4b29      	ldr	r3, [pc, #164]	; (cc4 <_GLOBAL__sub_I_nh+0x178>)
     c1e:	50e5      	str	r5, [r4, r3]
     c20:	f003 f992 	bl	3f48 <__aeabi_atexit>
     c24:	2134      	movs	r1, #52	; 0x34
     c26:	4828      	ldr	r0, [pc, #160]	; (cc8 <_GLOBAL__sub_I_nh+0x17c>)
     c28:	f000 fabc 	bl	11a4 <Servo::Servo(PinName)>
     c2c:	4927      	ldr	r1, [pc, #156]	; (ccc <_GLOBAL__sub_I_nh+0x180>)
     c2e:	4828      	ldr	r0, [pc, #160]	; (cd0 <_GLOBAL__sub_I_nh+0x184>)
     c30:	f000 fab8 	bl	11a4 <Servo::Servo(PinName)>
     c34:	4c27      	ldr	r4, [pc, #156]	; (cd4 <_GLOBAL__sub_I_nh+0x188>)
     c36:	0032      	movs	r2, r6
     c38:	0029      	movs	r1, r5
     c3a:	0020      	movs	r0, r4
     c3c:	f005 fec8 	bl	69d0 <memset>
     c40:	0020      	movs	r0, r4
     c42:	4925      	ldr	r1, [pc, #148]	; (cd8 <_GLOBAL__sub_I_nh+0x18c>)
     c44:	f000 fd2b 	bl	169e <gpio_init_out>
     c48:	4c24      	ldr	r4, [pc, #144]	; (cdc <_GLOBAL__sub_I_nh+0x190>)
     c4a:	0032      	movs	r2, r6
     c4c:	0029      	movs	r1, r5
     c4e:	0020      	movs	r0, r4
     c50:	f005 febe 	bl	69d0 <memset>
     c54:	0020      	movs	r0, r4
     c56:	4922      	ldr	r1, [pc, #136]	; (ce0 <_GLOBAL__sub_I_nh+0x194>)
     c58:	f000 fd21 	bl	169e <gpio_init_out>
     c5c:	4b21      	ldr	r3, [pc, #132]	; (ce4 <_GLOBAL__sub_I_nh+0x198>)
     c5e:	4a22      	ldr	r2, [pc, #136]	; (ce8 <_GLOBAL__sub_I_nh+0x19c>)
     c60:	4922      	ldr	r1, [pc, #136]	; (cec <_GLOBAL__sub_I_nh+0x1a0>)
     c62:	615a      	str	r2, [r3, #20]
     c64:	2201      	movs	r2, #1
     c66:	4822      	ldr	r0, [pc, #136]	; (cf0 <_GLOBAL__sub_I_nh+0x1a4>)
     c68:	4c22      	ldr	r4, [pc, #136]	; (cf4 <_GLOBAL__sub_I_nh+0x1a8>)
     c6a:	60d9      	str	r1, [r3, #12]
     c6c:	821d      	strh	r5, [r3, #16]
     c6e:	619a      	str	r2, [r3, #24]
     c70:	6018      	str	r0, [r3, #0]
     c72:	609c      	str	r4, [r3, #8]
     c74:	4b20      	ldr	r3, [pc, #128]	; (cf8 <_GLOBAL__sub_I_nh+0x1ac>)
     c76:	60d9      	str	r1, [r3, #12]
     c78:	619a      	str	r2, [r3, #24]
     c7a:	4920      	ldr	r1, [pc, #128]	; (cfc <_GLOBAL__sub_I_nh+0x1b0>)
     c7c:	4a20      	ldr	r2, [pc, #128]	; (d00 <_GLOBAL__sub_I_nh+0x1b4>)
     c7e:	821d      	strh	r5, [r3, #16]
     c80:	6018      	str	r0, [r3, #0]
     c82:	6159      	str	r1, [r3, #20]
     c84:	609a      	str	r2, [r3, #8]
     c86:	bd73      	pop	{r0, r1, r4, r5, r6, pc}
     c88:	1ffff174 	.word	0x1ffff174
     c8c:	000073c4 	.word	0x000073c4
     c90:	000004e4 	.word	0x000004e4
     c94:	0000054c 	.word	0x0000054c
     c98:	00007394 	.word	0x00007394
     c9c:	00000554 	.word	0x00000554
     ca0:	000010e1 	.word	0x000010e1
     ca4:	0000055c 	.word	0x0000055c
     ca8:	00000564 	.word	0x00000564
     cac:	0000056c 	.word	0x0000056c
     cb0:	00000574 	.word	0x00000574
     cb4:	0000057c 	.word	0x0000057c
     cb8:	00000584 	.word	0x00000584
     cbc:	0000058c 	.word	0x0000058c
     cc0:	1ffff0c0 	.word	0x1ffff0c0
     cc4:	00000594 	.word	0x00000594
     cc8:	1ffff70c 	.word	0x1ffff70c
     ccc:	00003014 	.word	0x00003014
     cd0:	1ffff758 	.word	0x1ffff758
     cd4:	1ffff770 	.word	0x1ffff770
     cd8:	0000104c 	.word	0x0000104c
     cdc:	1ffff724 	.word	0x1ffff724
     ce0:	00001048 	.word	0x00001048
     ce4:	1ffff73c 	.word	0x1ffff73c
     ce8:	00000585 	.word	0x00000585
     cec:	000073ac 	.word	0x000073ac
     cf0:	000073d8 	.word	0x000073d8
     cf4:	000073e8 	.word	0x000073e8
     cf8:	1ffff788 	.word	0x1ffff788
     cfc:	000005b5 	.word	0x000005b5
     d00:	000073ed 	.word	0x000073ed

00000d04 <ros::NodeHandle_<MbedHardware, 25, 25, 512, 512>::spinOnce()>:
     d04:	0003      	movs	r3, r0
     d06:	b5f0      	push	{r4, r5, r6, r7, lr}
     d08:	3360      	adds	r3, #96	; 0x60
     d0a:	0004      	movs	r4, r0
     d0c:	b087      	sub	sp, #28
     d0e:	0018      	movs	r0, r3
     d10:	9302      	str	r3, [sp, #8]
     d12:	f002 fef0 	bl	3af6 <mbed::Timer::read_ms()>
     d16:	4a8b      	ldr	r2, [pc, #556]	; (f44 <ros::NodeHandle_<MbedHardware, 25, 25, 512, 512>::spinOnce()+0x240>)
     d18:	498b      	ldr	r1, [pc, #556]	; (f48 <ros::NodeHandle_<MbedHardware, 25, 25, 512, 512>::spinOnce()+0x244>)
     d1a:	58a3      	ldr	r3, [r4, r2]
     d1c:	0007      	movs	r7, r0
     d1e:	1ac3      	subs	r3, r0, r3
     d20:	9205      	str	r2, [sp, #20]
     d22:	428b      	cmp	r3, r1
     d24:	d902      	bls.n	d2c <ros::NodeHandle_<MbedHardware, 25, 25, 512, 512>::spinOnce()+0x28>
     d26:	2200      	movs	r2, #0
     d28:	4b88      	ldr	r3, [pc, #544]	; (f4c <ros::NodeHandle_<MbedHardware, 25, 25, 512, 512>::spinOnce()+0x248>)
     d2a:	54e2      	strb	r2, [r4, r3]
     d2c:	23a9      	movs	r3, #169	; 0xa9
     d2e:	00db      	lsls	r3, r3, #3
     d30:	58e2      	ldr	r2, [r4, r3]
     d32:	2a00      	cmp	r2, #0
     d34:	d006      	beq.n	d44 <ros::NodeHandle_<MbedHardware, 25, 25, 512, 512>::spinOnce()+0x40>
     d36:	22ad      	movs	r2, #173	; 0xad
     d38:	00d2      	lsls	r2, r2, #3
     d3a:	58a2      	ldr	r2, [r4, r2]
     d3c:	42ba      	cmp	r2, r7
     d3e:	d201      	bcs.n	d44 <ros::NodeHandle_<MbedHardware, 25, 25, 512, 512>::spinOnce()+0x40>
     d40:	2200      	movs	r2, #0
     d42:	50e2      	str	r2, [r4, r3]
     d44:	2300      	movs	r3, #0
     d46:	25a9      	movs	r5, #169	; 0xa9
     d48:	9303      	str	r3, [sp, #12]
     d4a:	9301      	str	r3, [sp, #4]
     d4c:	00ed      	lsls	r5, r5, #3
     d4e:	6fe3      	ldr	r3, [r4, #124]	; 0x7c
     d50:	2b00      	cmp	r3, #0
     d52:	d11e      	bne.n	d92 <ros::NodeHandle_<MbedHardware, 25, 25, 512, 512>::spinOnce()+0x8e>
     d54:	1d26      	adds	r6, r4, #4
     d56:	0030      	movs	r0, r6
     d58:	f000 faa8 	bl	12ac <BufferedSerial::readable()>
     d5c:	2800      	cmp	r0, #0
     d5e:	d121      	bne.n	da4 <ros::NodeHandle_<MbedHardware, 25, 25, 512, 512>::spinOnce()+0xa0>
     d60:	4b7a      	ldr	r3, [pc, #488]	; (f4c <ros::NodeHandle_<MbedHardware, 25, 25, 512, 512>::spinOnce()+0x248>)
     d62:	5ce3      	ldrb	r3, [r4, r3]
     d64:	2b00      	cmp	r3, #0
     d66:	d00a      	beq.n	d7e <ros::NodeHandle_<MbedHardware, 25, 25, 512, 512>::spinOnce()+0x7a>
     d68:	25ac      	movs	r5, #172	; 0xac
     d6a:	00ed      	lsls	r5, r5, #3
     d6c:	5963      	ldr	r3, [r4, r5]
     d6e:	4a78      	ldr	r2, [pc, #480]	; (f50 <ros::NodeHandle_<MbedHardware, 25, 25, 512, 512>::spinOnce()+0x24c>)
     d70:	1afb      	subs	r3, r7, r3
     d72:	4293      	cmp	r3, r2
     d74:	d903      	bls.n	d7e <ros::NodeHandle_<MbedHardware, 25, 25, 512, 512>::spinOnce()+0x7a>
     d76:	0020      	movs	r0, r4
     d78:	f7ff fe18 	bl	9ac <ros::NodeHandle_<MbedHardware, 25, 25, 512, 512>::requestSyncTime()>
     d7c:	5167      	str	r7, [r4, r5]
     d7e:	9b03      	ldr	r3, [sp, #12]
     d80:	2b00      	cmp	r3, #0
     d82:	d000      	beq.n	d86 <ros::NodeHandle_<MbedHardware, 25, 25, 512, 512>::spinOnce()+0x82>
     d84:	e0dc      	b.n	f40 <ros::NodeHandle_<MbedHardware, 25, 25, 512, 512>::spinOnce()+0x23c>
     d86:	9b01      	ldr	r3, [sp, #4]
     d88:	1e18      	subs	r0, r3, #0
     d8a:	d100      	bne.n	d8e <ros::NodeHandle_<MbedHardware, 25, 25, 512, 512>::spinOnce()+0x8a>
     d8c:	e0aa      	b.n	ee4 <ros::NodeHandle_<MbedHardware, 25, 25, 512, 512>::spinOnce()+0x1e0>
     d8e:	2003      	movs	r0, #3
     d90:	e0a7      	b.n	ee2 <ros::NodeHandle_<MbedHardware, 25, 25, 512, 512>::spinOnce()+0x1de>
     d92:	9802      	ldr	r0, [sp, #8]
     d94:	f002 feaf 	bl	3af6 <mbed::Timer::read_ms()>
     d98:	6fe3      	ldr	r3, [r4, #124]	; 0x7c
     d9a:	1bc0      	subs	r0, r0, r7
     d9c:	4298      	cmp	r0, r3
     d9e:	d9d9      	bls.n	d54 <ros::NodeHandle_<MbedHardware, 25, 25, 512, 512>::spinOnce()+0x50>
     da0:	2002      	movs	r0, #2
     da2:	e09e      	b.n	ee2 <ros::NodeHandle_<MbedHardware, 25, 25, 512, 512>::spinOnce()+0x1de>
     da4:	0030      	movs	r0, r6
     da6:	f000 fa89 	bl	12bc <BufferedSerial::getc()>
     daa:	2800      	cmp	r0, #0
     dac:	dbd8      	blt.n	d60 <ros::NodeHandle_<MbedHardware, 25, 25, 512, 512>::spinOnce()+0x5c>
     dae:	23ab      	movs	r3, #171	; 0xab
     db0:	22ab      	movs	r2, #171	; 0xab
     db2:	00db      	lsls	r3, r3, #3
     db4:	58e3      	ldr	r3, [r4, r3]
     db6:	5966      	ldr	r6, [r4, r5]
     db8:	9304      	str	r3, [sp, #16]
     dba:	00d2      	lsls	r2, r2, #3
     dbc:	18c3      	adds	r3, r0, r3
     dbe:	50a3      	str	r3, [r4, r2]
     dc0:	2e07      	cmp	r6, #7
     dc2:	d10e      	bne.n	de2 <ros::NodeHandle_<MbedHardware, 25, 25, 512, 512>::spinOnce()+0xde>
     dc4:	4a63      	ldr	r2, [pc, #396]	; (f54 <ros::NodeHandle_<MbedHardware, 25, 25, 512, 512>::spinOnce()+0x250>)
     dc6:	58a3      	ldr	r3, [r4, r2]
     dc8:	1c59      	adds	r1, r3, #1
     dca:	18e3      	adds	r3, r4, r3
     dcc:	50a1      	str	r1, [r4, r2]
     dce:	3380      	adds	r3, #128	; 0x80
     dd0:	4a61      	ldr	r2, [pc, #388]	; (f58 <ros::NodeHandle_<MbedHardware, 25, 25, 512, 512>::spinOnce()+0x254>)
     dd2:	7018      	strb	r0, [r3, #0]
     dd4:	58a3      	ldr	r3, [r4, r2]
     dd6:	3b01      	subs	r3, #1
     dd8:	50a3      	str	r3, [r4, r2]
     dda:	2b00      	cmp	r3, #0
     ddc:	d1b7      	bne.n	d4e <ros::NodeHandle_<MbedHardware, 25, 25, 512, 512>::spinOnce()+0x4a>
     dde:	3308      	adds	r3, #8
     de0:	e01a      	b.n	e18 <ros::NodeHandle_<MbedHardware, 25, 25, 512, 512>::spinOnce()+0x114>
     de2:	2e00      	cmp	r6, #0
     de4:	d113      	bne.n	e0e <ros::NodeHandle_<MbedHardware, 25, 25, 512, 512>::spinOnce()+0x10a>
     de6:	28ff      	cmp	r0, #255	; 0xff
     de8:	d107      	bne.n	dfa <ros::NodeHandle_<MbedHardware, 25, 25, 512, 512>::spinOnce()+0xf6>
     dea:	2301      	movs	r3, #1
     dec:	22ad      	movs	r2, #173	; 0xad
     dee:	5163      	str	r3, [r4, r5]
     df0:	003b      	movs	r3, r7
     df2:	00d2      	lsls	r2, r2, #3
     df4:	3314      	adds	r3, #20
     df6:	50a3      	str	r3, [r4, r2]
     df8:	e7a9      	b.n	d4e <ros::NodeHandle_<MbedHardware, 25, 25, 512, 512>::spinOnce()+0x4a>
     dfa:	9802      	ldr	r0, [sp, #8]
     dfc:	f002 fe7b 	bl	3af6 <mbed::Timer::read_ms()>
     e00:	4b56      	ldr	r3, [pc, #344]	; (f5c <ros::NodeHandle_<MbedHardware, 25, 25, 512, 512>::spinOnce()+0x258>)
     e02:	1bc0      	subs	r0, r0, r7
     e04:	4298      	cmp	r0, r3
     e06:	d9a2      	bls.n	d4e <ros::NodeHandle_<MbedHardware, 25, 25, 512, 512>::spinOnce()+0x4a>
     e08:	4b50      	ldr	r3, [pc, #320]	; (f4c <ros::NodeHandle_<MbedHardware, 25, 25, 512, 512>::spinOnce()+0x248>)
     e0a:	54e6      	strb	r6, [r4, r3]
     e0c:	e7c8      	b.n	da0 <ros::NodeHandle_<MbedHardware, 25, 25, 512, 512>::spinOnce()+0x9c>
     e0e:	2e01      	cmp	r6, #1
     e10:	d10e      	bne.n	e30 <ros::NodeHandle_<MbedHardware, 25, 25, 512, 512>::spinOnce()+0x12c>
     e12:	28fe      	cmp	r0, #254	; 0xfe
     e14:	d102      	bne.n	e1c <ros::NodeHandle_<MbedHardware, 25, 25, 512, 512>::spinOnce()+0x118>
     e16:	2302      	movs	r3, #2
     e18:	5163      	str	r3, [r4, r5]
     e1a:	e798      	b.n	d4e <ros::NodeHandle_<MbedHardware, 25, 25, 512, 512>::spinOnce()+0x4a>
     e1c:	2300      	movs	r3, #0
     e1e:	5163      	str	r3, [r4, r5]
     e20:	4b4a      	ldr	r3, [pc, #296]	; (f4c <ros::NodeHandle_<MbedHardware, 25, 25, 512, 512>::spinOnce()+0x248>)
     e22:	5ce3      	ldrb	r3, [r4, r3]
     e24:	2b00      	cmp	r3, #0
     e26:	d192      	bne.n	d4e <ros::NodeHandle_<MbedHardware, 25, 25, 512, 512>::spinOnce()+0x4a>
     e28:	0020      	movs	r0, r4
     e2a:	f7ff fdbf 	bl	9ac <ros::NodeHandle_<MbedHardware, 25, 25, 512, 512>::requestSyncTime()>
     e2e:	e78e      	b.n	d4e <ros::NodeHandle_<MbedHardware, 25, 25, 512, 512>::spinOnce()+0x4a>
     e30:	2e02      	cmp	r6, #2
     e32:	d10a      	bne.n	e4a <ros::NodeHandle_<MbedHardware, 25, 25, 512, 512>::spinOnce()+0x146>
     e34:	2200      	movs	r2, #0
     e36:	4b48      	ldr	r3, [pc, #288]	; (f58 <ros::NodeHandle_<MbedHardware, 25, 25, 512, 512>::spinOnce()+0x254>)
     e38:	50e0      	str	r0, [r4, r3]
     e3a:	4b46      	ldr	r3, [pc, #280]	; (f54 <ros::NodeHandle_<MbedHardware, 25, 25, 512, 512>::spinOnce()+0x250>)
     e3c:	50e2      	str	r2, [r4, r3]
     e3e:	2303      	movs	r3, #3
     e40:	5163      	str	r3, [r4, r5]
     e42:	23ab      	movs	r3, #171	; 0xab
     e44:	00db      	lsls	r3, r3, #3
     e46:	50e0      	str	r0, [r4, r3]
     e48:	e781      	b.n	d4e <ros::NodeHandle_<MbedHardware, 25, 25, 512, 512>::spinOnce()+0x4a>
     e4a:	2e03      	cmp	r6, #3
     e4c:	d106      	bne.n	e5c <ros::NodeHandle_<MbedHardware, 25, 25, 512, 512>::spinOnce()+0x158>
     e4e:	4b42      	ldr	r3, [pc, #264]	; (f58 <ros::NodeHandle_<MbedHardware, 25, 25, 512, 512>::spinOnce()+0x254>)
     e50:	0200      	lsls	r0, r0, #8
     e52:	58e2      	ldr	r2, [r4, r3]
     e54:	1810      	adds	r0, r2, r0
     e56:	50e0      	str	r0, [r4, r3]
     e58:	2304      	movs	r3, #4
     e5a:	e7dd      	b.n	e18 <ros::NodeHandle_<MbedHardware, 25, 25, 512, 512>::spinOnce()+0x114>
     e5c:	2e04      	cmp	r6, #4
     e5e:	d10c      	bne.n	e7a <ros::NodeHandle_<MbedHardware, 25, 25, 512, 512>::spinOnce()+0x176>
     e60:	4a3f      	ldr	r2, [pc, #252]	; (f60 <ros::NodeHandle_<MbedHardware, 25, 25, 512, 512>::spinOnce()+0x25c>)
     e62:	4013      	ands	r3, r2
     e64:	d503      	bpl.n	e6e <ros::NodeHandle_<MbedHardware, 25, 25, 512, 512>::spinOnce()+0x16a>
     e66:	4a3f      	ldr	r2, [pc, #252]	; (f64 <ros::NodeHandle_<MbedHardware, 25, 25, 512, 512>::spinOnce()+0x260>)
     e68:	3b01      	subs	r3, #1
     e6a:	4313      	orrs	r3, r2
     e6c:	3301      	adds	r3, #1
     e6e:	2bff      	cmp	r3, #255	; 0xff
     e70:	d101      	bne.n	e76 <ros::NodeHandle_<MbedHardware, 25, 25, 512, 512>::spinOnce()+0x172>
     e72:	3bfa      	subs	r3, #250	; 0xfa
     e74:	e7d0      	b.n	e18 <ros::NodeHandle_<MbedHardware, 25, 25, 512, 512>::spinOnce()+0x114>
     e76:	2300      	movs	r3, #0
     e78:	e7ce      	b.n	e18 <ros::NodeHandle_<MbedHardware, 25, 25, 512, 512>::spinOnce()+0x114>
     e7a:	2e05      	cmp	r6, #5
     e7c:	d104      	bne.n	e88 <ros::NodeHandle_<MbedHardware, 25, 25, 512, 512>::spinOnce()+0x184>
     e7e:	23aa      	movs	r3, #170	; 0xaa
     e80:	00db      	lsls	r3, r3, #3
     e82:	50e0      	str	r0, [r4, r3]
     e84:	2306      	movs	r3, #6
     e86:	e7db      	b.n	e40 <ros::NodeHandle_<MbedHardware, 25, 25, 512, 512>::spinOnce()+0x13c>
     e88:	2e06      	cmp	r6, #6
     e8a:	d10a      	bne.n	ea2 <ros::NodeHandle_<MbedHardware, 25, 25, 512, 512>::spinOnce()+0x19e>
     e8c:	23aa      	movs	r3, #170	; 0xaa
     e8e:	00db      	lsls	r3, r3, #3
     e90:	58e2      	ldr	r2, [r4, r3]
     e92:	0200      	lsls	r0, r0, #8
     e94:	1810      	adds	r0, r2, r0
     e96:	50e0      	str	r0, [r4, r3]
     e98:	2307      	movs	r3, #7
     e9a:	5163      	str	r3, [r4, r5]
     e9c:	4b2e      	ldr	r3, [pc, #184]	; (f58 <ros::NodeHandle_<MbedHardware, 25, 25, 512, 512>::spinOnce()+0x254>)
     e9e:	58e3      	ldr	r3, [r4, r3]
     ea0:	e79b      	b.n	dda <ros::NodeHandle_<MbedHardware, 25, 25, 512, 512>::spinOnce()+0xd6>
     ea2:	2e08      	cmp	r6, #8
     ea4:	d000      	beq.n	ea8 <ros::NodeHandle_<MbedHardware, 25, 25, 512, 512>::spinOnce()+0x1a4>
     ea6:	e752      	b.n	d4e <ros::NodeHandle_<MbedHardware, 25, 25, 512, 512>::spinOnce()+0x4a>
     ea8:	2200      	movs	r2, #0
     eaa:	5162      	str	r2, [r4, r5]
     eac:	4a2c      	ldr	r2, [pc, #176]	; (f60 <ros::NodeHandle_<MbedHardware, 25, 25, 512, 512>::spinOnce()+0x25c>)
     eae:	4013      	ands	r3, r2
     eb0:	d503      	bpl.n	eba <ros::NodeHandle_<MbedHardware, 25, 25, 512, 512>::spinOnce()+0x1b6>
     eb2:	4a2c      	ldr	r2, [pc, #176]	; (f64 <ros::NodeHandle_<MbedHardware, 25, 25, 512, 512>::spinOnce()+0x260>)
     eb4:	3b01      	subs	r3, #1
     eb6:	4313      	orrs	r3, r2
     eb8:	3301      	adds	r3, #1
     eba:	2bff      	cmp	r3, #255	; 0xff
     ebc:	d000      	beq.n	ec0 <ros::NodeHandle_<MbedHardware, 25, 25, 512, 512>::spinOnce()+0x1bc>
     ebe:	e746      	b.n	d4e <ros::NodeHandle_<MbedHardware, 25, 25, 512, 512>::spinOnce()+0x4a>
     ec0:	23aa      	movs	r3, #170	; 0xaa
     ec2:	00db      	lsls	r3, r3, #3
     ec4:	58e3      	ldr	r3, [r4, r3]
     ec6:	2b00      	cmp	r3, #0
     ec8:	d10e      	bne.n	ee8 <ros::NodeHandle_<MbedHardware, 25, 25, 512, 512>::spinOnce()+0x1e4>
     eca:	0020      	movs	r0, r4
     ecc:	f7ff fd6e 	bl	9ac <ros::NodeHandle_<MbedHardware, 25, 25, 512, 512>::requestSyncTime()>
     ed0:	0020      	movs	r0, r4
     ed2:	f7ff fd7f 	bl	9d4 <ros::NodeHandle_<MbedHardware, 25, 25, 512, 512>::negotiateTopics()>
     ed6:	23ac      	movs	r3, #172	; 0xac
     ed8:	2001      	movs	r0, #1
     eda:	00db      	lsls	r3, r3, #3
     edc:	50e7      	str	r7, [r4, r3]
     ede:	9b05      	ldr	r3, [sp, #20]
     ee0:	50e7      	str	r7, [r4, r3]
     ee2:	4240      	negs	r0, r0
     ee4:	b007      	add	sp, #28
     ee6:	bdf0      	pop	{r4, r5, r6, r7, pc}
     ee8:	2b0a      	cmp	r3, #10
     eea:	d107      	bne.n	efc <ros::NodeHandle_<MbedHardware, 25, 25, 512, 512>::spinOnce()+0x1f8>
     eec:	0021      	movs	r1, r4
     eee:	0020      	movs	r0, r4
     ef0:	3180      	adds	r1, #128	; 0x80
     ef2:	f7ff fdd5 	bl	aa0 <ros::NodeHandle_<MbedHardware, 25, 25, 512, 512>::syncTime(unsigned char*)>
     ef6:	2301      	movs	r3, #1
     ef8:	9303      	str	r3, [sp, #12]
     efa:	e728      	b.n	d4e <ros::NodeHandle_<MbedHardware, 25, 25, 512, 512>::spinOnce()+0x4a>
     efc:	2b06      	cmp	r3, #6
     efe:	d10a      	bne.n	f16 <ros::NodeHandle_<MbedHardware, 25, 25, 512, 512>::spinOnce()+0x212>
     f00:	23ae      	movs	r3, #174	; 0xae
     f02:	0021      	movs	r1, r4
     f04:	00db      	lsls	r3, r3, #3
     f06:	18e0      	adds	r0, r4, r3
     f08:	3180      	adds	r1, #128	; 0x80
     f0a:	f7ff fcb0 	bl	86e <rosserial_msgs::RequestParamResponse::deserialize(unsigned char*)>
     f0e:	2201      	movs	r2, #1
     f10:	4b15      	ldr	r3, [pc, #84]	; (f68 <ros::NodeHandle_<MbedHardware, 25, 25, 512, 512>::spinOnce()+0x264>)
     f12:	54e2      	strb	r2, [r4, r3]
     f14:	e71b      	b.n	d4e <ros::NodeHandle_<MbedHardware, 25, 25, 512, 512>::spinOnce()+0x4a>
     f16:	2b0b      	cmp	r3, #11
     f18:	d105      	bne.n	f26 <ros::NodeHandle_<MbedHardware, 25, 25, 512, 512>::spinOnce()+0x222>
     f1a:	2200      	movs	r2, #0
     f1c:	4b0b      	ldr	r3, [pc, #44]	; (f4c <ros::NodeHandle_<MbedHardware, 25, 25, 512, 512>::spinOnce()+0x248>)
     f1e:	54e2      	strb	r2, [r4, r3]
     f20:	2301      	movs	r3, #1
     f22:	9301      	str	r3, [sp, #4]
     f24:	e713      	b.n	d4e <ros::NodeHandle_<MbedHardware, 25, 25, 512, 512>::spinOnce()+0x4a>
     f26:	33d4      	adds	r3, #212	; 0xd4
     f28:	009b      	lsls	r3, r3, #2
     f2a:	18e3      	adds	r3, r4, r3
     f2c:	6858      	ldr	r0, [r3, #4]
     f2e:	2800      	cmp	r0, #0
     f30:	d100      	bne.n	f34 <ros::NodeHandle_<MbedHardware, 25, 25, 512, 512>::spinOnce()+0x230>
     f32:	e70c      	b.n	d4e <ros::NodeHandle_<MbedHardware, 25, 25, 512, 512>::spinOnce()+0x4a>
     f34:	0021      	movs	r1, r4
     f36:	6803      	ldr	r3, [r0, #0]
     f38:	3180      	adds	r1, #128	; 0x80
     f3a:	681b      	ldr	r3, [r3, #0]
     f3c:	4798      	blx	r3
     f3e:	e706      	b.n	d4e <ros::NodeHandle_<MbedHardware, 25, 25, 512, 512>::spinOnce()+0x4a>
     f40:	2004      	movs	r0, #4
     f42:	e7ce      	b.n	ee2 <ros::NodeHandle_<MbedHardware, 25, 25, 512, 512>::spinOnce()+0x1de>
     f44:	00000564 	.word	0x00000564
     f48:	00002af8 	.word	0x00002af8
     f4c:	0000055c 	.word	0x0000055c
     f50:	000009c4 	.word	0x000009c4
     f54:	00000554 	.word	0x00000554
     f58:	0000054c 	.word	0x0000054c
     f5c:	00001388 	.word	0x00001388
     f60:	800000ff 	.word	0x800000ff
     f64:	ffffff00 	.word	0xffffff00
     f68:	0000056c 	.word	0x0000056c

00000f6c <main>:
     f6c:	b510      	push	{r4, lr}
     f6e:	4c1e      	ldr	r4, [pc, #120]	; (fe8 <main+0x7c>)
     f70:	1d20      	adds	r0, r4, #4
     f72:	6de1      	ldr	r1, [r4, #92]	; 0x5c
     f74:	f002 fe33 	bl	3bde <mbed::SerialBase::baud(int)>
     f78:	22a9      	movs	r2, #169	; 0xa9
     f7a:	2300      	movs	r3, #0
     f7c:	00d2      	lsls	r2, r2, #3
     f7e:	50a3      	str	r3, [r4, r2]
     f80:	4a1a      	ldr	r2, [pc, #104]	; (fec <main+0x80>)
     f82:	50a3      	str	r3, [r4, r2]
     f84:	4a1a      	ldr	r2, [pc, #104]	; (ff0 <main+0x84>)
     f86:	50a3      	str	r3, [r4, r2]
     f88:	3a04      	subs	r2, #4
     f8a:	50a3      	str	r3, [r4, r2]
     f8c:	4919      	ldr	r1, [pc, #100]	; (ff4 <main+0x88>)
     f8e:	009a      	lsls	r2, r3, #2
     f90:	1852      	adds	r2, r2, r1
     f92:	58a2      	ldr	r2, [r4, r2]
     f94:	2a00      	cmp	r2, #0
     f96:	d11f      	bne.n	fd8 <main+0x6c>
     f98:	001a      	movs	r2, r3
     f9a:	3239      	adds	r2, #57	; 0x39
     f9c:	32ff      	adds	r2, #255	; 0xff
     f9e:	4916      	ldr	r1, [pc, #88]	; (ff8 <main+0x8c>)
     fa0:	0092      	lsls	r2, r2, #2
     fa2:	18a2      	adds	r2, r4, r2
     fa4:	3364      	adds	r3, #100	; 0x64
     fa6:	6051      	str	r1, [r2, #4]
     fa8:	604b      	str	r3, [r1, #4]
     faa:	2300      	movs	r3, #0
     fac:	4911      	ldr	r1, [pc, #68]	; (ff4 <main+0x88>)
     fae:	009a      	lsls	r2, r3, #2
     fb0:	1852      	adds	r2, r2, r1
     fb2:	58a2      	ldr	r2, [r4, r2]
     fb4:	2a00      	cmp	r2, #0
     fb6:	d113      	bne.n	fe0 <main+0x74>
     fb8:	001a      	movs	r2, r3
     fba:	3239      	adds	r2, #57	; 0x39
     fbc:	32ff      	adds	r2, #255	; 0xff
     fbe:	490f      	ldr	r1, [pc, #60]	; (ffc <main+0x90>)
     fc0:	0092      	lsls	r2, r2, #2
     fc2:	18a2      	adds	r2, r4, r2
     fc4:	3364      	adds	r3, #100	; 0x64
     fc6:	6051      	str	r1, [r2, #4]
     fc8:	604b      	str	r3, [r1, #4]
     fca:	0020      	movs	r0, r4
     fcc:	f7ff fe9a 	bl	d04 <ros::NodeHandle_<MbedHardware, 25, 25, 512, 512>::spinOnce()>
     fd0:	2001      	movs	r0, #1
     fd2:	f002 fead 	bl	3d30 <wait_ms>
     fd6:	e7f8      	b.n	fca <main+0x5e>
     fd8:	3301      	adds	r3, #1
     fda:	2b19      	cmp	r3, #25
     fdc:	d1d6      	bne.n	f8c <main+0x20>
     fde:	e7e4      	b.n	faa <main+0x3e>
     fe0:	3301      	adds	r3, #1
     fe2:	2b19      	cmp	r3, #25
     fe4:	d1e2      	bne.n	fac <main+0x40>
     fe6:	e7f0      	b.n	fca <main+0x5e>
     fe8:	1ffff174 	.word	0x1ffff174
     fec:	0000054c 	.word	0x0000054c
     ff0:	00000554 	.word	0x00000554
     ff4:	000004e4 	.word	0x000004e4
     ff8:	1ffff73c 	.word	0x1ffff73c
     ffc:	1ffff788 	.word	0x1ffff788

00001000 <ros::NodeHandle_<MbedHardware, 25, 25, 512, 512>::publish(int, ros::Msg const*)>:
    1000:	b5f0      	push	{r4, r5, r6, r7, lr}
    1002:	0004      	movs	r4, r0
    1004:	b085      	sub	sp, #20
    1006:	000e      	movs	r6, r1
    1008:	2963      	cmp	r1, #99	; 0x63
    100a:	dd04      	ble.n	1016 <ros::NodeHandle_<MbedHardware, 25, 25, 512, 512>::publish(int, ros::Msg const*)+0x16>
    100c:	2500      	movs	r5, #0
    100e:	4b2b      	ldr	r3, [pc, #172]	; (10bc <ros::NodeHandle_<MbedHardware, 25, 25, 512, 512>::publish(int, ros::Msg const*)+0xbc>)
    1010:	5cc3      	ldrb	r3, [r0, r3]
    1012:	42ab      	cmp	r3, r5
    1014:	d04e      	beq.n	10b4 <ros::NodeHandle_<MbedHardware, 25, 25, 512, 512>::publish(int, ros::Msg const*)+0xb4>
    1016:	6813      	ldr	r3, [r2, #0]
    1018:	4929      	ldr	r1, [pc, #164]	; (10c0 <ros::NodeHandle_<MbedHardware, 25, 25, 512, 512>::publish(int, ros::Msg const*)+0xc0>)
    101a:	681b      	ldr	r3, [r3, #0]
    101c:	1861      	adds	r1, r4, r1
    101e:	0010      	movs	r0, r2
    1020:	4798      	blx	r3
    1022:	23a0      	movs	r3, #160	; 0xa0
    1024:	22ff      	movs	r2, #255	; 0xff
    1026:	009b      	lsls	r3, r3, #2
    1028:	54e2      	strb	r2, [r4, r3]
    102a:	4b26      	ldr	r3, [pc, #152]	; (10c4 <ros::NodeHandle_<MbedHardware, 25, 25, 512, 512>::publish(int, ros::Msg const*)+0xc4>)
    102c:	3a01      	subs	r2, #1
    102e:	54e2      	strb	r2, [r4, r3]
    1030:	4a25      	ldr	r2, [pc, #148]	; (10c8 <ros::NodeHandle_<MbedHardware, 25, 25, 512, 512>::publish(int, ros::Msg const*)+0xc8>)
    1032:	b2c3      	uxtb	r3, r0
    1034:	54a3      	strb	r3, [r4, r2]
    1036:	4925      	ldr	r1, [pc, #148]	; (10cc <ros::NodeHandle_<MbedHardware, 25, 25, 512, 512>::publish(int, ros::Msg const*)+0xcc>)
    1038:	1202      	asrs	r2, r0, #8
    103a:	b2d2      	uxtb	r2, r2
    103c:	5462      	strb	r2, [r4, r1]
    103e:	189b      	adds	r3, r3, r2
    1040:	22a1      	movs	r2, #161	; 0xa1
    1042:	43db      	mvns	r3, r3
    1044:	0092      	lsls	r2, r2, #2
    1046:	54a3      	strb	r3, [r4, r2]
    1048:	4b21      	ldr	r3, [pc, #132]	; (10d0 <ros::NodeHandle_<MbedHardware, 25, 25, 512, 512>::publish(int, ros::Msg const*)+0xd0>)
    104a:	2205      	movs	r2, #5
    104c:	54e6      	strb	r6, [r4, r3]
    104e:	4b21      	ldr	r3, [pc, #132]	; (10d4 <ros::NodeHandle_<MbedHardware, 25, 25, 512, 512>::publish(int, ros::Msg const*)+0xd4>)
    1050:	0a36      	lsrs	r6, r6, #8
    1052:	54e6      	strb	r6, [r4, r3]
    1054:	2300      	movs	r3, #0
    1056:	1d85      	adds	r5, r0, #6
    1058:	42aa      	cmp	r2, r5
    105a:	dc06      	bgt.n	106a <ros::NodeHandle_<MbedHardware, 25, 25, 512, 512>::publish(int, ros::Msg const*)+0x6a>
    105c:	21a0      	movs	r1, #160	; 0xa0
    105e:	0089      	lsls	r1, r1, #2
    1060:	1851      	adds	r1, r2, r1
    1062:	5c61      	ldrb	r1, [r4, r1]
    1064:	3201      	adds	r2, #1
    1066:	185b      	adds	r3, r3, r1
    1068:	e7f6      	b.n	1058 <ros::NodeHandle_<MbedHardware, 25, 25, 512, 512>::publish(int, ros::Msg const*)+0x58>
    106a:	43db      	mvns	r3, r3
    106c:	4a14      	ldr	r2, [pc, #80]	; (10c0 <ros::NodeHandle_<MbedHardware, 25, 25, 512, 512>::publish(int, ros::Msg const*)+0xc0>)
    106e:	0005      	movs	r5, r0
    1070:	1820      	adds	r0, r4, r0
    1072:	1880      	adds	r0, r0, r2
    1074:	7003      	strb	r3, [r0, #0]
    1076:	2380      	movs	r3, #128	; 0x80
    1078:	3508      	adds	r5, #8
    107a:	009b      	lsls	r3, r3, #2
    107c:	429d      	cmp	r5, r3
    107e:	dc0b      	bgt.n	1098 <ros::NodeHandle_<MbedHardware, 25, 25, 512, 512>::publish(int, ros::Msg const*)+0x98>
    1080:	3380      	adds	r3, #128	; 0x80
    1082:	18e7      	adds	r7, r4, r3
    1084:	003e      	movs	r6, r7
    1086:	1bf3      	subs	r3, r6, r7
    1088:	429d      	cmp	r5, r3
    108a:	dd13      	ble.n	10b4 <ros::NodeHandle_<MbedHardware, 25, 25, 512, 512>::publish(int, ros::Msg const*)+0xb4>
    108c:	7831      	ldrb	r1, [r6, #0]
    108e:	1d20      	adds	r0, r4, #4
    1090:	f000 fa39 	bl	1506 <BufferedSerial::putc(int)>
    1094:	3601      	adds	r6, #1
    1096:	e7f6      	b.n	1086 <ros::NodeHandle_<MbedHardware, 25, 25, 512, 512>::publish(int, ros::Msg const*)+0x86>
    1098:	4b0f      	ldr	r3, [pc, #60]	; (10d8 <ros::NodeHandle_<MbedHardware, 25, 25, 512, 512>::publish(int, ros::Msg const*)+0xd8>)
    109a:	aa01      	add	r2, sp, #4
    109c:	9301      	str	r3, [sp, #4]
    109e:	2303      	movs	r3, #3
    10a0:	7113      	strb	r3, [r2, #4]
    10a2:	4b0e      	ldr	r3, [pc, #56]	; (10dc <ros::NodeHandle_<MbedHardware, 25, 25, 512, 512>::publish(int, ros::Msg const*)+0xdc>)
    10a4:	2107      	movs	r1, #7
    10a6:	6093      	str	r3, [r2, #8]
    10a8:	6823      	ldr	r3, [r4, #0]
    10aa:	0020      	movs	r0, r4
    10ac:	681b      	ldr	r3, [r3, #0]
    10ae:	2501      	movs	r5, #1
    10b0:	4798      	blx	r3
    10b2:	426d      	negs	r5, r5
    10b4:	0028      	movs	r0, r5
    10b6:	b005      	add	sp, #20
    10b8:	bdf0      	pop	{r4, r5, r6, r7, pc}
    10ba:	46c0      	nop			; (mov r8, r8)
    10bc:	0000055c 	.word	0x0000055c
    10c0:	00000287 	.word	0x00000287
    10c4:	00000281 	.word	0x00000281
    10c8:	00000282 	.word	0x00000282
    10cc:	00000283 	.word	0x00000283
    10d0:	00000285 	.word	0x00000285
    10d4:	00000286 	.word	0x00000286
    10d8:	0000737c 	.word	0x0000737c
    10dc:	0000749e 	.word	0x0000749e

000010e0 <ros::NodeHandle_<MbedHardware, 25, 25, 512, 512>::~NodeHandle_()>:
    10e0:	b510      	push	{r4, lr}
    10e2:	0004      	movs	r4, r0
    10e4:	4b02      	ldr	r3, [pc, #8]	; (10f0 <ros::NodeHandle_<MbedHardware, 25, 25, 512, 512>::~NodeHandle_()+0x10>)
    10e6:	c008      	stmia	r0!, {r3}
    10e8:	f000 f934 	bl	1354 <BufferedSerial::~BufferedSerial()>
    10ec:	0020      	movs	r0, r4
    10ee:	bd10      	pop	{r4, pc}
    10f0:	000073c4 	.word	0x000073c4

000010f4 <Servo::write(float)>:
    10f4:	b5f7      	push	{r0, r1, r2, r4, r5, r6, r7, lr}
    10f6:	68c7      	ldr	r7, [r0, #12]
    10f8:	0006      	movs	r6, r0
    10fa:	1c38      	adds	r0, r7, #0
    10fc:	1c0c      	adds	r4, r1, #0
    10fe:	f005 f967 	bl	63d0 <__aeabi_f2d>
    1102:	0002      	movs	r2, r0
    1104:	000b      	movs	r3, r1
    1106:	f004 f8bd 	bl	5284 <__aeabi_dadd>
    110a:	9000      	str	r0, [sp, #0]
    110c:	9101      	str	r1, [sp, #4]
    110e:	1c20      	adds	r0, r4, #0
    1110:	f005 f95e 	bl	63d0 <__aeabi_f2d>
    1114:	2200      	movs	r2, #0
    1116:	4b20      	ldr	r3, [pc, #128]	; (1198 <Servo::write(float)+0xa4>)
    1118:	f004 fe44 	bl	5da4 <__aeabi_dsub>
    111c:	000b      	movs	r3, r1
    111e:	0002      	movs	r2, r0
    1120:	9800      	ldr	r0, [sp, #0]
    1122:	9901      	ldr	r1, [sp, #4]
    1124:	f004 fbbe 	bl	58a4 <__aeabi_dmul>
    1128:	f005 f9a4 	bl	6474 <__aeabi_d2f>
    112c:	2380      	movs	r3, #128	; 0x80
    112e:	061b      	lsls	r3, r3, #24
    1130:	18fd      	adds	r5, r7, r3
    1132:	1c29      	adds	r1, r5, #0
    1134:	9000      	str	r0, [sp, #0]
    1136:	f003 f971 	bl	441c <__aeabi_fcmplt>
    113a:	2800      	cmp	r0, #0
    113c:	d107      	bne.n	114e <Servo::write(float)+0x5a>
    113e:	9900      	ldr	r1, [sp, #0]
    1140:	1c38      	adds	r0, r7, #0
    1142:	f003 f96b 	bl	441c <__aeabi_fcmplt>
    1146:	1c3d      	adds	r5, r7, #0
    1148:	2800      	cmp	r0, #0
    114a:	d100      	bne.n	114e <Servo::write(float)+0x5a>
    114c:	9d00      	ldr	r5, [sp, #0]
    114e:	f000 fb33 	bl	17b8 <core_util_critical_section_enter>
    1152:	1c28      	adds	r0, r5, #0
    1154:	f005 f93c 	bl	63d0 <__aeabi_f2d>
    1158:	4a10      	ldr	r2, [pc, #64]	; (119c <Servo::write(float)+0xa8>)
    115a:	4b11      	ldr	r3, [pc, #68]	; (11a0 <Servo::write(float)+0xac>)
    115c:	f004 f892 	bl	5284 <__aeabi_dadd>
    1160:	f005 f988 	bl	6474 <__aeabi_d2f>
    1164:	1c01      	adds	r1, r0, #0
    1166:	0030      	movs	r0, r6
    1168:	f002 f978 	bl	345c <pwmout_pulsewidth>
    116c:	f000 fb3a 	bl	17e4 <core_util_critical_section_exit>
    1170:	2100      	movs	r1, #0
    1172:	1c20      	adds	r0, r4, #0
    1174:	f003 f952 	bl	441c <__aeabi_fcmplt>
    1178:	2800      	cmp	r0, #0
    117a:	d108      	bne.n	118e <Servo::write(float)+0x9a>
    117c:	21fe      	movs	r1, #254	; 0xfe
    117e:	1c20      	adds	r0, r4, #0
    1180:	0589      	lsls	r1, r1, #22
    1182:	f003 f95f 	bl	4444 <__aeabi_fcmpgt>
    1186:	2800      	cmp	r0, #0
    1188:	d103      	bne.n	1192 <Servo::write(float)+0x9e>
    118a:	6174      	str	r4, [r6, #20]
    118c:	bdf7      	pop	{r0, r1, r2, r4, r5, r6, r7, pc}
    118e:	2400      	movs	r4, #0
    1190:	e7fb      	b.n	118a <Servo::write(float)+0x96>
    1192:	24fe      	movs	r4, #254	; 0xfe
    1194:	05a4      	lsls	r4, r4, #22
    1196:	e7f8      	b.n	118a <Servo::write(float)+0x96>
    1198:	3fe00000 	.word	0x3fe00000
    119c:	bc6a7efa 	.word	0xbc6a7efa
    11a0:	3f589374 	.word	0x3f589374

000011a4 <Servo::Servo(PinName)>:
    11a4:	b570      	push	{r4, r5, r6, lr}
    11a6:	0004      	movs	r4, r0
    11a8:	000d      	movs	r5, r1
    11aa:	f000 fb05 	bl	17b8 <core_util_critical_section_enter>
    11ae:	0029      	movs	r1, r5
    11b0:	0020      	movs	r0, r4
    11b2:	f002 f84d 	bl	3250 <pwmout_init>
    11b6:	f000 fb15 	bl	17e4 <core_util_critical_section_exit>
    11ba:	4b09      	ldr	r3, [pc, #36]	; (11e0 <Servo::Servo(PinName)+0x3c>)
    11bc:	60e3      	str	r3, [r4, #12]
    11be:	4b09      	ldr	r3, [pc, #36]	; (11e4 <Servo::Servo(PinName)+0x40>)
    11c0:	6123      	str	r3, [r4, #16]
    11c2:	f000 faf9 	bl	17b8 <core_util_critical_section_enter>
    11c6:	0020      	movs	r0, r4
    11c8:	4907      	ldr	r1, [pc, #28]	; (11e8 <Servo::Servo(PinName)+0x44>)
    11ca:	f002 f831 	bl	3230 <pwmout_period>
    11ce:	f000 fb09 	bl	17e4 <core_util_critical_section_exit>
    11d2:	21fc      	movs	r1, #252	; 0xfc
    11d4:	0020      	movs	r0, r4
    11d6:	0589      	lsls	r1, r1, #22
    11d8:	f7ff ff8c 	bl	10f4 <Servo::write(float)>
    11dc:	0020      	movs	r0, r4
    11de:	bd70      	pop	{r4, r5, r6, pc}
    11e0:	3a03126f 	.word	0x3a03126f
    11e4:	43340000 	.word	0x43340000
    11e8:	3ca3d70a 	.word	0x3ca3d70a

000011ec <Servo::position(float)>:
    11ec:	b5f8      	push	{r3, r4, r5, r6, r7, lr}
    11ee:	0006      	movs	r6, r0
    11f0:	1c08      	adds	r0, r1, #0
    11f2:	6931      	ldr	r1, [r6, #16]
    11f4:	f003 fae4 	bl	47c0 <__aeabi_fdiv>
    11f8:	1c01      	adds	r1, r0, #0
    11fa:	f003 f94f 	bl	449c <__aeabi_fadd>
    11fe:	21fe      	movs	r1, #254	; 0xfe
    1200:	68f5      	ldr	r5, [r6, #12]
    1202:	0589      	lsls	r1, r1, #22
    1204:	f003 fdec 	bl	4de0 <__aeabi_fsub>
    1208:	1c29      	adds	r1, r5, #0
    120a:	f003 fcc9 	bl	4ba0 <__aeabi_fmul>
    120e:	2380      	movs	r3, #128	; 0x80
    1210:	061b      	lsls	r3, r3, #24
    1212:	18ec      	adds	r4, r5, r3
    1214:	1c21      	adds	r1, r4, #0
    1216:	1c07      	adds	r7, r0, #0
    1218:	f003 f900 	bl	441c <__aeabi_fcmplt>
    121c:	2800      	cmp	r0, #0
    121e:	d107      	bne.n	1230 <Servo::position(float)+0x44>
    1220:	1c39      	adds	r1, r7, #0
    1222:	1c28      	adds	r0, r5, #0
    1224:	f003 f8fa 	bl	441c <__aeabi_fcmplt>
    1228:	1c2c      	adds	r4, r5, #0
    122a:	2800      	cmp	r0, #0
    122c:	d100      	bne.n	1230 <Servo::position(float)+0x44>
    122e:	1c3c      	adds	r4, r7, #0
    1230:	f000 fac2 	bl	17b8 <core_util_critical_section_enter>
    1234:	1c20      	adds	r0, r4, #0
    1236:	f005 f8cb 	bl	63d0 <__aeabi_f2d>
    123a:	4a06      	ldr	r2, [pc, #24]	; (1254 <Servo::position(float)+0x68>)
    123c:	4b06      	ldr	r3, [pc, #24]	; (1258 <Servo::position(float)+0x6c>)
    123e:	f004 f821 	bl	5284 <__aeabi_dadd>
    1242:	f005 f917 	bl	6474 <__aeabi_d2f>
    1246:	1c01      	adds	r1, r0, #0
    1248:	0030      	movs	r0, r6
    124a:	f002 f907 	bl	345c <pwmout_pulsewidth>
    124e:	f000 fac9 	bl	17e4 <core_util_critical_section_exit>
    1252:	bdf8      	pop	{r3, r4, r5, r6, r7, pc}
    1254:	bc6a7efa 	.word	0xbc6a7efa
    1258:	3f589374 	.word	0x3f589374

0000125c <_start>:
    125c:	4807      	ldr	r0, [pc, #28]	; (127c <_start+0x20>)
    125e:	4a08      	ldr	r2, [pc, #32]	; (1280 <_start+0x24>)
    1260:	b510      	push	{r4, lr}
    1262:	1a12      	subs	r2, r2, r0
    1264:	2100      	movs	r1, #0
    1266:	f005 fbb3 	bl	69d0 <memset>
    126a:	f002 fe25 	bl	3eb8 <software_init_hook>
    126e:	f005 fb51 	bl	6914 <__libc_init_array>
    1272:	f002 fe28 	bl	3ec6 <__wrap_main>
    1276:	f002 fe69 	bl	3f4c <__wrap_exit>
    127a:	46c0      	nop			; (mov r8, r8)
    127c:	1ffff158 	.word	0x1ffff158
    1280:	200011b4 	.word	0x200011b4

00001284 <ros::normalizeSecNSec(unsigned long&, unsigned long&)>:
    1284:	b570      	push	{r4, r5, r6, lr}
    1286:	680d      	ldr	r5, [r1, #0]
    1288:	0006      	movs	r6, r0
    128a:	000c      	movs	r4, r1
    128c:	0028      	movs	r0, r5
    128e:	4906      	ldr	r1, [pc, #24]	; (12a8 <ros::normalizeSecNSec(unsigned long&, unsigned long&)+0x24>)
    1290:	f002 ff3c 	bl	410c <__udivsi3>
    1294:	6833      	ldr	r3, [r6, #0]
    1296:	4904      	ldr	r1, [pc, #16]	; (12a8 <ros::normalizeSecNSec(unsigned long&, unsigned long&)+0x24>)
    1298:	1818      	adds	r0, r3, r0
    129a:	6030      	str	r0, [r6, #0]
    129c:	0028      	movs	r0, r5
    129e:	f002 ffbb 	bl	4218 <__aeabi_uidivmod>
    12a2:	6021      	str	r1, [r4, #0]
    12a4:	bd70      	pop	{r4, r5, r6, pc}
    12a6:	46c0      	nop			; (mov r8, r8)
    12a8:	3b9aca00 	.word	0x3b9aca00

000012ac <BufferedSerial::readable()>:
    12ac:	6b43      	ldr	r3, [r0, #52]	; 0x34
    12ae:	6b80      	ldr	r0, [r0, #56]	; 0x38
    12b0:	1a18      	subs	r0, r3, r0
    12b2:	1e43      	subs	r3, r0, #1
    12b4:	4198      	sbcs	r0, r3
    12b6:	4770      	bx	lr

000012b8 <BufferedSerial::writeable()>:
    12b8:	2001      	movs	r0, #1
    12ba:	4770      	bx	lr

000012bc <BufferedSerial::getc()>:
    12bc:	b570      	push	{r4, r5, r6, lr}
    12be:	0004      	movs	r4, r0
    12c0:	6b83      	ldr	r3, [r0, #56]	; 0x38
    12c2:	1c5a      	adds	r2, r3, #1
    12c4:	6382      	str	r2, [r0, #56]	; 0x38
    12c6:	6b02      	ldr	r2, [r0, #48]	; 0x30
    12c8:	6b80      	ldr	r0, [r0, #56]	; 0x38
    12ca:	5cd5      	ldrb	r5, [r2, r3]
    12cc:	6be3      	ldr	r3, [r4, #60]	; 0x3c
    12ce:	1e59      	subs	r1, r3, #1
    12d0:	f002 ffa2 	bl	4218 <__aeabi_uidivmod>
    12d4:	0028      	movs	r0, r5
    12d6:	63a1      	str	r1, [r4, #56]	; 0x38
    12d8:	bd70      	pop	{r4, r5, r6, pc}

000012da <void mbed::Callback<void ()>::function_move<mbed::Callback<void ()>::method_context<BufferedSerial, void (BufferedSerial::*)()> >(void*, void const*)>:
    12da:	b510      	push	{r4, lr}
    12dc:	2800      	cmp	r0, #0
    12de:	d001      	beq.n	12e4 <void mbed::Callback<void ()>::function_move<mbed::Callback<void ()>::method_context<BufferedSerial, void (BufferedSerial::*)()> >(void*, void const*)+0xa>
    12e0:	c91c      	ldmia	r1!, {r2, r3, r4}
    12e2:	c01c      	stmia	r0!, {r2, r3, r4}
    12e4:	bd10      	pop	{r4, pc}

000012e6 <void mbed::Callback<void ()>::function_dtor<mbed::Callback<void ()>::method_context<BufferedSerial, void (BufferedSerial::*)()> >(void*)>:
    12e6:	4770      	bx	lr

000012e8 <void mbed::Callback<void ()>::function_call<mbed::Callback<void ()>::method_context<BufferedSerial, void (BufferedSerial::*)()> >(void const*)>:
    12e8:	b510      	push	{r4, lr}
    12ea:	6844      	ldr	r4, [r0, #4]
    12ec:	6883      	ldr	r3, [r0, #8]
    12ee:	1061      	asrs	r1, r4, #1
    12f0:	6802      	ldr	r2, [r0, #0]
    12f2:	07e0      	lsls	r0, r4, #31
    12f4:	d501      	bpl.n	12fa <void mbed::Callback<void ()>::function_call<mbed::Callback<void ()>::method_context<BufferedSerial, void (BufferedSerial::*)()> >(void const*)+0x12>
    12f6:	5858      	ldr	r0, [r3, r1]
    12f8:	5882      	ldr	r2, [r0, r2]
    12fa:	1858      	adds	r0, r3, r1
    12fc:	4790      	blx	r2
    12fe:	bd10      	pop	{r4, pc}

00001300 <mbed::Callback<void ()>::~Callback()>:
    1300:	68c3      	ldr	r3, [r0, #12]
    1302:	b510      	push	{r4, lr}
    1304:	0004      	movs	r4, r0
    1306:	2b00      	cmp	r3, #0
    1308:	d001      	beq.n	130e <mbed::Callback<void ()>::~Callback()+0xe>
    130a:	689b      	ldr	r3, [r3, #8]
    130c:	4798      	blx	r3
    130e:	0020      	movs	r0, r4
    1310:	bd10      	pop	{r4, pc}
	...

00001314 <mbed::SerialBase::~SerialBase()>:
    1314:	b570      	push	{r4, r5, r6, lr}
    1316:	0006      	movs	r6, r0
    1318:	4b08      	ldr	r3, [pc, #32]	; (133c <mbed::SerialBase::~SerialBase()+0x28>)
    131a:	360c      	adds	r6, #12
    131c:	0004      	movs	r4, r0
    131e:	6003      	str	r3, [r0, #0]
    1320:	2e00      	cmp	r6, #0
    1322:	d008      	beq.n	1336 <mbed::SerialBase::~SerialBase()+0x22>
    1324:	0005      	movs	r5, r0
    1326:	352c      	adds	r5, #44	; 0x2c
    1328:	42b5      	cmp	r5, r6
    132a:	d004      	beq.n	1336 <mbed::SerialBase::~SerialBase()+0x22>
    132c:	3d10      	subs	r5, #16
    132e:	0028      	movs	r0, r5
    1330:	f7ff ffe6 	bl	1300 <mbed::Callback<void ()>::~Callback()>
    1334:	e7f8      	b.n	1328 <mbed::SerialBase::~SerialBase()+0x14>
    1336:	0020      	movs	r0, r4
    1338:	bd70      	pop	{r4, r5, r6, pc}
    133a:	46c0      	nop			; (mov r8, r8)
    133c:	00007984 	.word	0x00007984

00001340 <mbed::SerialBase::~SerialBase()>:
    1340:	b510      	push	{r4, lr}
    1342:	0004      	movs	r4, r0
    1344:	f7ff ffe6 	bl	1314 <mbed::SerialBase::~SerialBase()>
    1348:	0020      	movs	r0, r4
    134a:	f002 fe1d 	bl	3f88 <operator delete(void*)>
    134e:	0020      	movs	r0, r4
    1350:	bd10      	pop	{r4, pc}
	...

00001354 <BufferedSerial::~BufferedSerial()>:
    1354:	b530      	push	{r4, r5, lr}
    1356:	2500      	movs	r5, #0
    1358:	0004      	movs	r4, r0
    135a:	4b12      	ldr	r3, [pc, #72]	; (13a4 <BufferedSerial::~BufferedSerial()+0x50>)
    135c:	b085      	sub	sp, #20
    135e:	3308      	adds	r3, #8
    1360:	6003      	str	r3, [r0, #0]
    1362:	002a      	movs	r2, r5
    1364:	4669      	mov	r1, sp
    1366:	9503      	str	r5, [sp, #12]
    1368:	f002 fc88 	bl	3c7c <mbed::SerialBase::attach(mbed::Callback<void ()>, mbed::SerialBase::IrqType)>
    136c:	4668      	mov	r0, sp
    136e:	f7ff ffc7 	bl	1300 <mbed::Callback<void ()>::~Callback()>
    1372:	2201      	movs	r2, #1
    1374:	4669      	mov	r1, sp
    1376:	0020      	movs	r0, r4
    1378:	9503      	str	r5, [sp, #12]
    137a:	f002 fc7f 	bl	3c7c <mbed::SerialBase::attach(mbed::Callback<void ()>, mbed::SerialBase::IrqType)>
    137e:	4668      	mov	r0, sp
    1380:	f7ff ffbe 	bl	1300 <mbed::Callback<void ()>::~Callback()>
    1384:	0020      	movs	r0, r4
    1386:	3040      	adds	r0, #64	; 0x40
    1388:	f000 f932 	bl	15f0 <Buffer<char>::~Buffer()>
    138c:	0020      	movs	r0, r4
    138e:	3030      	adds	r0, #48	; 0x30
    1390:	f000 f92e 	bl	15f0 <Buffer<char>::~Buffer()>
    1394:	4b04      	ldr	r3, [pc, #16]	; (13a8 <BufferedSerial::~BufferedSerial()+0x54>)
    1396:	0020      	movs	r0, r4
    1398:	6023      	str	r3, [r4, #0]
    139a:	f7ff ffbb 	bl	1314 <mbed::SerialBase::~SerialBase()>
    139e:	0020      	movs	r0, r4
    13a0:	b005      	add	sp, #20
    13a2:	bd30      	pop	{r4, r5, pc}
    13a4:	000075bc 	.word	0x000075bc
    13a8:	0000796c 	.word	0x0000796c

000013ac <BufferedSerial::~BufferedSerial()>:
    13ac:	b510      	push	{r4, lr}
    13ae:	0004      	movs	r4, r0
    13b0:	f7ff ffd0 	bl	1354 <BufferedSerial::~BufferedSerial()>
    13b4:	0020      	movs	r0, r4
    13b6:	f002 fde7 	bl	3f88 <operator delete(void*)>
    13ba:	0020      	movs	r0, r4
    13bc:	bd10      	pop	{r4, pc}

000013be <BufferedSerial::txIrq()>:
    13be:	b57f      	push	{r0, r1, r2, r3, r4, r5, r6, lr}
    13c0:	0004      	movs	r4, r0
    13c2:	1d25      	adds	r5, r4, #4
    13c4:	0028      	movs	r0, r5
    13c6:	f002 fade 	bl	3986 <serial_writable>
    13ca:	2800      	cmp	r0, #0
    13cc:	d01d      	beq.n	140a <BufferedSerial::txIrq()+0x4c>
    13ce:	6c62      	ldr	r2, [r4, #68]	; 0x44
    13d0:	6ca3      	ldr	r3, [r4, #72]	; 0x48
    13d2:	429a      	cmp	r2, r3
    13d4:	d00f      	beq.n	13f6 <BufferedSerial::txIrq()+0x38>
    13d6:	6ca3      	ldr	r3, [r4, #72]	; 0x48
    13d8:	1c5a      	adds	r2, r3, #1
    13da:	64a2      	str	r2, [r4, #72]	; 0x48
    13dc:	6c22      	ldr	r2, [r4, #64]	; 0x40
    13de:	6ca0      	ldr	r0, [r4, #72]	; 0x48
    13e0:	5cd6      	ldrb	r6, [r2, r3]
    13e2:	6ce3      	ldr	r3, [r4, #76]	; 0x4c
    13e4:	1e59      	subs	r1, r3, #1
    13e6:	f002 ff17 	bl	4218 <__aeabi_uidivmod>
    13ea:	0028      	movs	r0, r5
    13ec:	64a1      	str	r1, [r4, #72]	; 0x48
    13ee:	0031      	movs	r1, r6
    13f0:	f002 fad5 	bl	399e <serial_putc>
    13f4:	e7e5      	b.n	13c2 <BufferedSerial::txIrq()+0x4>
    13f6:	2300      	movs	r3, #0
    13f8:	0020      	movs	r0, r4
    13fa:	2201      	movs	r2, #1
    13fc:	4669      	mov	r1, sp
    13fe:	9303      	str	r3, [sp, #12]
    1400:	f002 fc3c 	bl	3c7c <mbed::SerialBase::attach(mbed::Callback<void ()>, mbed::SerialBase::IrqType)>
    1404:	4668      	mov	r0, sp
    1406:	f7ff ff7b 	bl	1300 <mbed::Callback<void ()>::~Callback()>
    140a:	bd7f      	pop	{r0, r1, r2, r3, r4, r5, r6, pc}

0000140c <void mbed::SerialBase::attach<BufferedSerial>(BufferedSerial*, void (BufferedSerial::*)(), mbed::SerialBase::IrqType)>:
    140c:	b510      	push	{r4, lr}
    140e:	0014      	movs	r4, r2
    1410:	b086      	sub	sp, #24
    1412:	9303      	str	r3, [sp, #12]
    1414:	aa08      	add	r2, sp, #32
    1416:	4b06      	ldr	r3, [pc, #24]	; (1430 <void mbed::SerialBase::attach<BufferedSerial>(BufferedSerial*, void (BufferedSerial::*)(), mbed::SerialBase::IrqType)+0x24>)
    1418:	7812      	ldrb	r2, [r2, #0]
    141a:	9104      	str	r1, [sp, #16]
    141c:	a902      	add	r1, sp, #8
    141e:	9305      	str	r3, [sp, #20]
    1420:	9402      	str	r4, [sp, #8]
    1422:	f002 fc2b 	bl	3c7c <mbed::SerialBase::attach(mbed::Callback<void ()>, mbed::SerialBase::IrqType)>
    1426:	a802      	add	r0, sp, #8
    1428:	f7ff ff6a 	bl	1300 <mbed::Callback<void ()>::~Callback()>
    142c:	b006      	add	sp, #24
    142e:	bd10      	pop	{r4, pc}
    1430:	00007538 	.word	0x00007538

00001434 <BufferedSerial::BufferedSerial(PinName, PinName, unsigned long, unsigned long, char const*)>:
    1434:	b57f      	push	{r0, r1, r2, r3, r4, r5, r6, lr}
    1436:	001d      	movs	r5, r3
    1438:	2396      	movs	r3, #150	; 0x96
    143a:	0004      	movs	r4, r0
    143c:	019b      	lsls	r3, r3, #6
    143e:	9e08      	ldr	r6, [sp, #32]
    1440:	f002 fbb2 	bl	3ba8 <mbed::RawSerial::RawSerial(PinName, PinName, int)>
    1444:	0020      	movs	r0, r4
    1446:	4b0c      	ldr	r3, [pc, #48]	; (1478 <BufferedSerial::BufferedSerial(PinName, PinName, unsigned long, unsigned long, char const*)+0x44>)
    1448:	0029      	movs	r1, r5
    144a:	3308      	adds	r3, #8
    144c:	6023      	str	r3, [r4, #0]
    144e:	3030      	adds	r0, #48	; 0x30
    1450:	f000 f8e1 	bl	1616 <Buffer<char>::Buffer(unsigned long)>
    1454:	0031      	movs	r1, r6
    1456:	0020      	movs	r0, r4
    1458:	4369      	muls	r1, r5
    145a:	3040      	adds	r0, #64	; 0x40
    145c:	f000 f8db 	bl	1616 <Buffer<char>::Buffer(unsigned long)>
    1460:	2300      	movs	r3, #0
    1462:	0020      	movs	r0, r4
    1464:	9300      	str	r3, [sp, #0]
    1466:	4a05      	ldr	r2, [pc, #20]	; (147c <BufferedSerial::BufferedSerial(PinName, PinName, unsigned long, unsigned long, char const*)+0x48>)
    1468:	0021      	movs	r1, r4
    146a:	f7ff ffcf 	bl	140c <void mbed::SerialBase::attach<BufferedSerial>(BufferedSerial*, void (BufferedSerial::*)(), mbed::SerialBase::IrqType)>
    146e:	0020      	movs	r0, r4
    1470:	6525      	str	r5, [r4, #80]	; 0x50
    1472:	6566      	str	r6, [r4, #84]	; 0x54
    1474:	b004      	add	sp, #16
    1476:	bd70      	pop	{r4, r5, r6, pc}
    1478:	000075bc 	.word	0x000075bc
    147c:	000014e5 	.word	0x000014e5

00001480 <BufferedSerial::prime()>:
    1480:	b530      	push	{r4, r5, lr}
    1482:	0004      	movs	r4, r0
    1484:	b087      	sub	sp, #28
    1486:	3004      	adds	r0, #4
    1488:	f002 fa7d 	bl	3986 <serial_writable>
    148c:	2800      	cmp	r0, #0
    148e:	d016      	beq.n	14be <BufferedSerial::prime()+0x3e>
    1490:	2500      	movs	r5, #0
    1492:	2201      	movs	r2, #1
    1494:	a902      	add	r1, sp, #8
    1496:	0020      	movs	r0, r4
    1498:	9505      	str	r5, [sp, #20]
    149a:	f002 fbef 	bl	3c7c <mbed::SerialBase::attach(mbed::Callback<void ()>, mbed::SerialBase::IrqType)>
    149e:	a802      	add	r0, sp, #8
    14a0:	f7ff ff2e 	bl	1300 <mbed::Callback<void ()>::~Callback()>
    14a4:	0020      	movs	r0, r4
    14a6:	f7ff ff8a 	bl	13be <BufferedSerial::txIrq()>
    14aa:	2301      	movs	r3, #1
    14ac:	4a05      	ldr	r2, [pc, #20]	; (14c4 <BufferedSerial::prime()+0x44>)
    14ae:	9300      	str	r3, [sp, #0]
    14b0:	0021      	movs	r1, r4
    14b2:	002b      	movs	r3, r5
    14b4:	0020      	movs	r0, r4
    14b6:	9202      	str	r2, [sp, #8]
    14b8:	9503      	str	r5, [sp, #12]
    14ba:	f7ff ffa7 	bl	140c <void mbed::SerialBase::attach<BufferedSerial>(BufferedSerial*, void (BufferedSerial::*)(), mbed::SerialBase::IrqType)>
    14be:	b007      	add	sp, #28
    14c0:	bd30      	pop	{r4, r5, pc}
    14c2:	46c0      	nop			; (mov r8, r8)
    14c4:	000013bf 	.word	0x000013bf

000014c8 <Buffer<char>::put(char)>:
    14c8:	b510      	push	{r4, lr}
    14ca:	0004      	movs	r4, r0
    14cc:	6843      	ldr	r3, [r0, #4]
    14ce:	1c5a      	adds	r2, r3, #1
    14d0:	6042      	str	r2, [r0, #4]
    14d2:	6802      	ldr	r2, [r0, #0]
    14d4:	54d1      	strb	r1, [r2, r3]
    14d6:	68e3      	ldr	r3, [r4, #12]
    14d8:	6840      	ldr	r0, [r0, #4]
    14da:	1e59      	subs	r1, r3, #1
    14dc:	f002 fe9c 	bl	4218 <__aeabi_uidivmod>
    14e0:	6061      	str	r1, [r4, #4]
    14e2:	bd10      	pop	{r4, pc}

000014e4 <BufferedSerial::rxIrq()>:
    14e4:	b570      	push	{r4, r5, r6, lr}
    14e6:	1d05      	adds	r5, r0, #4
    14e8:	0004      	movs	r4, r0
    14ea:	0028      	movs	r0, r5
    14ec:	f002 fa34 	bl	3958 <serial_readable>
    14f0:	2800      	cmp	r0, #0
    14f2:	d007      	beq.n	1504 <BufferedSerial::rxIrq()+0x20>
    14f4:	0028      	movs	r0, r5
    14f6:	f002 fa3b 	bl	3970 <serial_getc>
    14fa:	b2c1      	uxtb	r1, r0
    14fc:	0020      	movs	r0, r4
    14fe:	3030      	adds	r0, #48	; 0x30
    1500:	f7ff ffe2 	bl	14c8 <Buffer<char>::put(char)>
    1504:	bd70      	pop	{r4, r5, r6, pc}

00001506 <BufferedSerial::putc(int)>:
    1506:	b570      	push	{r4, r5, r6, lr}
    1508:	0005      	movs	r5, r0
    150a:	000c      	movs	r4, r1
    150c:	3040      	adds	r0, #64	; 0x40
    150e:	b2c9      	uxtb	r1, r1
    1510:	f7ff ffda 	bl	14c8 <Buffer<char>::put(char)>
    1514:	0028      	movs	r0, r5
    1516:	f7ff ffb3 	bl	1480 <BufferedSerial::prime()>
    151a:	0020      	movs	r0, r4
    151c:	bd70      	pop	{r4, r5, r6, pc}

0000151e <BufferedSerial::puts(char const*)>:
    151e:	b570      	push	{r4, r5, r6, lr}
    1520:	0006      	movs	r6, r0
    1522:	000d      	movs	r5, r1
    1524:	1e08      	subs	r0, r1, #0
    1526:	d011      	beq.n	154c <BufferedSerial::puts(char const*)+0x2e>
    1528:	000c      	movs	r4, r1
    152a:	0030      	movs	r0, r6
    152c:	7821      	ldrb	r1, [r4, #0]
    152e:	3040      	adds	r0, #64	; 0x40
    1530:	2900      	cmp	r1, #0
    1532:	d003      	beq.n	153c <BufferedSerial::puts(char const*)+0x1e>
    1534:	3401      	adds	r4, #1
    1536:	f7ff ffc7 	bl	14c8 <Buffer<char>::put(char)>
    153a:	e7f6      	b.n	152a <BufferedSerial::puts(char const*)+0xc>
    153c:	210a      	movs	r1, #10
    153e:	f7ff ffc3 	bl	14c8 <Buffer<char>::put(char)>
    1542:	0030      	movs	r0, r6
    1544:	f7ff ff9c 	bl	1480 <BufferedSerial::prime()>
    1548:	1b60      	subs	r0, r4, r5
    154a:	3001      	adds	r0, #1
    154c:	bd70      	pop	{r4, r5, r6, pc}

0000154e <BufferedSerial::write(void const*, unsigned int)>:
    154e:	b5f8      	push	{r3, r4, r5, r6, r7, lr}
    1550:	0005      	movs	r5, r0
    1552:	000e      	movs	r6, r1
    1554:	1e08      	subs	r0, r1, #0
    1556:	d012      	beq.n	157e <BufferedSerial::write(void const*, unsigned int)+0x30>
    1558:	2000      	movs	r0, #0
    155a:	4282      	cmp	r2, r0
    155c:	d00f      	beq.n	157e <BufferedSerial::write(void const*, unsigned int)+0x30>
    155e:	000c      	movs	r4, r1
    1560:	188f      	adds	r7, r1, r2
    1562:	42bc      	cmp	r4, r7
    1564:	d006      	beq.n	1574 <BufferedSerial::write(void const*, unsigned int)+0x26>
    1566:	0028      	movs	r0, r5
    1568:	7821      	ldrb	r1, [r4, #0]
    156a:	3040      	adds	r0, #64	; 0x40
    156c:	f7ff ffac 	bl	14c8 <Buffer<char>::put(char)>
    1570:	3401      	adds	r4, #1
    1572:	e7f6      	b.n	1562 <BufferedSerial::write(void const*, unsigned int)+0x14>
    1574:	0028      	movs	r0, r5
    1576:	1ba4      	subs	r4, r4, r6
    1578:	f7ff ff82 	bl	1480 <BufferedSerial::prime()>
    157c:	0020      	movs	r0, r4
    157e:	bdf8      	pop	{r3, r4, r5, r6, r7, pc}

00001580 <BufferedSerial::printf(char const*, ...)>:
    1580:	b40e      	push	{r1, r2, r3}
    1582:	2208      	movs	r2, #8
    1584:	231c      	movs	r3, #28
    1586:	b5f0      	push	{r4, r5, r6, r7, lr}
    1588:	b086      	sub	sp, #24
    158a:	af02      	add	r7, sp, #8
    158c:	18ba      	adds	r2, r7, r2
    158e:	18d4      	adds	r4, r2, r3
    1590:	466a      	mov	r2, sp
    1592:	cc08      	ldmia	r4!, {r3}
    1594:	0005      	movs	r5, r0
    1596:	607b      	str	r3, [r7, #4]
    1598:	6d03      	ldr	r3, [r0, #80]	; 0x50
    159a:	2100      	movs	r1, #0
    159c:	3307      	adds	r3, #7
    159e:	08db      	lsrs	r3, r3, #3
    15a0:	00db      	lsls	r3, r3, #3
    15a2:	1ad3      	subs	r3, r2, r3
    15a4:	469d      	mov	sp, r3
    15a6:	ae02      	add	r6, sp, #8
    15a8:	6d02      	ldr	r2, [r0, #80]	; 0x50
    15aa:	0030      	movs	r0, r6
    15ac:	f005 fa10 	bl	69d0 <memset>
    15b0:	0022      	movs	r2, r4
    15b2:	6879      	ldr	r1, [r7, #4]
    15b4:	0030      	movs	r0, r6
    15b6:	60fc      	str	r4, [r7, #12]
    15b8:	f005 fcf0 	bl	6f9c <vsiprintf>
    15bc:	6d2b      	ldr	r3, [r5, #80]	; 0x50
    15be:	0002      	movs	r2, r0
    15c0:	4283      	cmp	r3, r0
    15c2:	d20c      	bcs.n	15de <BufferedSerial::printf(char const*, ...)+0x5e>
    15c4:	9000      	str	r0, [sp, #0]
    15c6:	225d      	movs	r2, #93	; 0x5d
    15c8:	4807      	ldr	r0, [pc, #28]	; (15e8 <BufferedSerial::printf(char const*, ...)+0x68>)
    15ca:	4908      	ldr	r1, [pc, #32]	; (15ec <BufferedSerial::printf(char const*, ...)+0x6c>)
    15cc:	f000 f934 	bl	1838 <error>
    15d0:	2000      	movs	r0, #0
    15d2:	46bd      	mov	sp, r7
    15d4:	b004      	add	sp, #16
    15d6:	bcf0      	pop	{r4, r5, r6, r7}
    15d8:	bc08      	pop	{r3}
    15da:	b003      	add	sp, #12
    15dc:	4718      	bx	r3
    15de:	0031      	movs	r1, r6
    15e0:	0028      	movs	r0, r5
    15e2:	f7ff ffb4 	bl	154e <BufferedSerial::write(void const*, unsigned int)>
    15e6:	e7f4      	b.n	15d2 <BufferedSerial::printf(char const*, ...)+0x52>
    15e8:	00007582 	.word	0x00007582
    15ec:	00007544 	.word	0x00007544

000015f0 <Buffer<char>::~Buffer()>:
    15f0:	b510      	push	{r4, lr}
    15f2:	0004      	movs	r4, r0
    15f4:	6800      	ldr	r0, [r0, #0]
    15f6:	2800      	cmp	r0, #0
    15f8:	d001      	beq.n	15fe <Buffer<char>::~Buffer()+0xe>
    15fa:	f002 fcbf 	bl	3f7c <operator delete[](void*)>
    15fe:	0020      	movs	r0, r4
    1600:	bd10      	pop	{r4, pc}

00001602 <Buffer<char>::clear()>:
    1602:	0003      	movs	r3, r0
    1604:	2100      	movs	r1, #0
    1606:	b510      	push	{r4, lr}
    1608:	68da      	ldr	r2, [r3, #12]
    160a:	6041      	str	r1, [r0, #4]
    160c:	6081      	str	r1, [r0, #8]
    160e:	6800      	ldr	r0, [r0, #0]
    1610:	f005 f9de 	bl	69d0 <memset>
    1614:	bd10      	pop	{r4, pc}

00001616 <Buffer<char>::Buffer(unsigned long)>:
    1616:	b570      	push	{r4, r5, r6, lr}
    1618:	0004      	movs	r4, r0
    161a:	0008      	movs	r0, r1
    161c:	000d      	movs	r5, r1
    161e:	f002 fca1 	bl	3f64 <operator new[](unsigned int)>
    1622:	60e5      	str	r5, [r4, #12]
    1624:	6020      	str	r0, [r4, #0]
    1626:	0020      	movs	r0, r4
    1628:	f7ff ffeb 	bl	1602 <Buffer<char>::clear()>
    162c:	0020      	movs	r0, r4
    162e:	bd70      	pop	{r4, r5, r6, pc}

00001630 <_gpio_init_in>:
    1630:	b570      	push	{r4, r5, r6, lr}
    1632:	000d      	movs	r5, r1
    1634:	0004      	movs	r4, r0
    1636:	0016      	movs	r6, r2
    1638:	f001 fbde 	bl	2df8 <gpio_init>
    163c:	1c6b      	adds	r3, r5, #1
    163e:	d007      	beq.n	1650 <_gpio_init_in+0x20>
    1640:	2100      	movs	r1, #0
    1642:	0020      	movs	r0, r4
    1644:	f001 fbf8 	bl	2e38 <gpio_dir>
    1648:	0031      	movs	r1, r6
    164a:	0020      	movs	r0, r4
    164c:	f001 fbee 	bl	2e2c <gpio_mode>
    1650:	bd70      	pop	{r4, r5, r6, pc}

00001652 <_gpio_init_out.part.1>:
    1652:	b570      	push	{r4, r5, r6, lr}
    1654:	6843      	ldr	r3, [r0, #4]
    1656:	0004      	movs	r4, r0
    1658:	000d      	movs	r5, r1
    165a:	2a00      	cmp	r2, #0
    165c:	d00a      	beq.n	1674 <_gpio_init_out.part.1+0x22>
    165e:	68c2      	ldr	r2, [r0, #12]
    1660:	6013      	str	r3, [r2, #0]
    1662:	0020      	movs	r0, r4
    1664:	2101      	movs	r1, #1
    1666:	f001 fbe7 	bl	2e38 <gpio_dir>
    166a:	0029      	movs	r1, r5
    166c:	0020      	movs	r0, r4
    166e:	f001 fbdd 	bl	2e2c <gpio_mode>
    1672:	bd70      	pop	{r4, r5, r6, pc}
    1674:	6902      	ldr	r2, [r0, #16]
    1676:	e7f3      	b.n	1660 <_gpio_init_out.part.1+0xe>

00001678 <gpio_init_in>:
    1678:	b510      	push	{r4, lr}
    167a:	2202      	movs	r2, #2
    167c:	f7ff ffd8 	bl	1630 <_gpio_init_in>
    1680:	bd10      	pop	{r4, pc}

00001682 <gpio_init_out_ex>:
    1682:	b570      	push	{r4, r5, r6, lr}
    1684:	000d      	movs	r5, r1
    1686:	0004      	movs	r4, r0
    1688:	0016      	movs	r6, r2
    168a:	f001 fbb5 	bl	2df8 <gpio_init>
    168e:	1c6b      	adds	r3, r5, #1
    1690:	d004      	beq.n	169c <gpio_init_out_ex+0x1a>
    1692:	0032      	movs	r2, r6
    1694:	2100      	movs	r1, #0
    1696:	0020      	movs	r0, r4
    1698:	f7ff ffdb 	bl	1652 <_gpio_init_out.part.1>
    169c:	bd70      	pop	{r4, r5, r6, pc}

0000169e <gpio_init_out>:
    169e:	b510      	push	{r4, lr}
    16a0:	2200      	movs	r2, #0
    16a2:	f7ff ffee 	bl	1682 <gpio_init_out_ex>
    16a6:	bd10      	pop	{r4, pc}

000016a8 <get_us_ticker_data>:
    16a8:	4800      	ldr	r0, [pc, #0]	; (16ac <get_us_ticker_data+0x4>)
    16aa:	4770      	bx	lr
    16ac:	000075f0 	.word	0x000075f0

000016b0 <us_ticker_irq_handler>:
    16b0:	b510      	push	{r4, lr}
    16b2:	4802      	ldr	r0, [pc, #8]	; (16bc <us_ticker_irq_handler+0xc>)
    16b4:	f000 f804 	bl	16c0 <ticker_irq_handler>
    16b8:	bd10      	pop	{r4, pc}
    16ba:	46c0      	nop			; (mov r8, r8)
    16bc:	000075f0 	.word	0x000075f0

000016c0 <ticker_irq_handler>:
    16c0:	6803      	ldr	r3, [r0, #0]
    16c2:	b570      	push	{r4, r5, r6, lr}
    16c4:	68db      	ldr	r3, [r3, #12]
    16c6:	0004      	movs	r4, r0
    16c8:	4798      	blx	r3
    16ca:	6863      	ldr	r3, [r4, #4]
    16cc:	685a      	ldr	r2, [r3, #4]
    16ce:	6823      	ldr	r3, [r4, #0]
    16d0:	2a00      	cmp	r2, #0
    16d2:	d102      	bne.n	16da <ticker_irq_handler+0x1a>
    16d4:	689b      	ldr	r3, [r3, #8]
    16d6:	4798      	blx	r3
    16d8:	bd70      	pop	{r4, r5, r6, pc}
    16da:	685b      	ldr	r3, [r3, #4]
    16dc:	6815      	ldr	r5, [r2, #0]
    16de:	4798      	blx	r3
    16e0:	6863      	ldr	r3, [r4, #4]
    16e2:	1a2d      	subs	r5, r5, r0
    16e4:	685a      	ldr	r2, [r3, #4]
    16e6:	2d00      	cmp	r5, #0
    16e8:	dc07      	bgt.n	16fa <ticker_irq_handler+0x3a>
    16ea:	6891      	ldr	r1, [r2, #8]
    16ec:	6059      	str	r1, [r3, #4]
    16ee:	681b      	ldr	r3, [r3, #0]
    16f0:	2b00      	cmp	r3, #0
    16f2:	d0ea      	beq.n	16ca <ticker_irq_handler+0xa>
    16f4:	6850      	ldr	r0, [r2, #4]
    16f6:	4798      	blx	r3
    16f8:	e7e7      	b.n	16ca <ticker_irq_handler+0xa>
    16fa:	6823      	ldr	r3, [r4, #0]
    16fc:	6810      	ldr	r0, [r2, #0]
    16fe:	691b      	ldr	r3, [r3, #16]
    1700:	4798      	blx	r3
    1702:	e7e9      	b.n	16d8 <ticker_irq_handler+0x18>

00001704 <ticker_read>:
    1704:	b510      	push	{r4, lr}
    1706:	6803      	ldr	r3, [r0, #0]
    1708:	685b      	ldr	r3, [r3, #4]
    170a:	4798      	blx	r3
    170c:	bd10      	pop	{r4, pc}
	...

00001710 <pinmap_pinout>:
    1710:	b510      	push	{r4, lr}
    1712:	0004      	movs	r4, r0
    1714:	1c43      	adds	r3, r0, #1
    1716:	d10c      	bne.n	1732 <pinmap_pinout+0x22>
    1718:	bd10      	pop	{r4, pc}
    171a:	429c      	cmp	r4, r3
    171c:	d108      	bne.n	1730 <pinmap_pinout+0x20>
    171e:	0020      	movs	r0, r4
    1720:	6889      	ldr	r1, [r1, #8]
    1722:	f001 feab 	bl	347c <pin_function>
    1726:	2100      	movs	r1, #0
    1728:	0020      	movs	r0, r4
    172a:	f001 fec7 	bl	34bc <pin_mode>
    172e:	e7f3      	b.n	1718 <pinmap_pinout+0x8>
    1730:	310c      	adds	r1, #12
    1732:	2200      	movs	r2, #0
    1734:	5e8b      	ldrsh	r3, [r1, r2]
    1736:	1c5a      	adds	r2, r3, #1
    1738:	d1ef      	bne.n	171a <pinmap_pinout+0xa>
    173a:	4802      	ldr	r0, [pc, #8]	; (1744 <pinmap_pinout+0x34>)
    173c:	f000 f87c 	bl	1838 <error>
    1740:	e7ea      	b.n	1718 <pinmap_pinout+0x8>
    1742:	46c0      	nop			; (mov r8, r8)
    1744:	0000763d 	.word	0x0000763d

00001748 <pinmap_merge>:
    1748:	b510      	push	{r4, lr}
    174a:	4288      	cmp	r0, r1
    174c:	d008      	beq.n	1760 <pinmap_merge+0x18>
    174e:	1c43      	adds	r3, r0, #1
    1750:	d006      	beq.n	1760 <pinmap_merge+0x18>
    1752:	1c4b      	adds	r3, r1, #1
    1754:	d006      	beq.n	1764 <pinmap_merge+0x1c>
    1756:	4804      	ldr	r0, [pc, #16]	; (1768 <pinmap_merge+0x20>)
    1758:	f000 f86e 	bl	1838 <error>
    175c:	2101      	movs	r1, #1
    175e:	4249      	negs	r1, r1
    1760:	0008      	movs	r0, r1
    1762:	bd10      	pop	{r4, pc}
    1764:	0001      	movs	r1, r0
    1766:	e7fb      	b.n	1760 <pinmap_merge+0x18>
    1768:	0000760c 	.word	0x0000760c

0000176c <pinmap_find_peripheral>:
    176c:	2200      	movs	r2, #0
    176e:	5e8b      	ldrsh	r3, [r1, r2]
    1770:	1c5a      	adds	r2, r3, #1
    1772:	d101      	bne.n	1778 <pinmap_find_peripheral+0xc>
    1774:	0018      	movs	r0, r3
    1776:	e002      	b.n	177e <pinmap_find_peripheral+0x12>
    1778:	4283      	cmp	r3, r0
    177a:	d101      	bne.n	1780 <pinmap_find_peripheral+0x14>
    177c:	6848      	ldr	r0, [r1, #4]
    177e:	4770      	bx	lr
    1780:	310c      	adds	r1, #12
    1782:	e7f3      	b.n	176c <pinmap_find_peripheral>

00001784 <pinmap_peripheral>:
    1784:	b510      	push	{r4, lr}
    1786:	0004      	movs	r4, r0
    1788:	1c43      	adds	r3, r0, #1
    178a:	d007      	beq.n	179c <pinmap_peripheral+0x18>
    178c:	f7ff ffee 	bl	176c <pinmap_find_peripheral>
    1790:	0004      	movs	r4, r0
    1792:	1c43      	adds	r3, r0, #1
    1794:	d102      	bne.n	179c <pinmap_peripheral+0x18>
    1796:	4802      	ldr	r0, [pc, #8]	; (17a0 <pinmap_peripheral+0x1c>)
    1798:	f000 f84e 	bl	1838 <error>
    179c:	0020      	movs	r0, r4
    179e:	bd10      	pop	{r4, pc}
    17a0:	0000761d 	.word	0x0000761d

000017a4 <mbed_interface_connected>:
    17a4:	b510      	push	{r4, lr}
    17a6:	f000 f841 	bl	182c <semihost_connected>
    17aa:	bd10      	pop	{r4, pc}

000017ac <core_util_are_interrupts_enabled>:
    17ac:	f3ef 8310 	mrs	r3, PRIMASK
    17b0:	2001      	movs	r0, #1
    17b2:	4398      	bics	r0, r3
    17b4:	4770      	bx	lr
	...

000017b8 <core_util_critical_section_enter>:
    17b8:	b510      	push	{r4, lr}
    17ba:	f7ff fff7 	bl	17ac <core_util_are_interrupts_enabled>
    17be:	b672      	cpsid	i
    17c0:	4a06      	ldr	r2, [pc, #24]	; (17dc <core_util_critical_section_enter+0x24>)
    17c2:	6813      	ldr	r3, [r2, #0]
    17c4:	2b00      	cmp	r3, #0
    17c6:	d104      	bne.n	17d2 <core_util_critical_section_enter+0x1a>
    17c8:	3301      	adds	r3, #1
    17ca:	4058      	eors	r0, r3
    17cc:	4b04      	ldr	r3, [pc, #16]	; (17e0 <core_util_critical_section_enter+0x28>)
    17ce:	b2c0      	uxtb	r0, r0
    17d0:	7018      	strb	r0, [r3, #0]
    17d2:	6813      	ldr	r3, [r2, #0]
    17d4:	6813      	ldr	r3, [r2, #0]
    17d6:	3301      	adds	r3, #1
    17d8:	6013      	str	r3, [r2, #0]
    17da:	bd10      	pop	{r4, pc}
    17dc:	1ffff7b0 	.word	0x1ffff7b0
    17e0:	1ffff7ac 	.word	0x1ffff7ac

000017e4 <core_util_critical_section_exit>:
    17e4:	b510      	push	{r4, lr}
    17e6:	4c09      	ldr	r4, [pc, #36]	; (180c <core_util_critical_section_exit+0x28>)
    17e8:	6823      	ldr	r3, [r4, #0]
    17ea:	2b00      	cmp	r3, #0
    17ec:	d00c      	beq.n	1808 <core_util_critical_section_exit+0x24>
    17ee:	f7ff ffdd 	bl	17ac <core_util_are_interrupts_enabled>
    17f2:	6823      	ldr	r3, [r4, #0]
    17f4:	3b01      	subs	r3, #1
    17f6:	6023      	str	r3, [r4, #0]
    17f8:	6823      	ldr	r3, [r4, #0]
    17fa:	2b00      	cmp	r3, #0
    17fc:	d104      	bne.n	1808 <core_util_critical_section_exit+0x24>
    17fe:	4b04      	ldr	r3, [pc, #16]	; (1810 <core_util_critical_section_exit+0x2c>)
    1800:	781b      	ldrb	r3, [r3, #0]
    1802:	2b00      	cmp	r3, #0
    1804:	d100      	bne.n	1808 <core_util_critical_section_exit+0x24>
    1806:	b662      	cpsie	i
    1808:	bd10      	pop	{r4, pc}
    180a:	46c0      	nop			; (mov r8, r8)
    180c:	1ffff7b0 	.word	0x1ffff7b0
    1810:	1ffff7ac 	.word	0x1ffff7ac

00001814 <semihost_exit>:
    1814:	b530      	push	{r4, r5, lr}
    1816:	b085      	sub	sp, #20
    1818:	466d      	mov	r5, sp
    181a:	2418      	movs	r4, #24
    181c:	1c20      	adds	r0, r4, #0
    181e:	1c29      	adds	r1, r5, #0
    1820:	beab      	bkpt	0x00ab
    1822:	1c04      	adds	r4, r0, #0
    1824:	0020      	movs	r0, r4
    1826:	b005      	add	sp, #20
    1828:	bd30      	pop	{r4, r5, pc}
	...

0000182c <semihost_connected>:
    182c:	4b01      	ldr	r3, [pc, #4]	; (1834 <semihost_connected+0x8>)
    182e:	6818      	ldr	r0, [r3, #0]
    1830:	4770      	bx	lr
    1832:	46c0      	nop			; (mov r8, r8)
    1834:	1ffff0c4 	.word	0x1ffff0c4

00001838 <error>:
    1838:	b40f      	push	{r0, r1, r2, r3}
    183a:	2001      	movs	r0, #1
    183c:	b510      	push	{r4, lr}
    183e:	f002 fb85 	bl	3f4c <__wrap_exit>
	...

00001844 <mbed_die>:
    1844:	b510      	push	{r4, lr}
    1846:	b088      	sub	sp, #32
    1848:	f7ff ffb6 	bl	17b8 <core_util_critical_section_enter>
    184c:	4909      	ldr	r1, [pc, #36]	; (1874 <mbed_die+0x30>)
    184e:	a802      	add	r0, sp, #8
    1850:	f7ff ff25 	bl	169e <gpio_init_out>
    1854:	2496      	movs	r4, #150	; 0x96
    1856:	9a03      	ldr	r2, [sp, #12]
    1858:	9b05      	ldr	r3, [sp, #20]
    185a:	0020      	movs	r0, r4
    185c:	601a      	str	r2, [r3, #0]
    185e:	9201      	str	r2, [sp, #4]
    1860:	f002 fa66 	bl	3d30 <wait_ms>
    1864:	9a03      	ldr	r2, [sp, #12]
    1866:	9b06      	ldr	r3, [sp, #24]
    1868:	0020      	movs	r0, r4
    186a:	601a      	str	r2, [r3, #0]
    186c:	9201      	str	r2, [sp, #4]
    186e:	f002 fa5f 	bl	3d30 <wait_ms>
    1872:	e7f0      	b.n	1856 <mbed_die+0x12>
    1874:	00001048 	.word	0x00001048

00001878 <default_idle_hook>:
    1878:	b510      	push	{r4, lr}
    187a:	f001 faed 	bl	2e58 <hal_sleep>
    187e:	bd10      	pop	{r4, pc}

00001880 <rtos_idle_loop>:
    1880:	b510      	push	{r4, lr}
    1882:	4b02      	ldr	r3, [pc, #8]	; (188c <rtos_idle_loop+0xc>)
    1884:	681b      	ldr	r3, [r3, #0]
    1886:	4798      	blx	r3
    1888:	e7fb      	b.n	1882 <rtos_idle_loop+0x2>
    188a:	46c0      	nop			; (mov r8, r8)
    188c:	1ffff0c8 	.word	0x1ffff0c8

00001890 <pre_main>:
    1890:	b510      	push	{r4, lr}
    1892:	480c      	ldr	r0, [pc, #48]	; (18c4 <pre_main+0x34>)
    1894:	f000 fdd4 	bl	2440 <osMutexCreate>
    1898:	0002      	movs	r2, r0
    189a:	4b0b      	ldr	r3, [pc, #44]	; (18c8 <pre_main+0x38>)
    189c:	480b      	ldr	r0, [pc, #44]	; (18cc <pre_main+0x3c>)
    189e:	601a      	str	r2, [r3, #0]
    18a0:	f000 fdce 	bl	2440 <osMutexCreate>
    18a4:	0002      	movs	r2, r0
    18a6:	4b0a      	ldr	r3, [pc, #40]	; (18d0 <pre_main+0x40>)
    18a8:	480a      	ldr	r0, [pc, #40]	; (18d4 <pre_main+0x44>)
    18aa:	601a      	str	r2, [r3, #0]
    18ac:	f000 fdc8 	bl	2440 <osMutexCreate>
    18b0:	4b09      	ldr	r3, [pc, #36]	; (18d8 <pre_main+0x48>)
    18b2:	6018      	str	r0, [r3, #0]
    18b4:	f005 f82e 	bl	6914 <__libc_init_array>
    18b8:	2100      	movs	r1, #0
    18ba:	2000      	movs	r0, #0
    18bc:	f002 fb03 	bl	3ec6 <__wrap_main>
    18c0:	bd10      	pop	{r4, pc}
    18c2:	46c0      	nop			; (mov r8, r8)
    18c4:	0000769c 	.word	0x0000769c
    18c8:	20000c1c 	.word	0x20000c1c
    18cc:	00007698 	.word	0x00007698
    18d0:	1ffff7bc 	.word	0x1ffff7bc
    18d4:	00007694 	.word	0x00007694
    18d8:	1ffff7b4 	.word	0x1ffff7b4

000018dc <os_idle_demon>:
    18dc:	b510      	push	{r4, lr}
    18de:	f7ff ffcf 	bl	1880 <rtos_idle_loop>
    18e2:	bd10      	pop	{r4, pc}

000018e4 <os_error>:
    18e4:	b510      	push	{r4, lr}
    18e6:	0004      	movs	r4, r0
    18e8:	f000 fd0a 	bl	2300 <svcThreadGetId>
    18ec:	0021      	movs	r1, r4
    18ee:	0002      	movs	r2, r0
    18f0:	4801      	ldr	r0, [pc, #4]	; (18f8 <os_error+0x14>)
    18f2:	f7ff ffa1 	bl	1838 <error>
    18f6:	bd10      	pop	{r4, pc}
    18f8:	0000765c 	.word	0x0000765c

000018fc <sysThreadTerminate>:
    18fc:	b510      	push	{r4, lr}
    18fe:	f002 fb47 	bl	3f90 <thread_terminate_hook>
    1902:	bd10      	pop	{r4, pc}

00001904 <set_stack_heap>:
    1904:	2280      	movs	r2, #128	; 0x80
    1906:	490a      	ldr	r1, [pc, #40]	; (1930 <set_stack_heap+0x2c>)
    1908:	4b0a      	ldr	r3, [pc, #40]	; (1934 <set_stack_heap+0x30>)
    190a:	b510      	push	{r4, lr}
    190c:	1a5b      	subs	r3, r3, r1
    190e:	0092      	lsls	r2, r2, #2
    1910:	0018      	movs	r0, r3
    1912:	4293      	cmp	r3, r2
    1914:	d900      	bls.n	1918 <set_stack_heap+0x14>
    1916:	0010      	movs	r0, r2
    1918:	4a07      	ldr	r2, [pc, #28]	; (1938 <set_stack_heap+0x34>)
    191a:	1a1b      	subs	r3, r3, r0
    191c:	4c07      	ldr	r4, [pc, #28]	; (193c <set_stack_heap+0x38>)
    191e:	6013      	str	r3, [r2, #0]
    1920:	18cb      	adds	r3, r1, r3
    1922:	4a07      	ldr	r2, [pc, #28]	; (1940 <set_stack_heap+0x3c>)
    1924:	6023      	str	r3, [r4, #0]
    1926:	4b07      	ldr	r3, [pc, #28]	; (1944 <set_stack_heap+0x40>)
    1928:	6010      	str	r0, [r2, #0]
    192a:	6019      	str	r1, [r3, #0]
    192c:	bd10      	pop	{r4, pc}
    192e:	46c0      	nop			; (mov r8, r8)
    1930:	200011b8 	.word	0x200011b8
    1934:	20003000 	.word	0x20003000
    1938:	20000950 	.word	0x20000950
    193c:	1ffff7c4 	.word	0x1ffff7c4
    1940:	1ffff7c0 	.word	0x1ffff7c0
    1944:	20000954 	.word	0x20000954

00001948 <software_init_hook_rtos>:
    1948:	f000 fe60 	bl	260c <osKernelInitialize>
    194c:	f7ff ffda 	bl	1904 <set_stack_heap>
    1950:	4803      	ldr	r0, [pc, #12]	; (1960 <software_init_hook_rtos+0x18>)
    1952:	2100      	movs	r1, #0
    1954:	f000 fe06 	bl	2564 <osThreadCreate>
    1958:	f000 fc4a 	bl	21f0 <osKernelStart>
    195c:	e7fe      	b.n	195c <software_init_hook_rtos+0x14>
    195e:	0000      	.short	0x0000
    1960:	1ffff0cc 	.word	0x1ffff0cc

00001964 <__rtos_malloc_lock>:
    1964:	2101      	movs	r1, #1
    1966:	b510      	push	{r4, lr}
    1968:	4b02      	ldr	r3, [pc, #8]	; (1974 <__rtos_malloc_lock+0x10>)
    196a:	4249      	negs	r1, r1
    196c:	6818      	ldr	r0, [r3, #0]
    196e:	f000 fd89 	bl	2484 <osMutexWait>
    1972:	bd10      	pop	{r4, pc}
    1974:	1ffff7bc 	.word	0x1ffff7bc

00001978 <__rtos_malloc_unlock>:
    1978:	b510      	push	{r4, lr}
    197a:	4b02      	ldr	r3, [pc, #8]	; (1984 <__rtos_malloc_unlock+0xc>)
    197c:	6818      	ldr	r0, [r3, #0]
    197e:	f000 fdab 	bl	24d8 <osMutexRelease>
    1982:	bd10      	pop	{r4, pc}
    1984:	1ffff7bc 	.word	0x1ffff7bc

00001988 <rt_put_prio>:
    1988:	7802      	ldrb	r2, [r0, #0]
    198a:	b530      	push	{r4, r5, lr}
    198c:	3a01      	subs	r2, #1
    198e:	788c      	ldrb	r4, [r1, #2]
    1990:	6843      	ldr	r3, [r0, #4]
    1992:	b2d2      	uxtb	r2, r2
    1994:	2b00      	cmp	r3, #0
    1996:	d002      	beq.n	199e <rt_put_prio+0x16>
    1998:	789d      	ldrb	r5, [r3, #2]
    199a:	42a5      	cmp	r5, r4
    199c:	d208      	bcs.n	19b0 <rt_put_prio+0x28>
    199e:	604b      	str	r3, [r1, #4]
    19a0:	6041      	str	r1, [r0, #4]
    19a2:	2a02      	cmp	r2, #2
    19a4:	d807      	bhi.n	19b6 <rt_put_prio+0x2e>
    19a6:	2b00      	cmp	r3, #0
    19a8:	d000      	beq.n	19ac <rt_put_prio+0x24>
    19aa:	6099      	str	r1, [r3, #8]
    19ac:	6088      	str	r0, [r1, #8]
    19ae:	bd30      	pop	{r4, r5, pc}
    19b0:	0018      	movs	r0, r3
    19b2:	685b      	ldr	r3, [r3, #4]
    19b4:	e7ee      	b.n	1994 <rt_put_prio+0xc>
    19b6:	2300      	movs	r3, #0
    19b8:	608b      	str	r3, [r1, #8]
    19ba:	e7f8      	b.n	19ae <rt_put_prio+0x26>

000019bc <rt_get_first>:
    19bc:	6843      	ldr	r3, [r0, #4]
    19be:	b510      	push	{r4, lr}
    19c0:	7804      	ldrb	r4, [r0, #0]
    19c2:	6859      	ldr	r1, [r3, #4]
    19c4:	3c01      	subs	r4, #1
    19c6:	6041      	str	r1, [r0, #4]
    19c8:	2200      	movs	r2, #0
    19ca:	2c02      	cmp	r4, #2
    19cc:	d806      	bhi.n	19dc <rt_get_first+0x20>
    19ce:	4291      	cmp	r1, r2
    19d0:	d001      	beq.n	19d6 <rt_get_first+0x1a>
    19d2:	6088      	str	r0, [r1, #8]
    19d4:	605a      	str	r2, [r3, #4]
    19d6:	609a      	str	r2, [r3, #8]
    19d8:	0018      	movs	r0, r3
    19da:	bd10      	pop	{r4, pc}
    19dc:	605a      	str	r2, [r3, #4]
    19de:	e7fb      	b.n	19d8 <rt_get_first+0x1c>

000019e0 <rt_put_rdy_first>:
    19e0:	4b03      	ldr	r3, [pc, #12]	; (19f0 <rt_put_rdy_first+0x10>)
    19e2:	685a      	ldr	r2, [r3, #4]
    19e4:	6042      	str	r2, [r0, #4]
    19e6:	2200      	movs	r2, #0
    19e8:	6058      	str	r0, [r3, #4]
    19ea:	6082      	str	r2, [r0, #8]
    19ec:	4770      	bx	lr
    19ee:	46c0      	nop			; (mov r8, r8)
    19f0:	20001110 	.word	0x20001110

000019f4 <rt_put_dly>:
    19f4:	4a12      	ldr	r2, [pc, #72]	; (1a40 <rt_put_dly+0x4c>)
    19f6:	b510      	push	{r4, lr}
    19f8:	68d3      	ldr	r3, [r2, #12]
    19fa:	2b00      	cmp	r3, #0
    19fc:	d013      	beq.n	1a26 <rt_put_dly+0x32>
    19fe:	8a93      	ldrh	r3, [r2, #20]
    1a00:	68d4      	ldr	r4, [r2, #12]
    1a02:	428b      	cmp	r3, r1
    1a04:	d30d      	bcc.n	1a22 <rt_put_dly+0x2e>
    1a06:	60c4      	str	r4, [r0, #12]
    1a08:	60d0      	str	r0, [r2, #12]
    1a0a:	68c4      	ldr	r4, [r0, #12]
    1a0c:	6102      	str	r2, [r0, #16]
    1a0e:	2c00      	cmp	r4, #0
    1a10:	d000      	beq.n	1a14 <rt_put_dly+0x20>
    1a12:	6120      	str	r0, [r4, #16]
    1a14:	1a5b      	subs	r3, r3, r1
    1a16:	b29b      	uxth	r3, r3
    1a18:	8283      	strh	r3, [r0, #20]
    1a1a:	8a91      	ldrh	r1, [r2, #20]
    1a1c:	1acb      	subs	r3, r1, r3
    1a1e:	8293      	strh	r3, [r2, #20]
    1a20:	e008      	b.n	1a34 <rt_put_dly+0x40>
    1a22:	2c00      	cmp	r4, #0
    1a24:	d107      	bne.n	1a36 <rt_put_dly+0x42>
    1a26:	2400      	movs	r4, #0
    1a28:	1acb      	subs	r3, r1, r3
    1a2a:	60c4      	str	r4, [r0, #12]
    1a2c:	60d0      	str	r0, [r2, #12]
    1a2e:	6102      	str	r2, [r0, #16]
    1a30:	8293      	strh	r3, [r2, #20]
    1a32:	8284      	strh	r4, [r0, #20]
    1a34:	bd10      	pop	{r4, pc}
    1a36:	8aa2      	ldrh	r2, [r4, #20]
    1a38:	189b      	adds	r3, r3, r2
    1a3a:	0022      	movs	r2, r4
    1a3c:	e7e0      	b.n	1a00 <rt_put_dly+0xc>
    1a3e:	46c0      	nop			; (mov r8, r8)
    1a40:	20001128 	.word	0x20001128

00001a44 <rt_dec_dly>:
    1a44:	b570      	push	{r4, r5, r6, lr}
    1a46:	4d19      	ldr	r5, [pc, #100]	; (1aac <rt_dec_dly+0x68>)
    1a48:	68eb      	ldr	r3, [r5, #12]
    1a4a:	2b00      	cmp	r3, #0
    1a4c:	d009      	beq.n	1a62 <rt_dec_dly+0x1e>
    1a4e:	2601      	movs	r6, #1
    1a50:	8aab      	ldrh	r3, [r5, #20]
    1a52:	3b01      	subs	r3, #1
    1a54:	82ab      	strh	r3, [r5, #20]
    1a56:	8aaa      	ldrh	r2, [r5, #20]
    1a58:	2a00      	cmp	r2, #0
    1a5a:	d102      	bne.n	1a62 <rt_dec_dly+0x1e>
    1a5c:	68ec      	ldr	r4, [r5, #12]
    1a5e:	2c00      	cmp	r4, #0
    1a60:	d100      	bne.n	1a64 <rt_dec_dly+0x20>
    1a62:	bd70      	pop	{r4, r5, r6, pc}
    1a64:	68a3      	ldr	r3, [r4, #8]
    1a66:	2b00      	cmp	r3, #0
    1a68:	d008      	beq.n	1a7c <rt_dec_dly+0x38>
    1a6a:	6861      	ldr	r1, [r4, #4]
    1a6c:	6059      	str	r1, [r3, #4]
    1a6e:	6861      	ldr	r1, [r4, #4]
    1a70:	2900      	cmp	r1, #0
    1a72:	d001      	beq.n	1a78 <rt_dec_dly+0x34>
    1a74:	608b      	str	r3, [r1, #8]
    1a76:	6062      	str	r2, [r4, #4]
    1a78:	2300      	movs	r3, #0
    1a7a:	60a3      	str	r3, [r4, #8]
    1a7c:	0021      	movs	r1, r4
    1a7e:	480c      	ldr	r0, [pc, #48]	; (1ab0 <rt_dec_dly+0x6c>)
    1a80:	f7ff ff82 	bl	1988 <rt_put_prio>
    1a84:	8aa3      	ldrh	r3, [r4, #20]
    1a86:	82ab      	strh	r3, [r5, #20]
    1a88:	7863      	ldrb	r3, [r4, #1]
    1a8a:	2b04      	cmp	r3, #4
    1a8c:	d104      	bne.n	1a98 <rt_dec_dly+0x54>
    1a8e:	4b09      	ldr	r3, [pc, #36]	; (1ab4 <rt_dec_dly+0x70>)
    1a90:	8ae2      	ldrh	r2, [r4, #22]
    1a92:	681b      	ldr	r3, [r3, #0]
    1a94:	189b      	adds	r3, r3, r2
    1a96:	82a3      	strh	r3, [r4, #20]
    1a98:	2200      	movs	r2, #0
    1a9a:	68e3      	ldr	r3, [r4, #12]
    1a9c:	7066      	strb	r6, [r4, #1]
    1a9e:	60eb      	str	r3, [r5, #12]
    1aa0:	4293      	cmp	r3, r2
    1aa2:	d001      	beq.n	1aa8 <rt_dec_dly+0x64>
    1aa4:	611d      	str	r5, [r3, #16]
    1aa6:	60e2      	str	r2, [r4, #12]
    1aa8:	6122      	str	r2, [r4, #16]
    1aaa:	e7d4      	b.n	1a56 <rt_dec_dly+0x12>
    1aac:	20001128 	.word	0x20001128
    1ab0:	20001110 	.word	0x20001110
    1ab4:	200011a4 	.word	0x200011a4

00001ab8 <rt_rmv_list>:
    1ab8:	6883      	ldr	r3, [r0, #8]
    1aba:	2b00      	cmp	r3, #0
    1abc:	d006      	beq.n	1acc <rt_rmv_list+0x14>
    1abe:	6842      	ldr	r2, [r0, #4]
    1ac0:	605a      	str	r2, [r3, #4]
    1ac2:	6842      	ldr	r2, [r0, #4]
    1ac4:	2a00      	cmp	r2, #0
    1ac6:	d000      	beq.n	1aca <rt_rmv_list+0x12>
    1ac8:	6093      	str	r3, [r2, #8]
    1aca:	4770      	bx	lr
    1acc:	4b04      	ldr	r3, [pc, #16]	; (1ae0 <rt_rmv_list+0x28>)
    1ace:	685a      	ldr	r2, [r3, #4]
    1ad0:	4290      	cmp	r0, r2
    1ad2:	d102      	bne.n	1ada <rt_rmv_list+0x22>
    1ad4:	6842      	ldr	r2, [r0, #4]
    1ad6:	605a      	str	r2, [r3, #4]
    1ad8:	e7f7      	b.n	1aca <rt_rmv_list+0x12>
    1ada:	1e13      	subs	r3, r2, #0
    1adc:	d1f7      	bne.n	1ace <rt_rmv_list+0x16>
    1ade:	e7f4      	b.n	1aca <rt_rmv_list+0x12>
    1ae0:	20001110 	.word	0x20001110

00001ae4 <rt_resort_prio>:
    1ae4:	b570      	push	{r4, r5, r6, lr}
    1ae6:	6884      	ldr	r4, [r0, #8]
    1ae8:	0005      	movs	r5, r0
    1aea:	2c00      	cmp	r4, #0
    1aec:	d105      	bne.n	1afa <rt_resort_prio+0x16>
    1aee:	7843      	ldrb	r3, [r0, #1]
    1af0:	2b01      	cmp	r3, #1
    1af2:	d10c      	bne.n	1b0e <rt_resort_prio+0x2a>
    1af4:	4c06      	ldr	r4, [pc, #24]	; (1b10 <rt_resort_prio+0x2c>)
    1af6:	e003      	b.n	1b00 <rt_resort_prio+0x1c>
    1af8:	68a4      	ldr	r4, [r4, #8]
    1afa:	7823      	ldrb	r3, [r4, #0]
    1afc:	2b00      	cmp	r3, #0
    1afe:	d0fb      	beq.n	1af8 <rt_resort_prio+0x14>
    1b00:	0028      	movs	r0, r5
    1b02:	f7ff ffd9 	bl	1ab8 <rt_rmv_list>
    1b06:	0029      	movs	r1, r5
    1b08:	0020      	movs	r0, r4
    1b0a:	f7ff ff3d 	bl	1988 <rt_put_prio>
    1b0e:	bd70      	pop	{r4, r5, r6, pc}
    1b10:	20001110 	.word	0x20001110

00001b14 <rt_rmv_dly>:
    1b14:	6903      	ldr	r3, [r0, #16]
    1b16:	b510      	push	{r4, lr}
    1b18:	2b00      	cmp	r3, #0
    1b1a:	d00d      	beq.n	1b38 <rt_rmv_dly+0x24>
    1b1c:	68c2      	ldr	r2, [r0, #12]
    1b1e:	60da      	str	r2, [r3, #12]
    1b20:	68c2      	ldr	r2, [r0, #12]
    1b22:	2a00      	cmp	r2, #0
    1b24:	d009      	beq.n	1b3a <rt_rmv_dly+0x26>
    1b26:	8a99      	ldrh	r1, [r3, #20]
    1b28:	8a84      	ldrh	r4, [r0, #20]
    1b2a:	1909      	adds	r1, r1, r4
    1b2c:	8299      	strh	r1, [r3, #20]
    1b2e:	6113      	str	r3, [r2, #16]
    1b30:	2300      	movs	r3, #0
    1b32:	60c3      	str	r3, [r0, #12]
    1b34:	2300      	movs	r3, #0
    1b36:	6103      	str	r3, [r0, #16]
    1b38:	bd10      	pop	{r4, pc}
    1b3a:	829a      	strh	r2, [r3, #20]
    1b3c:	e7fa      	b.n	1b34 <rt_rmv_dly+0x20>
	...

00001b40 <rt_psq_enq>:
    1b40:	b570      	push	{r4, r5, r6, lr}
    1b42:	4a11      	ldr	r2, [pc, #68]	; (1b88 <rt_psq_enq+0x48>)
    1b44:	78d4      	ldrb	r4, [r2, #3]
    1b46:	f3ef 8610 	mrs	r6, PRIMASK
    1b4a:	f3ef 8310 	mrs	r3, PRIMASK
    1b4e:	b672      	cpsid	i
    1b50:	7893      	ldrb	r3, [r2, #2]
    1b52:	429c      	cmp	r4, r3
    1b54:	d911      	bls.n	1b7a <rt_psq_enq+0x3a>
    1b56:	3301      	adds	r3, #1
    1b58:	7093      	strb	r3, [r2, #2]
    1b5a:	7813      	ldrb	r3, [r2, #0]
    1b5c:	1c5d      	adds	r5, r3, #1
    1b5e:	42ac      	cmp	r4, r5
    1b60:	d100      	bne.n	1b64 <rt_psq_enq+0x24>
    1b62:	2500      	movs	r5, #0
    1b64:	7015      	strb	r5, [r2, #0]
    1b66:	2e00      	cmp	r6, #0
    1b68:	d100      	bne.n	1b6c <rt_psq_enq+0x2c>
    1b6a:	b662      	cpsie	i
    1b6c:	429c      	cmp	r4, r3
    1b6e:	d906      	bls.n	1b7e <rt_psq_enq+0x3e>
    1b70:	00db      	lsls	r3, r3, #3
    1b72:	18d3      	adds	r3, r2, r3
    1b74:	6058      	str	r0, [r3, #4]
    1b76:	6099      	str	r1, [r3, #8]
    1b78:	bd70      	pop	{r4, r5, r6, pc}
    1b7a:	2e00      	cmp	r6, #0
    1b7c:	d0f5      	beq.n	1b6a <rt_psq_enq+0x2a>
    1b7e:	2002      	movs	r0, #2
    1b80:	f7ff feb0 	bl	18e4 <os_error>
    1b84:	e7f8      	b.n	1b78 <rt_psq_enq+0x38>
    1b86:	46c0      	nop			; (mov r8, r8)
    1b88:	20000b94 	.word	0x20000b94

00001b8c <rt_psh_req>:
    1b8c:	4b06      	ldr	r3, [pc, #24]	; (1ba8 <rt_psh_req+0x1c>)
    1b8e:	781b      	ldrb	r3, [r3, #0]
    1b90:	2b00      	cmp	r3, #0
    1b92:	d104      	bne.n	1b9e <rt_psh_req+0x12>
    1b94:	2280      	movs	r2, #128	; 0x80
    1b96:	4b05      	ldr	r3, [pc, #20]	; (1bac <rt_psh_req+0x20>)
    1b98:	0552      	lsls	r2, r2, #21
    1b9a:	601a      	str	r2, [r3, #0]
    1b9c:	4770      	bx	lr
    1b9e:	2201      	movs	r2, #1
    1ba0:	4b03      	ldr	r3, [pc, #12]	; (1bb0 <rt_psh_req+0x24>)
    1ba2:	701a      	strb	r2, [r3, #0]
    1ba4:	e7fa      	b.n	1b9c <rt_psh_req+0x10>
    1ba6:	46c0      	nop			; (mov r8, r8)
    1ba8:	20000818 	.word	0x20000818
    1bac:	e000ed04 	.word	0xe000ed04
    1bb0:	20000819 	.word	0x20000819

00001bb4 <rt_pop_req>:
    1bb4:	4b1b      	ldr	r3, [pc, #108]	; (1c24 <rt_pop_req+0x70>)
    1bb6:	b570      	push	{r4, r5, r6, lr}
    1bb8:	6818      	ldr	r0, [r3, #0]
    1bba:	2301      	movs	r3, #1
    1bbc:	7043      	strb	r3, [r0, #1]
    1bbe:	f7ff ff0f 	bl	19e0 <rt_put_rdy_first>
    1bc2:	4c19      	ldr	r4, [pc, #100]	; (1c28 <rt_pop_req+0x74>)
    1bc4:	7865      	ldrb	r5, [r4, #1]
    1bc6:	78a3      	ldrb	r3, [r4, #2]
    1bc8:	2b00      	cmp	r3, #0
    1bca:	d106      	bne.n	1bda <rt_pop_req+0x26>
    1bcc:	7065      	strb	r5, [r4, #1]
    1bce:	4817      	ldr	r0, [pc, #92]	; (1c2c <rt_pop_req+0x78>)
    1bd0:	f7ff fef4 	bl	19bc <rt_get_first>
    1bd4:	f000 fdec 	bl	27b0 <rt_switch_req>
    1bd8:	bd70      	pop	{r4, r5, r6, pc}
    1bda:	00eb      	lsls	r3, r5, #3
    1bdc:	18e3      	adds	r3, r4, r3
    1bde:	6858      	ldr	r0, [r3, #4]
    1be0:	7802      	ldrb	r2, [r0, #0]
    1be2:	2a00      	cmp	r2, #0
    1be4:	d114      	bne.n	1c10 <rt_pop_req+0x5c>
    1be6:	6899      	ldr	r1, [r3, #8]
    1be8:	b289      	uxth	r1, r1
    1bea:	f000 fa19 	bl	2020 <rt_evt_psh>
    1bee:	78e3      	ldrb	r3, [r4, #3]
    1bf0:	3501      	adds	r5, #1
    1bf2:	429d      	cmp	r5, r3
    1bf4:	d100      	bne.n	1bf8 <rt_pop_req+0x44>
    1bf6:	2500      	movs	r5, #0
    1bf8:	f3ef 8310 	mrs	r3, PRIMASK
    1bfc:	f3ef 8210 	mrs	r2, PRIMASK
    1c00:	b672      	cpsid	i
    1c02:	78a2      	ldrb	r2, [r4, #2]
    1c04:	3a01      	subs	r2, #1
    1c06:	70a2      	strb	r2, [r4, #2]
    1c08:	2b00      	cmp	r3, #0
    1c0a:	d1dc      	bne.n	1bc6 <rt_pop_req+0x12>
    1c0c:	b662      	cpsie	i
    1c0e:	e7da      	b.n	1bc6 <rt_pop_req+0x12>
    1c10:	2a01      	cmp	r2, #1
    1c12:	d103      	bne.n	1c1c <rt_pop_req+0x68>
    1c14:	6899      	ldr	r1, [r3, #8]
    1c16:	f000 f991 	bl	1f3c <rt_mbx_psh>
    1c1a:	e7e8      	b.n	1bee <rt_pop_req+0x3a>
    1c1c:	f001 f8c8 	bl	2db0 <rt_sem_psh>
    1c20:	e7e5      	b.n	1bee <rt_pop_req+0x3a>
    1c22:	46c0      	nop			; (mov r8, r8)
    1c24:	2000115c 	.word	0x2000115c
    1c28:	20000b94 	.word	0x20000b94
    1c2c:	20001110 	.word	0x20001110

00001c30 <os_tick_init>:
    1c30:	4b09      	ldr	r3, [pc, #36]	; (1c58 <os_tick_init+0x28>)
    1c32:	2001      	movs	r0, #1
    1c34:	681a      	ldr	r2, [r3, #0]
    1c36:	4b09      	ldr	r3, [pc, #36]	; (1c5c <os_tick_init+0x2c>)
    1c38:	4240      	negs	r0, r0
    1c3a:	601a      	str	r2, [r3, #0]
    1c3c:	2200      	movs	r2, #0
    1c3e:	4b08      	ldr	r3, [pc, #32]	; (1c60 <os_tick_init+0x30>)
    1c40:	601a      	str	r2, [r3, #0]
    1c42:	4b08      	ldr	r3, [pc, #32]	; (1c64 <os_tick_init+0x34>)
    1c44:	3207      	adds	r2, #7
    1c46:	601a      	str	r2, [r3, #0]
    1c48:	23ff      	movs	r3, #255	; 0xff
    1c4a:	4a07      	ldr	r2, [pc, #28]	; (1c68 <os_tick_init+0x38>)
    1c4c:	061b      	lsls	r3, r3, #24
    1c4e:	6811      	ldr	r1, [r2, #0]
    1c50:	430b      	orrs	r3, r1
    1c52:	6013      	str	r3, [r2, #0]
    1c54:	4770      	bx	lr
    1c56:	46c0      	nop			; (mov r8, r8)
    1c58:	000076bc 	.word	0x000076bc
    1c5c:	e000e014 	.word	0xe000e014
    1c60:	e000e018 	.word	0xe000e018
    1c64:	e000e010 	.word	0xe000e010
    1c68:	e000ed20 	.word	0xe000ed20

00001c6c <os_tick_irqack>:
    1c6c:	4770      	bx	lr
	...

00001c70 <rt_systick>:
    1c70:	4b0b      	ldr	r3, [pc, #44]	; (1ca0 <rt_systick+0x30>)
    1c72:	b510      	push	{r4, lr}
    1c74:	6818      	ldr	r0, [r3, #0]
    1c76:	2301      	movs	r3, #1
    1c78:	7043      	strb	r3, [r0, #1]
    1c7a:	f7ff feb1 	bl	19e0 <rt_put_rdy_first>
    1c7e:	f000 fa03 	bl	2088 <rt_chk_robin>
    1c82:	4a08      	ldr	r2, [pc, #32]	; (1ca4 <rt_systick+0x34>)
    1c84:	6813      	ldr	r3, [r2, #0]
    1c86:	3301      	adds	r3, #1
    1c88:	6013      	str	r3, [r2, #0]
    1c8a:	f7ff fedb 	bl	1a44 <rt_dec_dly>
    1c8e:	f000 fd11 	bl	26b4 <sysTimerTick>
    1c92:	4805      	ldr	r0, [pc, #20]	; (1ca8 <rt_systick+0x38>)
    1c94:	f7ff fe92 	bl	19bc <rt_get_first>
    1c98:	f000 fd8a 	bl	27b0 <rt_switch_req>
    1c9c:	bd10      	pop	{r4, pc}
    1c9e:	46c0      	nop			; (mov r8, r8)
    1ca0:	2000115c 	.word	0x2000115c
    1ca4:	200011a4 	.word	0x200011a4
    1ca8:	20001110 	.word	0x20001110

00001cac <rt_stk_check>:
    1cac:	4b07      	ldr	r3, [pc, #28]	; (1ccc <rt_stk_check+0x20>)
    1cae:	b510      	push	{r4, lr}
    1cb0:	681a      	ldr	r2, [r3, #0]
    1cb2:	6b13      	ldr	r3, [r2, #48]	; 0x30
    1cb4:	6ad2      	ldr	r2, [r2, #44]	; 0x2c
    1cb6:	4293      	cmp	r3, r2
    1cb8:	d803      	bhi.n	1cc2 <rt_stk_check+0x16>
    1cba:	4a05      	ldr	r2, [pc, #20]	; (1cd0 <rt_stk_check+0x24>)
    1cbc:	681b      	ldr	r3, [r3, #0]
    1cbe:	4293      	cmp	r3, r2
    1cc0:	d002      	beq.n	1cc8 <rt_stk_check+0x1c>
    1cc2:	2001      	movs	r0, #1
    1cc4:	f7ff fe0e 	bl	18e4 <os_error>
    1cc8:	bd10      	pop	{r4, pc}
    1cca:	46c0      	nop			; (mov r8, r8)
    1ccc:	2000115c 	.word	0x2000115c
    1cd0:	e25a2ea5 	.word	0xe25a2ea5

00001cd4 <rt_init_stack>:
    1cd4:	b5f7      	push	{r0, r1, r2, r4, r5, r6, r7, lr}
    1cd6:	6a83      	ldr	r3, [r0, #40]	; 0x28
    1cd8:	9101      	str	r1, [sp, #4]
    1cda:	089b      	lsrs	r3, r3, #2
    1cdc:	d102      	bne.n	1ce4 <rt_init_stack+0x10>
    1cde:	4b20      	ldr	r3, [pc, #128]	; (1d60 <rt_init_stack+0x8c>)
    1ce0:	881b      	ldrh	r3, [r3, #0]
    1ce2:	089b      	lsrs	r3, r3, #2
    1ce4:	6b06      	ldr	r6, [r0, #48]	; 0x30
    1ce6:	009c      	lsls	r4, r3, #2
    1ce8:	1934      	adds	r4, r6, r4
    1cea:	0762      	lsls	r2, r4, #29
    1cec:	d500      	bpl.n	1cf0 <rt_init_stack+0x1c>
    1cee:	3c04      	subs	r4, #4
    1cf0:	2780      	movs	r7, #128	; 0x80
    1cf2:	1f22      	subs	r2, r4, #4
    1cf4:	047f      	lsls	r7, r7, #17
    1cf6:	6017      	str	r7, [r2, #0]
    1cf8:	0027      	movs	r7, r4
    1cfa:	9a01      	ldr	r2, [sp, #4]
    1cfc:	0025      	movs	r5, r4
    1cfe:	3f08      	subs	r7, #8
    1d00:	603a      	str	r2, [r7, #0]
    1d02:	2200      	movs	r2, #0
    1d04:	3d40      	subs	r5, #64	; 0x40
    1d06:	0029      	movs	r1, r5
    1d08:	4694      	mov	r12, r2
    1d0a:	4662      	mov	r2, r12
    1d0c:	c104      	stmia	r1!, {r2}
    1d0e:	428f      	cmp	r7, r1
    1d10:	d1fb      	bne.n	1d0a <rt_init_stack+0x36>
    1d12:	0022      	movs	r2, r4
    1d14:	69c7      	ldr	r7, [r0, #28]
    1d16:	3a20      	subs	r2, #32
    1d18:	6017      	str	r7, [r2, #0]
    1d1a:	9a01      	ldr	r2, [sp, #4]
    1d1c:	62c5      	str	r5, [r0, #44]	; 0x2c
    1d1e:	6342      	str	r2, [r0, #52]	; 0x34
    1d20:	4a0f      	ldr	r2, [pc, #60]	; (1d60 <rt_init_stack+0x8c>)
    1d22:	6812      	ldr	r2, [r2, #0]
    1d24:	9201      	str	r2, [sp, #4]
    1d26:	00d2      	lsls	r2, r2, #3
    1d28:	d512      	bpl.n	1d50 <rt_init_stack+0x7c>
    1d2a:	2b11      	cmp	r3, #17
    1d2c:	d910      	bls.n	1d50 <rt_init_stack+0x7c>
    1d2e:	3b10      	subs	r3, #16
    1d30:	085b      	lsrs	r3, r3, #1
    1d32:	00db      	lsls	r3, r3, #3
    1d34:	425b      	negs	r3, r3
    1d36:	001a      	movs	r2, r3
    1d38:	3a38      	subs	r2, #56	; 0x38
    1d3a:	18a4      	adds	r4, r4, r2
    1d3c:	002a      	movs	r2, r5
    1d3e:	4909      	ldr	r1, [pc, #36]	; (1d64 <rt_init_stack+0x90>)
    1d40:	42a2      	cmp	r2, r4
    1d42:	d108      	bne.n	1d56 <rt_init_stack+0x82>
    1d44:	18eb      	adds	r3, r5, r3
    1d46:	3304      	adds	r3, #4
    1d48:	429e      	cmp	r6, r3
    1d4a:	d201      	bcs.n	1d50 <rt_init_stack+0x7c>
    1d4c:	4a05      	ldr	r2, [pc, #20]	; (1d64 <rt_init_stack+0x90>)
    1d4e:	601a      	str	r2, [r3, #0]
    1d50:	4b05      	ldr	r3, [pc, #20]	; (1d68 <rt_init_stack+0x94>)
    1d52:	6033      	str	r3, [r6, #0]
    1d54:	bdf7      	pop	{r0, r1, r2, r4, r5, r6, r7, pc}
    1d56:	3a08      	subs	r2, #8
    1d58:	6051      	str	r1, [r2, #4]
    1d5a:	6011      	str	r1, [r2, #0]
    1d5c:	e7f0      	b.n	1d40 <rt_init_stack+0x6c>
    1d5e:	46c0      	nop			; (mov r8, r8)
    1d60:	000076a4 	.word	0x000076a4
    1d64:	cccccccc 	.word	0xcccccccc
    1d68:	e25a2ea5 	.word	0xe25a2ea5

00001d6c <rt_ret_val>:
    1d6c:	6ac3      	ldr	r3, [r0, #44]	; 0x2c
    1d6e:	6219      	str	r1, [r3, #32]
    1d70:	4770      	bx	lr

00001d72 <rt_ret_val2>:
    1d72:	6ac3      	ldr	r3, [r0, #44]	; 0x2c
    1d74:	6219      	str	r1, [r3, #32]
    1d76:	625a      	str	r2, [r3, #36]	; 0x24
    1d78:	4770      	bx	lr

00001d7a <_init_box>:
    1d7a:	b530      	push	{r4, r5, lr}
    1d7c:	0003      	movs	r3, r0
    1d7e:	2a00      	cmp	r2, #0
    1d80:	da18      	bge.n	1db4 <_init_box+0x3a>
    1d82:	2007      	movs	r0, #7
    1d84:	2410      	movs	r4, #16
    1d86:	0052      	lsls	r2, r2, #1
    1d88:	0852      	lsrs	r2, r2, #1
    1d8a:	3207      	adds	r2, #7
    1d8c:	4382      	bics	r2, r0
    1d8e:	2001      	movs	r0, #1
    1d90:	2a00      	cmp	r2, #0
    1d92:	d016      	beq.n	1dc2 <_init_box+0x48>
    1d94:	1915      	adds	r5, r2, r4
    1d96:	428d      	cmp	r5, r1
    1d98:	d813      	bhi.n	1dc2 <_init_box+0x48>
    1d9a:	1859      	adds	r1, r3, r1
    1d9c:	191c      	adds	r4, r3, r4
    1d9e:	4250      	negs	r0, r2
    1da0:	6059      	str	r1, [r3, #4]
    1da2:	601c      	str	r4, [r3, #0]
    1da4:	609a      	str	r2, [r3, #8]
    1da6:	1809      	adds	r1, r1, r0
    1da8:	18a3      	adds	r3, r4, r2
    1daa:	4299      	cmp	r1, r3
    1dac:	d307      	bcc.n	1dbe <_init_box+0x44>
    1dae:	501b      	str	r3, [r3, r0]
    1db0:	001c      	movs	r4, r3
    1db2:	e7f9      	b.n	1da8 <_init_box+0x2e>
    1db4:	2003      	movs	r0, #3
    1db6:	3203      	adds	r2, #3
    1db8:	4382      	bics	r2, r0
    1dba:	240c      	movs	r4, #12
    1dbc:	e7e7      	b.n	1d8e <_init_box+0x14>
    1dbe:	2000      	movs	r0, #0
    1dc0:	6020      	str	r0, [r4, #0]
    1dc2:	bd30      	pop	{r4, r5, pc}

00001dc4 <rt_alloc_box>:
    1dc4:	f3ef 8210 	mrs	r2, PRIMASK
    1dc8:	b672      	cpsid	i
    1dca:	2301      	movs	r3, #1
    1dcc:	401a      	ands	r2, r3
    1dce:	6803      	ldr	r3, [r0, #0]
    1dd0:	2b00      	cmp	r3, #0
    1dd2:	d001      	beq.n	1dd8 <rt_alloc_box+0x14>
    1dd4:	6819      	ldr	r1, [r3, #0]
    1dd6:	6001      	str	r1, [r0, #0]
    1dd8:	2a00      	cmp	r2, #0
    1dda:	d100      	bne.n	1dde <rt_alloc_box+0x1a>
    1ddc:	b662      	cpsie	i
    1dde:	0018      	movs	r0, r3
    1de0:	4770      	bx	lr

00001de2 <rt_free_box>:
    1de2:	0003      	movs	r3, r0
    1de4:	2001      	movs	r0, #1
    1de6:	4299      	cmp	r1, r3
    1de8:	d30c      	bcc.n	1e04 <rt_free_box+0x22>
    1dea:	685a      	ldr	r2, [r3, #4]
    1dec:	4291      	cmp	r1, r2
    1dee:	d209      	bcs.n	1e04 <rt_free_box+0x22>
    1df0:	f3ef 8210 	mrs	r2, PRIMASK
    1df4:	b672      	cpsid	i
    1df6:	6818      	ldr	r0, [r3, #0]
    1df8:	6008      	str	r0, [r1, #0]
    1dfa:	6019      	str	r1, [r3, #0]
    1dfc:	2000      	movs	r0, #0
    1dfe:	07d3      	lsls	r3, r2, #31
    1e00:	d400      	bmi.n	1e04 <rt_free_box+0x22>
    1e02:	b662      	cpsie	i
    1e04:	4770      	bx	lr

00001e06 <rt_mbx_init>:
    1e06:	2301      	movs	r3, #1
    1e08:	7003      	strb	r3, [r0, #0]
    1e0a:	2300      	movs	r3, #0
    1e0c:	3910      	subs	r1, #16
    1e0e:	0889      	lsrs	r1, r1, #2
    1e10:	7043      	strb	r3, [r0, #1]
    1e12:	7083      	strb	r3, [r0, #2]
    1e14:	6043      	str	r3, [r0, #4]
    1e16:	8103      	strh	r3, [r0, #8]
    1e18:	8143      	strh	r3, [r0, #10]
    1e1a:	8183      	strh	r3, [r0, #12]
    1e1c:	81c1      	strh	r1, [r0, #14]
    1e1e:	4770      	bx	lr

00001e20 <rt_mbx_wait>:
    1e20:	b570      	push	{r4, r5, r6, lr}
    1e22:	0015      	movs	r5, r2
    1e24:	8982      	ldrh	r2, [r0, #12]
    1e26:	0004      	movs	r4, r0
    1e28:	2a00      	cmp	r2, #0
    1e2a:	d03a      	beq.n	1ea2 <rt_mbx_wait+0x82>
    1e2c:	8943      	ldrh	r3, [r0, #10]
    1e2e:	1d18      	adds	r0, r3, #4
    1e30:	0080      	lsls	r0, r0, #2
    1e32:	5900      	ldr	r0, [r0, r4]
    1e34:	3301      	adds	r3, #1
    1e36:	6008      	str	r0, [r1, #0]
    1e38:	89e1      	ldrh	r1, [r4, #14]
    1e3a:	b29b      	uxth	r3, r3
    1e3c:	8163      	strh	r3, [r4, #10]
    1e3e:	4299      	cmp	r1, r3
    1e40:	d101      	bne.n	1e46 <rt_mbx_wait+0x26>
    1e42:	2300      	movs	r3, #0
    1e44:	8163      	strh	r3, [r4, #10]
    1e46:	6863      	ldr	r3, [r4, #4]
    1e48:	2b00      	cmp	r3, #0
    1e4a:	d01e      	beq.n	1e8a <rt_mbx_wait+0x6a>
    1e4c:	7863      	ldrb	r3, [r4, #1]
    1e4e:	2b02      	cmp	r3, #2
    1e50:	d11b      	bne.n	1e8a <rt_mbx_wait+0x6a>
    1e52:	0020      	movs	r0, r4
    1e54:	f7ff fdb2 	bl	19bc <rt_get_first>
    1e58:	0005      	movs	r5, r0
    1e5a:	2100      	movs	r1, #0
    1e5c:	f7ff ff86 	bl	1d6c <rt_ret_val>
    1e60:	8923      	ldrh	r3, [r4, #8]
    1e62:	69e9      	ldr	r1, [r5, #28]
    1e64:	1d1a      	adds	r2, r3, #4
    1e66:	0092      	lsls	r2, r2, #2
    1e68:	5111      	str	r1, [r2, r4]
    1e6a:	3301      	adds	r3, #1
    1e6c:	89e2      	ldrh	r2, [r4, #14]
    1e6e:	b29b      	uxth	r3, r3
    1e70:	8123      	strh	r3, [r4, #8]
    1e72:	429a      	cmp	r2, r3
    1e74:	d101      	bne.n	1e7a <rt_mbx_wait+0x5a>
    1e76:	2300      	movs	r3, #0
    1e78:	8123      	strh	r3, [r4, #8]
    1e7a:	0028      	movs	r0, r5
    1e7c:	f7ff fe4a 	bl	1b14 <rt_rmv_dly>
    1e80:	0028      	movs	r0, r5
    1e82:	f000 fcb3 	bl	27ec <rt_dispatch>
    1e86:	2000      	movs	r0, #0
    1e88:	bd70      	pop	{r4, r5, r6, pc}
    1e8a:	f3ef 8310 	mrs	r3, PRIMASK
    1e8e:	f3ef 8110 	mrs	r1, PRIMASK
    1e92:	b672      	cpsid	i
    1e94:	2000      	movs	r0, #0
    1e96:	3a01      	subs	r2, #1
    1e98:	81a2      	strh	r2, [r4, #12]
    1e9a:	4283      	cmp	r3, r0
    1e9c:	d1f4      	bne.n	1e88 <rt_mbx_wait+0x68>
    1e9e:	b662      	cpsie	i
    1ea0:	e7f2      	b.n	1e88 <rt_mbx_wait+0x68>
    1ea2:	2001      	movs	r0, #1
    1ea4:	2d00      	cmp	r5, #0
    1ea6:	d0ef      	beq.n	1e88 <rt_mbx_wait+0x68>
    1ea8:	6862      	ldr	r2, [r4, #4]
    1eaa:	4b09      	ldr	r3, [pc, #36]	; (1ed0 <rt_mbx_wait+0xb0>)
    1eac:	2a00      	cmp	r2, #0
    1eae:	d009      	beq.n	1ec4 <rt_mbx_wait+0xa4>
    1eb0:	6819      	ldr	r1, [r3, #0]
    1eb2:	0020      	movs	r0, r4
    1eb4:	f7ff fd68 	bl	1988 <rt_put_prio>
    1eb8:	0028      	movs	r0, r5
    1eba:	2108      	movs	r1, #8
    1ebc:	f000 fcb6 	bl	282c <rt_block>
    1ec0:	2001      	movs	r0, #1
    1ec2:	e7e1      	b.n	1e88 <rt_mbx_wait+0x68>
    1ec4:	681b      	ldr	r3, [r3, #0]
    1ec6:	6063      	str	r3, [r4, #4]
    1ec8:	605a      	str	r2, [r3, #4]
    1eca:	609c      	str	r4, [r3, #8]
    1ecc:	7060      	strb	r0, [r4, #1]
    1ece:	e7f3      	b.n	1eb8 <rt_mbx_wait+0x98>
    1ed0:	2000115c 	.word	0x2000115c

00001ed4 <rt_mbx_check>:
    1ed4:	89c3      	ldrh	r3, [r0, #14]
    1ed6:	8980      	ldrh	r0, [r0, #12]
    1ed8:	1a18      	subs	r0, r3, r0
    1eda:	4770      	bx	lr

00001edc <isr_mbx_send>:
    1edc:	b510      	push	{r4, lr}
    1ede:	f7ff fe2f 	bl	1b40 <rt_psq_enq>
    1ee2:	f7ff fe53 	bl	1b8c <rt_psh_req>
    1ee6:	bd10      	pop	{r4, pc}

00001ee8 <isr_mbx_receive>:
    1ee8:	b510      	push	{r4, lr}
    1eea:	0004      	movs	r4, r0
    1eec:	8983      	ldrh	r3, [r0, #12]
    1eee:	2000      	movs	r0, #0
    1ef0:	4283      	cmp	r3, r0
    1ef2:	d022      	beq.n	1f3a <isr_mbx_receive+0x52>
    1ef4:	8963      	ldrh	r3, [r4, #10]
    1ef6:	3304      	adds	r3, #4
    1ef8:	009b      	lsls	r3, r3, #2
    1efa:	591b      	ldr	r3, [r3, r4]
    1efc:	600b      	str	r3, [r1, #0]
    1efe:	7863      	ldrb	r3, [r4, #1]
    1f00:	2b02      	cmp	r3, #2
    1f02:	d105      	bne.n	1f10 <isr_mbx_receive+0x28>
    1f04:	0001      	movs	r1, r0
    1f06:	0020      	movs	r0, r4
    1f08:	f7ff fe1a 	bl	1b40 <rt_psq_enq>
    1f0c:	f7ff fe3e 	bl	1b8c <rt_psh_req>
    1f10:	f3ef 8310 	mrs	r3, PRIMASK
    1f14:	f3ef 8210 	mrs	r2, PRIMASK
    1f18:	b672      	cpsid	i
    1f1a:	89a2      	ldrh	r2, [r4, #12]
    1f1c:	3a01      	subs	r2, #1
    1f1e:	81a2      	strh	r2, [r4, #12]
    1f20:	2b00      	cmp	r3, #0
    1f22:	d100      	bne.n	1f26 <isr_mbx_receive+0x3e>
    1f24:	b662      	cpsie	i
    1f26:	8963      	ldrh	r3, [r4, #10]
    1f28:	89e2      	ldrh	r2, [r4, #14]
    1f2a:	3301      	adds	r3, #1
    1f2c:	b29b      	uxth	r3, r3
    1f2e:	8163      	strh	r3, [r4, #10]
    1f30:	2004      	movs	r0, #4
    1f32:	429a      	cmp	r2, r3
    1f34:	d101      	bne.n	1f3a <isr_mbx_receive+0x52>
    1f36:	2300      	movs	r3, #0
    1f38:	8163      	strh	r3, [r4, #10]
    1f3a:	bd10      	pop	{r4, pc}

00001f3c <rt_mbx_psh>:
    1f3c:	6843      	ldr	r3, [r0, #4]
    1f3e:	b570      	push	{r4, r5, r6, lr}
    1f40:	0004      	movs	r4, r0
    1f42:	000d      	movs	r5, r1
    1f44:	2b00      	cmp	r3, #0
    1f46:	d04a      	beq.n	1fde <rt_mbx_psh+0xa2>
    1f48:	7846      	ldrb	r6, [r0, #1]
    1f4a:	2e02      	cmp	r6, #2
    1f4c:	d01f      	beq.n	1f8e <rt_mbx_psh+0x52>
    1f4e:	2e03      	cmp	r6, #3
    1f50:	d00a      	beq.n	1f68 <rt_mbx_psh+0x2c>
    1f52:	2e01      	cmp	r6, #1
    1f54:	d142      	bne.n	1fdc <rt_mbx_psh+0xa0>
    1f56:	f7ff fd31 	bl	19bc <rt_get_first>
    1f5a:	0004      	movs	r4, r0
    1f5c:	002a      	movs	r2, r5
    1f5e:	2110      	movs	r1, #16
    1f60:	f7ff ff07 	bl	1d72 <rt_ret_val2>
    1f64:	7066      	strb	r6, [r4, #1]
    1f66:	e00d      	b.n	1f84 <rt_mbx_psh+0x48>
    1f68:	0008      	movs	r0, r1
    1f6a:	f7ff ff2b 	bl	1dc4 <rt_alloc_box>
    1f6e:	1e05      	subs	r5, r0, #0
    1f70:	d034      	beq.n	1fdc <rt_mbx_psh+0xa0>
    1f72:	0020      	movs	r0, r4
    1f74:	f7ff fd22 	bl	19bc <rt_get_first>
    1f78:	0029      	movs	r1, r5
    1f7a:	0004      	movs	r4, r0
    1f7c:	f7ff fef6 	bl	1d6c <rt_ret_val>
    1f80:	2301      	movs	r3, #1
    1f82:	7063      	strb	r3, [r4, #1]
    1f84:	0020      	movs	r0, r4
    1f86:	f7ff fdc5 	bl	1b14 <rt_rmv_dly>
    1f8a:	0021      	movs	r1, r4
    1f8c:	e023      	b.n	1fd6 <rt_mbx_psh+0x9a>
    1f8e:	f7ff fd15 	bl	19bc <rt_get_first>
    1f92:	0005      	movs	r5, r0
    1f94:	2100      	movs	r1, #0
    1f96:	f7ff fee9 	bl	1d6c <rt_ret_val>
    1f9a:	8923      	ldrh	r3, [r4, #8]
    1f9c:	69e9      	ldr	r1, [r5, #28]
    1f9e:	1d1a      	adds	r2, r3, #4
    1fa0:	0092      	lsls	r2, r2, #2
    1fa2:	5111      	str	r1, [r2, r4]
    1fa4:	f3ef 8210 	mrs	r2, PRIMASK
    1fa8:	f3ef 8110 	mrs	r1, PRIMASK
    1fac:	b672      	cpsid	i
    1fae:	89a1      	ldrh	r1, [r4, #12]
    1fb0:	3101      	adds	r1, #1
    1fb2:	81a1      	strh	r1, [r4, #12]
    1fb4:	2a00      	cmp	r2, #0
    1fb6:	d100      	bne.n	1fba <rt_mbx_psh+0x7e>
    1fb8:	b662      	cpsie	i
    1fba:	3301      	adds	r3, #1
    1fbc:	89e2      	ldrh	r2, [r4, #14]
    1fbe:	b29b      	uxth	r3, r3
    1fc0:	8123      	strh	r3, [r4, #8]
    1fc2:	429a      	cmp	r2, r3
    1fc4:	d101      	bne.n	1fca <rt_mbx_psh+0x8e>
    1fc6:	2300      	movs	r3, #0
    1fc8:	8123      	strh	r3, [r4, #8]
    1fca:	2301      	movs	r3, #1
    1fcc:	0028      	movs	r0, r5
    1fce:	706b      	strb	r3, [r5, #1]
    1fd0:	f7ff fda0 	bl	1b14 <rt_rmv_dly>
    1fd4:	0029      	movs	r1, r5
    1fd6:	4811      	ldr	r0, [pc, #68]	; (201c <rt_mbx_psh+0xe0>)
    1fd8:	f7ff fcd6 	bl	1988 <rt_put_prio>
    1fdc:	bd70      	pop	{r4, r5, r6, pc}
    1fde:	8982      	ldrh	r2, [r0, #12]
    1fe0:	89c0      	ldrh	r0, [r0, #14]
    1fe2:	4282      	cmp	r2, r0
    1fe4:	d215      	bcs.n	2012 <rt_mbx_psh+0xd6>
    1fe6:	8923      	ldrh	r3, [r4, #8]
    1fe8:	1d19      	adds	r1, r3, #4
    1fea:	0089      	lsls	r1, r1, #2
    1fec:	510d      	str	r5, [r1, r4]
    1fee:	f3ef 8110 	mrs	r1, PRIMASK
    1ff2:	f3ef 8510 	mrs	r5, PRIMASK
    1ff6:	b672      	cpsid	i
    1ff8:	3201      	adds	r2, #1
    1ffa:	81a2      	strh	r2, [r4, #12]
    1ffc:	2900      	cmp	r1, #0
    1ffe:	d100      	bne.n	2002 <rt_mbx_psh+0xc6>
    2000:	b662      	cpsie	i
    2002:	3301      	adds	r3, #1
    2004:	b29b      	uxth	r3, r3
    2006:	4298      	cmp	r0, r3
    2008:	d001      	beq.n	200e <rt_mbx_psh+0xd2>
    200a:	8123      	strh	r3, [r4, #8]
    200c:	e7e6      	b.n	1fdc <rt_mbx_psh+0xa0>
    200e:	2300      	movs	r3, #0
    2010:	e7fb      	b.n	200a <rt_mbx_psh+0xce>
    2012:	2003      	movs	r0, #3
    2014:	f7ff fc66 	bl	18e4 <os_error>
    2018:	e7e0      	b.n	1fdc <rt_mbx_psh+0xa0>
    201a:	46c0      	nop			; (mov r8, r8)
    201c:	20001110 	.word	0x20001110

00002020 <rt_evt_psh>:
    2020:	b510      	push	{r4, lr}
    2022:	8b03      	ldrh	r3, [r0, #24]
    2024:	7842      	ldrb	r2, [r0, #1]
    2026:	4319      	orrs	r1, r3
    2028:	0004      	movs	r4, r0
    202a:	8301      	strh	r1, [r0, #24]
    202c:	8b43      	ldrh	r3, [r0, #26]
    202e:	2a06      	cmp	r2, #6
    2030:	d114      	bne.n	205c <rt_evt_psh+0x3c>
    2032:	001a      	movs	r2, r3
    2034:	400a      	ands	r2, r1
    2036:	4293      	cmp	r3, r2
    2038:	d10f      	bne.n	205a <rt_evt_psh+0x3a>
    203a:	4399      	bics	r1, r3
    203c:	8321      	strh	r1, [r4, #24]
    203e:	0020      	movs	r0, r4
    2040:	f7ff fd68 	bl	1b14 <rt_rmv_dly>
    2044:	2301      	movs	r3, #1
    2046:	2108      	movs	r1, #8
    2048:	0020      	movs	r0, r4
    204a:	7063      	strb	r3, [r4, #1]
    204c:	8b62      	ldrh	r2, [r4, #26]
    204e:	f7ff fe90 	bl	1d72 <rt_ret_val2>
    2052:	0021      	movs	r1, r4
    2054:	4805      	ldr	r0, [pc, #20]	; (206c <rt_evt_psh+0x4c>)
    2056:	f7ff fc97 	bl	1988 <rt_put_prio>
    205a:	bd10      	pop	{r4, pc}
    205c:	2a05      	cmp	r2, #5
    205e:	d1fc      	bne.n	205a <rt_evt_psh+0x3a>
    2060:	001a      	movs	r2, r3
    2062:	400a      	ands	r2, r1
    2064:	d0f9      	beq.n	205a <rt_evt_psh+0x3a>
    2066:	8342      	strh	r2, [r0, #26]
    2068:	e7e7      	b.n	203a <rt_evt_psh+0x1a>
    206a:	46c0      	nop			; (mov r8, r8)
    206c:	20001110 	.word	0x20001110

00002070 <rt_init_robin>:
    2070:	2200      	movs	r2, #0
    2072:	4b03      	ldr	r3, [pc, #12]	; (2080 <rt_init_robin+0x10>)
    2074:	601a      	str	r2, [r3, #0]
    2076:	4a03      	ldr	r2, [pc, #12]	; (2084 <rt_init_robin+0x14>)
    2078:	6812      	ldr	r2, [r2, #0]
    207a:	80da      	strh	r2, [r3, #6]
    207c:	4770      	bx	lr
    207e:	46c0      	nop			; (mov r8, r8)
    2080:	20001148 	.word	0x20001148
    2084:	000076a0 	.word	0x000076a0

00002088 <rt_chk_robin>:
    2088:	b510      	push	{r4, lr}
    208a:	4b0d      	ldr	r3, [pc, #52]	; (20c0 <rt_chk_robin+0x38>)
    208c:	4c0d      	ldr	r4, [pc, #52]	; (20c4 <rt_chk_robin+0x3c>)
    208e:	6818      	ldr	r0, [r3, #0]
    2090:	6862      	ldr	r2, [r4, #4]
    2092:	490d      	ldr	r1, [pc, #52]	; (20c8 <rt_chk_robin+0x40>)
    2094:	4290      	cmp	r0, r2
    2096:	d005      	beq.n	20a4 <rt_chk_robin+0x1c>
    2098:	601a      	str	r2, [r3, #0]
    209a:	88da      	ldrh	r2, [r3, #6]
    209c:	6808      	ldr	r0, [r1, #0]
    209e:	3a01      	subs	r2, #1
    20a0:	1882      	adds	r2, r0, r2
    20a2:	809a      	strh	r2, [r3, #4]
    20a4:	8898      	ldrh	r0, [r3, #4]
    20a6:	880a      	ldrh	r2, [r1, #0]
    20a8:	4290      	cmp	r0, r2
    20aa:	d108      	bne.n	20be <rt_chk_robin+0x36>
    20ac:	2200      	movs	r2, #0
    20ae:	0020      	movs	r0, r4
    20b0:	601a      	str	r2, [r3, #0]
    20b2:	f7ff fc83 	bl	19bc <rt_get_first>
    20b6:	0001      	movs	r1, r0
    20b8:	0020      	movs	r0, r4
    20ba:	f7ff fc65 	bl	1988 <rt_put_prio>
    20be:	bd10      	pop	{r4, pc}
    20c0:	20001148 	.word	0x20001148
    20c4:	20001110 	.word	0x20001110
    20c8:	200011a4 	.word	0x200011a4

000020cc <rt_timer_insert>:
    20cc:	2200      	movs	r2, #0
    20ce:	b530      	push	{r4, r5, lr}
    20d0:	4c0b      	ldr	r4, [pc, #44]	; (2100 <rt_timer_insert+0x34>)
    20d2:	6823      	ldr	r3, [r4, #0]
    20d4:	2b00      	cmp	r3, #0
    20d6:	d10a      	bne.n	20ee <rt_timer_insert+0x22>
    20d8:	6003      	str	r3, [r0, #0]
    20da:	6081      	str	r1, [r0, #8]
    20dc:	2b00      	cmp	r3, #0
    20de:	d002      	beq.n	20e6 <rt_timer_insert+0x1a>
    20e0:	689d      	ldr	r5, [r3, #8]
    20e2:	1a69      	subs	r1, r5, r1
    20e4:	6099      	str	r1, [r3, #8]
    20e6:	2a00      	cmp	r2, #0
    20e8:	d008      	beq.n	20fc <rt_timer_insert+0x30>
    20ea:	6010      	str	r0, [r2, #0]
    20ec:	bd30      	pop	{r4, r5, pc}
    20ee:	689d      	ldr	r5, [r3, #8]
    20f0:	42a9      	cmp	r1, r5
    20f2:	d3f1      	bcc.n	20d8 <rt_timer_insert+0xc>
    20f4:	001a      	movs	r2, r3
    20f6:	1b49      	subs	r1, r1, r5
    20f8:	681b      	ldr	r3, [r3, #0]
    20fa:	e7eb      	b.n	20d4 <rt_timer_insert+0x8>
    20fc:	6020      	str	r0, [r4, #0]
    20fe:	e7f5      	b.n	20ec <rt_timer_insert+0x20>
    2100:	20001158 	.word	0x20001158

00002104 <rt_ms2tick>:
    2104:	2300      	movs	r3, #0
    2106:	b513      	push	{r0, r1, r4, lr}
    2108:	0002      	movs	r2, r0
    210a:	4298      	cmp	r0, r3
    210c:	d015      	beq.n	213a <rt_ms2tick+0x36>
    210e:	1c43      	adds	r3, r0, #1
    2110:	d015      	beq.n	213e <rt_ms2tick+0x3a>
    2112:	4c0c      	ldr	r4, [pc, #48]	; (2144 <rt_ms2tick+0x40>)
    2114:	490c      	ldr	r1, [pc, #48]	; (2148 <rt_ms2tick+0x44>)
    2116:	0023      	movs	r3, r4
    2118:	4288      	cmp	r0, r1
    211a:	d80e      	bhi.n	213a <rt_ms2tick+0x36>
    211c:	20fa      	movs	r0, #250	; 0xfa
    211e:	4b0b      	ldr	r3, [pc, #44]	; (214c <rt_ms2tick+0x48>)
    2120:	0080      	lsls	r0, r0, #2
    2122:	4350      	muls	r0, r2
    2124:	681b      	ldr	r3, [r3, #0]
    2126:	9301      	str	r3, [sp, #4]
    2128:	3b01      	subs	r3, #1
    212a:	18c0      	adds	r0, r0, r3
    212c:	9901      	ldr	r1, [sp, #4]
    212e:	f001 ffed 	bl	410c <__udivsi3>
    2132:	0023      	movs	r3, r4
    2134:	42a0      	cmp	r0, r4
    2136:	d800      	bhi.n	213a <rt_ms2tick+0x36>
    2138:	b283      	uxth	r3, r0
    213a:	0018      	movs	r0, r3
    213c:	bd16      	pop	{r1, r2, r4, pc}
    213e:	4b04      	ldr	r3, [pc, #16]	; (2150 <rt_ms2tick+0x4c>)
    2140:	e7fb      	b.n	213a <rt_ms2tick+0x36>
    2142:	46c0      	nop			; (mov r8, r8)
    2144:	0000fffe 	.word	0x0000fffe
    2148:	003d0900 	.word	0x003d0900
    214c:	00007658 	.word	0x00007658
    2150:	0000ffff 	.word	0x0000ffff

00002154 <rt_tid2ptcb>:
    2154:	2800      	cmp	r0, #0
    2156:	d006      	beq.n	2166 <rt_tid2ptcb+0x12>
    2158:	0783      	lsls	r3, r0, #30
    215a:	d105      	bne.n	2168 <rt_tid2ptcb+0x14>
    215c:	7803      	ldrb	r3, [r0, #0]
    215e:	425a      	negs	r2, r3
    2160:	4153      	adcs	r3, r2
    2162:	425b      	negs	r3, r3
    2164:	4018      	ands	r0, r3
    2166:	4770      	bx	lr
    2168:	2000      	movs	r0, #0
    216a:	e7fc      	b.n	2166 <rt_tid2ptcb+0x12>

0000216c <svcKernelStart>:
    216c:	b5b0      	push	{r4, r5, r7, lr}
    216e:	4d0f      	ldr	r5, [pc, #60]	; (21ac <svcKernelStart+0x40>)
    2170:	af00      	add	r7, sp, #0
    2172:	7828      	ldrb	r0, [r5, #0]
    2174:	2800      	cmp	r0, #0
    2176:	d115      	bne.n	21a4 <svcKernelStart+0x38>
    2178:	4c0d      	ldr	r4, [pc, #52]	; (21b0 <svcKernelStart+0x44>)
    217a:	6823      	ldr	r3, [r4, #0]
    217c:	3305      	adds	r3, #5
    217e:	7fd9      	ldrb	r1, [r3, #31]
    2180:	f000 fb76 	bl	2870 <rt_tsk_prio>
    2184:	6823      	ldr	r3, [r4, #0]
    2186:	78da      	ldrb	r2, [r3, #3]
    2188:	2aff      	cmp	r2, #255	; 0xff
    218a:	d103      	bne.n	2194 <svcKernelStart+0x28>
    218c:	6ada      	ldr	r2, [r3, #44]	; 0x2c
    218e:	3220      	adds	r2, #32
    2190:	f382 8809 	msr	PSP, r2
    2194:	6862      	ldr	r2, [r4, #4]
    2196:	2a00      	cmp	r2, #0
    2198:	d100      	bne.n	219c <svcKernelStart+0x30>
    219a:	c40c      	stmia	r4!, {r2, r3}
    219c:	f000 fd1c 	bl	2bd8 <rt_sys_start>
    21a0:	2301      	movs	r3, #1
    21a2:	702b      	strb	r3, [r5, #0]
    21a4:	46bd      	mov	sp, r7
    21a6:	2000      	movs	r0, #0
    21a8:	bdb0      	pop	{r4, r5, r7, pc}
    21aa:	46c0      	nop			; (mov r8, r8)
    21ac:	20001155 	.word	0x20001155
    21b0:	2000115c 	.word	0x2000115c

000021b4 <svcKernelRunning>:
    21b4:	4b01      	ldr	r3, [pc, #4]	; (21bc <svcKernelRunning+0x8>)
    21b6:	7818      	ldrb	r0, [r3, #0]
    21b8:	4770      	bx	lr
    21ba:	46c0      	nop			; (mov r8, r8)
    21bc:	20001155 	.word	0x20001155

000021c0 <osKernelRunning>:
    21c0:	b590      	push	{r4, r7, lr}
    21c2:	f3ef 8410 	mrs	r4, PRIMASK
    21c6:	2c00      	cmp	r4, #0
    21c8:	d107      	bne.n	21da <osKernelRunning+0x1a>
    21ca:	f3ef 8405 	mrs	r4, IPSR
    21ce:	2c00      	cmp	r4, #0
    21d0:	d103      	bne.n	21da <osKernelRunning+0x1a>
    21d2:	f3ef 8414 	mrs	r4, CONTROL
    21d6:	07e4      	lsls	r4, r4, #31
    21d8:	d402      	bmi.n	21e0 <osKernelRunning+0x20>
    21da:	4b03      	ldr	r3, [pc, #12]	; (21e8 <osKernelRunning+0x28>)
    21dc:	7818      	ldrb	r0, [r3, #0]
    21de:	bd90      	pop	{r4, r7, pc}
    21e0:	4f02      	ldr	r7, [pc, #8]	; (21ec <osKernelRunning+0x2c>)
    21e2:	46bc      	mov	r12, r7
    21e4:	df00      	svc	0
    21e6:	e7fa      	b.n	21de <osKernelRunning+0x1e>
    21e8:	20001155 	.word	0x20001155
    21ec:	000021b5 	.word	0x000021b5

000021f0 <osKernelStart>:
    21f0:	b5f0      	push	{r4, r5, r6, r7, lr}
    21f2:	b089      	sub	sp, #36	; 0x24
    21f4:	af00      	add	r7, sp, #0
    21f6:	f3ef 8310 	mrs	r3, PRIMASK
    21fa:	2582      	movs	r5, #130	; 0x82
    21fc:	2b00      	cmp	r3, #0
    21fe:	d13a      	bne.n	2276 <osKernelStart+0x86>
    2200:	f3ef 8305 	mrs	r3, IPSR
    2204:	2b00      	cmp	r3, #0
    2206:	d136      	bne.n	2276 <osKernelStart+0x86>
    2208:	f7ff ffda 	bl	21c0 <osKernelRunning>
    220c:	2800      	cmp	r0, #0
    220e:	d107      	bne.n	2220 <osKernelStart+0x30>
    2210:	4c1b      	ldr	r4, [pc, #108]	; (2280 <osKernelStart+0x90>)
    2212:	6824      	ldr	r4, [r4, #0]
    2214:	2c00      	cmp	r4, #0
    2216:	d003      	beq.n	2220 <osKernelStart+0x30>
    2218:	6864      	ldr	r4, [r4, #4]
    221a:	2c00      	cmp	r4, #0
    221c:	d000      	beq.n	2220 <osKernelStart+0x30>
    221e:	47a0      	blx	r4
    2220:	f3ef 8414 	mrs	r4, CONTROL
    2224:	2603      	movs	r6, #3
    2226:	4034      	ands	r4, r6
    2228:	2c02      	cmp	r4, #2
    222a:	d018      	beq.n	225e <osKernelStart+0x6e>
    222c:	42b4      	cmp	r4, r6
    222e:	d01d      	beq.n	226c <osKernelStart+0x7c>
    2230:	25ff      	movs	r5, #255	; 0xff
    2232:	2c01      	cmp	r4, #1
    2234:	d01f      	beq.n	2276 <osKernelStart+0x86>
    2236:	2420      	movs	r4, #32
    2238:	193c      	adds	r4, r7, r4
    223a:	f384 8809 	msr	PSP, r4
    223e:	4c11      	ldr	r4, [pc, #68]	; (2284 <osKernelStart+0x94>)
    2240:	7824      	ldrb	r4, [r4, #0]
    2242:	07e4      	lsls	r4, r4, #31
    2244:	d50f      	bpl.n	2266 <osKernelStart+0x76>
    2246:	2402      	movs	r4, #2
    2248:	f384 8814 	msr	CONTROL, r4
    224c:	f3bf 8f4f 	dsb	sy
    2250:	f3bf 8f6f 	isb	sy
    2254:	4f0c      	ldr	r7, [pc, #48]	; (2288 <osKernelStart+0x98>)
    2256:	46bc      	mov	r12, r7
    2258:	df00      	svc	0
    225a:	0005      	movs	r5, r0
    225c:	e00b      	b.n	2276 <osKernelStart+0x86>
    225e:	4c09      	ldr	r4, [pc, #36]	; (2284 <osKernelStart+0x94>)
    2260:	7824      	ldrb	r4, [r4, #0]
    2262:	07e4      	lsls	r4, r4, #31
    2264:	d4f6      	bmi.n	2254 <osKernelStart+0x64>
    2266:	f386 8814 	msr	CONTROL, r6
    226a:	e7ef      	b.n	224c <osKernelStart+0x5c>
    226c:	4c05      	ldr	r4, [pc, #20]	; (2284 <osKernelStart+0x94>)
    226e:	25ff      	movs	r5, #255	; 0xff
    2270:	7824      	ldrb	r4, [r4, #0]
    2272:	07e4      	lsls	r4, r4, #31
    2274:	d5ee      	bpl.n	2254 <osKernelStart+0x64>
    2276:	0028      	movs	r0, r5
    2278:	46bd      	mov	sp, r7
    227a:	b009      	add	sp, #36	; 0x24
    227c:	bdf0      	pop	{r4, r5, r6, r7, pc}
    227e:	46c0      	nop			; (mov r8, r8)
    2280:	20001144 	.word	0x20001144
    2284:	00007686 	.word	0x00007686
    2288:	0000216d 	.word	0x0000216d

0000228c <svcThreadCreate>:
    228c:	b570      	push	{r4, r5, r6, lr}
    228e:	000b      	movs	r3, r1
    2290:	0015      	movs	r5, r2
    2292:	2800      	cmp	r0, #0
    2294:	d102      	bne.n	229c <svcThreadCreate+0x10>
    2296:	2400      	movs	r4, #0
    2298:	0020      	movs	r0, r4
    229a:	bd70      	pop	{r4, r5, r6, pc}
    229c:	6806      	ldr	r6, [r0, #0]
    229e:	2e00      	cmp	r6, #0
    22a0:	d0f9      	beq.n	2296 <svcThreadCreate+0xa>
    22a2:	2204      	movs	r2, #4
    22a4:	5e84      	ldrsh	r4, [r0, r2]
    22a6:	1ce2      	adds	r2, r4, #3
    22a8:	b292      	uxth	r2, r2
    22aa:	2a06      	cmp	r2, #6
    22ac:	d8f3      	bhi.n	2296 <svcThreadCreate+0xa>
    22ae:	2200      	movs	r2, #0
    22b0:	68c1      	ldr	r1, [r0, #12]
    22b2:	4291      	cmp	r1, r2
    22b4:	d000      	beq.n	22b8 <svcThreadCreate+0x2c>
    22b6:	6902      	ldr	r2, [r0, #16]
    22b8:	3404      	adds	r4, #4
    22ba:	0209      	lsls	r1, r1, #8
    22bc:	4321      	orrs	r1, r4
    22be:	0030      	movs	r0, r6
    22c0:	f000 fb16 	bl	28f0 <rt_tsk_create>
    22c4:	2800      	cmp	r0, #0
    22c6:	d0e6      	beq.n	2296 <svcThreadCreate+0xa>
    22c8:	4b0a      	ldr	r3, [pc, #40]	; (22f4 <svcThreadCreate+0x68>)
    22ca:	3801      	subs	r0, #1
    22cc:	0080      	lsls	r0, r0, #2
    22ce:	58c4      	ldr	r4, [r0, r3]
    22d0:	4a09      	ldr	r2, [pc, #36]	; (22f8 <svcThreadCreate+0x6c>)
    22d2:	6ae3      	ldr	r3, [r4, #44]	; 0x2c
    22d4:	635a      	str	r2, [r3, #52]	; 0x34
    22d6:	4b09      	ldr	r3, [pc, #36]	; (22fc <svcThreadCreate+0x70>)
    22d8:	681b      	ldr	r3, [r3, #0]
    22da:	2b00      	cmp	r3, #0
    22dc:	d007      	beq.n	22ee <svcThreadCreate+0x62>
    22de:	689b      	ldr	r3, [r3, #8]
    22e0:	2b00      	cmp	r3, #0
    22e2:	d004      	beq.n	22ee <svcThreadCreate+0x62>
    22e4:	78e0      	ldrb	r0, [r4, #3]
    22e6:	0029      	movs	r1, r5
    22e8:	4798      	blx	r3
    22ea:	63e0      	str	r0, [r4, #60]	; 0x3c
    22ec:	e7d4      	b.n	2298 <svcThreadCreate+0xc>
    22ee:	63e5      	str	r5, [r4, #60]	; 0x3c
    22f0:	e7d2      	b.n	2298 <svcThreadCreate+0xc>
    22f2:	46c0      	nop			; (mov r8, r8)
    22f4:	20000b78 	.word	0x20000b78
    22f8:	000024a9 	.word	0x000024a9
    22fc:	20001144 	.word	0x20001144

00002300 <svcThreadGetId>:
    2300:	b510      	push	{r4, lr}
    2302:	f000 faad 	bl	2860 <rt_tsk_self>
    2306:	1e03      	subs	r3, r0, #0
    2308:	d003      	beq.n	2312 <svcThreadGetId+0x12>
    230a:	3801      	subs	r0, #1
    230c:	4b02      	ldr	r3, [pc, #8]	; (2318 <svcThreadGetId+0x18>)
    230e:	0080      	lsls	r0, r0, #2
    2310:	58c3      	ldr	r3, [r0, r3]
    2312:	0018      	movs	r0, r3
    2314:	bd10      	pop	{r4, pc}
    2316:	46c0      	nop			; (mov r8, r8)
    2318:	20000b78 	.word	0x20000b78

0000231c <svcThreadTerminate>:
    231c:	b510      	push	{r4, lr}
    231e:	f7ff ff19 	bl	2154 <rt_tid2ptcb>
    2322:	2380      	movs	r3, #128	; 0x80
    2324:	1e04      	subs	r4, r0, #0
    2326:	d00f      	beq.n	2348 <svcThreadTerminate+0x2c>
    2328:	4b08      	ldr	r3, [pc, #32]	; (234c <svcThreadTerminate+0x30>)
    232a:	681b      	ldr	r3, [r3, #0]
    232c:	2b00      	cmp	r3, #0
    232e:	d004      	beq.n	233a <svcThreadTerminate+0x1e>
    2330:	68db      	ldr	r3, [r3, #12]
    2332:	2b00      	cmp	r3, #0
    2334:	d001      	beq.n	233a <svcThreadTerminate+0x1e>
    2336:	6bc0      	ldr	r0, [r0, #60]	; 0x3c
    2338:	4798      	blx	r3
    233a:	78e0      	ldrb	r0, [r4, #3]
    233c:	f000 fb2a 	bl	2994 <rt_tsk_delete>
    2340:	2381      	movs	r3, #129	; 0x81
    2342:	28ff      	cmp	r0, #255	; 0xff
    2344:	d000      	beq.n	2348 <svcThreadTerminate+0x2c>
    2346:	2300      	movs	r3, #0
    2348:	0018      	movs	r0, r3
    234a:	bd10      	pop	{r4, pc}
    234c:	20001144 	.word	0x20001144

00002350 <svcDelay>:
    2350:	2300      	movs	r3, #0
    2352:	b510      	push	{r4, lr}
    2354:	4298      	cmp	r0, r3
    2356:	d004      	beq.n	2362 <svcDelay+0x12>
    2358:	f7ff fed4 	bl	2104 <rt_ms2tick>
    235c:	f000 fd22 	bl	2da4 <rt_dly_wait>
    2360:	2340      	movs	r3, #64	; 0x40
    2362:	0018      	movs	r0, r3
    2364:	bd10      	pop	{r4, pc}
	...

00002368 <osDelay>:
    2368:	b5b0      	push	{r4, r5, r7, lr}
    236a:	0005      	movs	r5, r0
    236c:	f3ef 8410 	mrs	r4, PRIMASK
    2370:	2082      	movs	r0, #130	; 0x82
    2372:	2c00      	cmp	r4, #0
    2374:	d107      	bne.n	2386 <osDelay+0x1e>
    2376:	f3ef 8405 	mrs	r4, IPSR
    237a:	2c00      	cmp	r4, #0
    237c:	d103      	bne.n	2386 <osDelay+0x1e>
    237e:	0028      	movs	r0, r5
    2380:	4f01      	ldr	r7, [pc, #4]	; (2388 <osDelay+0x20>)
    2382:	46bc      	mov	r12, r7
    2384:	df00      	svc	0
    2386:	bdb0      	pop	{r4, r5, r7, pc}
    2388:	00002351 	.word	0x00002351

0000238c <svcTimerCall>:
    238c:	0783      	lsls	r3, r0, #30
    238e:	d106      	bne.n	239e <svcTimerCall+0x12>
    2390:	2800      	cmp	r0, #0
    2392:	d007      	beq.n	23a4 <svcTimerCall+0x18>
    2394:	6943      	ldr	r3, [r0, #20]
    2396:	6901      	ldr	r1, [r0, #16]
    2398:	681b      	ldr	r3, [r3, #0]
    239a:	0018      	movs	r0, r3
    239c:	4770      	bx	lr
    239e:	2300      	movs	r3, #0
    23a0:	0019      	movs	r1, r3
    23a2:	e7fa      	b.n	239a <svcTimerCall+0xe>
    23a4:	0003      	movs	r3, r0
    23a6:	e7fb      	b.n	23a0 <svcTimerCall+0x14>

000023a8 <osTimerCall>:
    23a8:	b590      	push	{r4, r7, lr}
    23aa:	0004      	movs	r4, r0
    23ac:	0008      	movs	r0, r1
    23ae:	4f03      	ldr	r7, [pc, #12]	; (23bc <osTimerCall+0x14>)
    23b0:	46bc      	mov	r12, r7
    23b2:	df00      	svc	0
    23b4:	6020      	str	r0, [r4, #0]
    23b6:	6061      	str	r1, [r4, #4]
    23b8:	0020      	movs	r0, r4
    23ba:	bd90      	pop	{r4, r7, pc}
    23bc:	0000238d 	.word	0x0000238d

000023c0 <svcMutexCreate>:
    23c0:	b510      	push	{r4, lr}
    23c2:	1e03      	subs	r3, r0, #0
    23c4:	d00a      	beq.n	23dc <svcMutexCreate+0x1c>
    23c6:	6804      	ldr	r4, [r0, #0]
    23c8:	1e23      	subs	r3, r4, #0
    23ca:	d007      	beq.n	23dc <svcMutexCreate+0x1c>
    23cc:	2300      	movs	r3, #0
    23ce:	7822      	ldrb	r2, [r4, #0]
    23d0:	429a      	cmp	r2, r3
    23d2:	d103      	bne.n	23dc <svcMutexCreate+0x1c>
    23d4:	0020      	movs	r0, r4
    23d6:	f000 fc35 	bl	2c44 <rt_mut_init>
    23da:	0023      	movs	r3, r4
    23dc:	0018      	movs	r0, r3
    23de:	bd10      	pop	{r4, pc}

000023e0 <svcMutexWait>:
    23e0:	b570      	push	{r4, r5, r6, lr}
    23e2:	2403      	movs	r4, #3
    23e4:	0005      	movs	r5, r0
    23e6:	000e      	movs	r6, r1
    23e8:	4004      	ands	r4, r0
    23ea:	2380      	movs	r3, #128	; 0x80
    23ec:	2c00      	cmp	r4, #0
    23ee:	d112      	bne.n	2416 <svcMutexWait+0x36>
    23f0:	2800      	cmp	r0, #0
    23f2:	d010      	beq.n	2416 <svcMutexWait+0x36>
    23f4:	7802      	ldrb	r2, [r0, #0]
    23f6:	2a03      	cmp	r2, #3
    23f8:	d10d      	bne.n	2416 <svcMutexWait+0x36>
    23fa:	0008      	movs	r0, r1
    23fc:	f7ff fe82 	bl	2104 <rt_ms2tick>
    2400:	0001      	movs	r1, r0
    2402:	0028      	movs	r0, r5
    2404:	f000 fc9a 	bl	2d3c <rt_mut_wait>
    2408:	0023      	movs	r3, r4
    240a:	2801      	cmp	r0, #1
    240c:	d103      	bne.n	2416 <svcMutexWait+0x36>
    240e:	33c1      	adds	r3, #193	; 0xc1
    2410:	2e00      	cmp	r6, #0
    2412:	d100      	bne.n	2416 <svcMutexWait+0x36>
    2414:	3b40      	subs	r3, #64	; 0x40
    2416:	0018      	movs	r0, r3
    2418:	bd70      	pop	{r4, r5, r6, pc}

0000241a <svcMutexRelease>:
    241a:	b510      	push	{r4, lr}
    241c:	2403      	movs	r4, #3
    241e:	2380      	movs	r3, #128	; 0x80
    2420:	4004      	ands	r4, r0
    2422:	d10a      	bne.n	243a <svcMutexRelease+0x20>
    2424:	2800      	cmp	r0, #0
    2426:	d008      	beq.n	243a <svcMutexRelease+0x20>
    2428:	7802      	ldrb	r2, [r0, #0]
    242a:	2a03      	cmp	r2, #3
    242c:	d105      	bne.n	243a <svcMutexRelease+0x20>
    242e:	f000 fc11 	bl	2c54 <rt_mut_release>
    2432:	2381      	movs	r3, #129	; 0x81
    2434:	28ff      	cmp	r0, #255	; 0xff
    2436:	d000      	beq.n	243a <svcMutexRelease+0x20>
    2438:	0023      	movs	r3, r4
    243a:	0018      	movs	r0, r3
    243c:	bd10      	pop	{r4, pc}
	...

00002440 <osMutexCreate>:
    2440:	b5f8      	push	{r3, r4, r5, r6, r7, lr}
    2442:	0005      	movs	r5, r0
    2444:	f3ef 8610 	mrs	r6, PRIMASK
    2448:	2000      	movs	r0, #0
    244a:	4286      	cmp	r6, r0
    244c:	d10f      	bne.n	246e <osMutexCreate+0x2e>
    244e:	f3ef 8405 	mrs	r4, IPSR
    2452:	0030      	movs	r0, r6
    2454:	2c00      	cmp	r4, #0
    2456:	d10a      	bne.n	246e <osMutexCreate+0x2e>
    2458:	f3ef 8014 	mrs	r0, CONTROL
    245c:	07c0      	lsls	r0, r0, #31
    245e:	d407      	bmi.n	2470 <osMutexCreate+0x30>
    2460:	4806      	ldr	r0, [pc, #24]	; (247c <osMutexCreate+0x3c>)
    2462:	7800      	ldrb	r0, [r0, #0]
    2464:	2800      	cmp	r0, #0
    2466:	d103      	bne.n	2470 <osMutexCreate+0x30>
    2468:	0028      	movs	r0, r5
    246a:	f7ff ffa9 	bl	23c0 <svcMutexCreate>
    246e:	bdf8      	pop	{r3, r4, r5, r6, r7, pc}
    2470:	0028      	movs	r0, r5
    2472:	4f03      	ldr	r7, [pc, #12]	; (2480 <osMutexCreate+0x40>)
    2474:	46bc      	mov	r12, r7
    2476:	df00      	svc	0
    2478:	e7f9      	b.n	246e <osMutexCreate+0x2e>
    247a:	46c0      	nop			; (mov r8, r8)
    247c:	20001155 	.word	0x20001155
    2480:	000023c1 	.word	0x000023c1

00002484 <osMutexWait>:
    2484:	b5b0      	push	{r4, r5, r7, lr}
    2486:	0005      	movs	r5, r0
    2488:	f3ef 8410 	mrs	r4, PRIMASK
    248c:	2082      	movs	r0, #130	; 0x82
    248e:	2c00      	cmp	r4, #0
    2490:	d107      	bne.n	24a2 <osMutexWait+0x1e>
    2492:	f3ef 8405 	mrs	r4, IPSR
    2496:	2c00      	cmp	r4, #0
    2498:	d103      	bne.n	24a2 <osMutexWait+0x1e>
    249a:	0028      	movs	r0, r5
    249c:	4f01      	ldr	r7, [pc, #4]	; (24a4 <osMutexWait+0x20>)
    249e:	46bc      	mov	r12, r7
    24a0:	df00      	svc	0
    24a2:	bdb0      	pop	{r4, r5, r7, pc}
    24a4:	000023e1 	.word	0x000023e1

000024a8 <osThreadExit>:
    24a8:	2101      	movs	r1, #1
    24aa:	4808      	ldr	r0, [pc, #32]	; (24cc <osThreadExit+0x24>)
    24ac:	b5b0      	push	{r4, r5, r7, lr}
    24ae:	4249      	negs	r1, r1
    24b0:	6800      	ldr	r0, [r0, #0]
    24b2:	f7ff ffe7 	bl	2484 <osMutexWait>
    24b6:	4f06      	ldr	r7, [pc, #24]	; (24d0 <osThreadExit+0x28>)
    24b8:	46bc      	mov	r12, r7
    24ba:	df00      	svc	0
    24bc:	0004      	movs	r4, r0
    24be:	f7ff fa1d 	bl	18fc <sysThreadTerminate>
    24c2:	0020      	movs	r0, r4
    24c4:	4f03      	ldr	r7, [pc, #12]	; (24d4 <osThreadExit+0x2c>)
    24c6:	46bc      	mov	r12, r7
    24c8:	df00      	svc	0
    24ca:	e7fe      	b.n	24ca <osThreadExit+0x22>
    24cc:	20001150 	.word	0x20001150
    24d0:	00002301 	.word	0x00002301
    24d4:	0000231d 	.word	0x0000231d

000024d8 <osMutexRelease>:
    24d8:	b5b0      	push	{r4, r5, r7, lr}
    24da:	0005      	movs	r5, r0
    24dc:	f3ef 8410 	mrs	r4, PRIMASK
    24e0:	2082      	movs	r0, #130	; 0x82
    24e2:	2c00      	cmp	r4, #0
    24e4:	d107      	bne.n	24f6 <osMutexRelease+0x1e>
    24e6:	f3ef 8405 	mrs	r4, IPSR
    24ea:	2c00      	cmp	r4, #0
    24ec:	d103      	bne.n	24f6 <osMutexRelease+0x1e>
    24ee:	0028      	movs	r0, r5
    24f0:	4f01      	ldr	r7, [pc, #4]	; (24f8 <osMutexRelease+0x20>)
    24f2:	46bc      	mov	r12, r7
    24f4:	df00      	svc	0
    24f6:	bdb0      	pop	{r4, r5, r7, pc}
    24f8:	0000241b 	.word	0x0000241b

000024fc <osThreadContextCreate>:
    24fc:	b5f7      	push	{r0, r1, r2, r4, r5, r6, r7, lr}
    24fe:	0006      	movs	r6, r0
    2500:	9100      	str	r1, [sp, #0]
    2502:	9201      	str	r2, [sp, #4]
    2504:	f3ef 8210 	mrs	r2, PRIMASK
    2508:	2400      	movs	r4, #0
    250a:	42a2      	cmp	r2, r4
    250c:	d110      	bne.n	2530 <osThreadContextCreate+0x34>
    250e:	f3ef 8305 	mrs	r3, IPSR
    2512:	0014      	movs	r4, r2
    2514:	2b00      	cmp	r3, #0
    2516:	d10b      	bne.n	2530 <osThreadContextCreate+0x34>
    2518:	f3ef 8314 	mrs	r3, CONTROL
    251c:	07db      	lsls	r3, r3, #31
    251e:	d409      	bmi.n	2534 <osThreadContextCreate+0x38>
    2520:	4b0d      	ldr	r3, [pc, #52]	; (2558 <osThreadContextCreate+0x5c>)
    2522:	781b      	ldrb	r3, [r3, #0]
    2524:	2b00      	cmp	r3, #0
    2526:	d105      	bne.n	2534 <osThreadContextCreate+0x38>
    2528:	9a01      	ldr	r2, [sp, #4]
    252a:	f7ff feaf 	bl	228c <svcThreadCreate>
    252e:	0004      	movs	r4, r0
    2530:	0020      	movs	r0, r4
    2532:	bdfe      	pop	{r1, r2, r3, r4, r5, r6, r7, pc}
    2534:	2101      	movs	r1, #1
    2536:	4d09      	ldr	r5, [pc, #36]	; (255c <osThreadContextCreate+0x60>)
    2538:	4249      	negs	r1, r1
    253a:	6828      	ldr	r0, [r5, #0]
    253c:	f7ff ffa2 	bl	2484 <osMutexWait>
    2540:	0030      	movs	r0, r6
    2542:	9900      	ldr	r1, [sp, #0]
    2544:	9a01      	ldr	r2, [sp, #4]
    2546:	4f06      	ldr	r7, [pc, #24]	; (2560 <osThreadContextCreate+0x64>)
    2548:	46bc      	mov	r12, r7
    254a:	df00      	svc	0
    254c:	0004      	movs	r4, r0
    254e:	6828      	ldr	r0, [r5, #0]
    2550:	f7ff ffc2 	bl	24d8 <osMutexRelease>
    2554:	e7ec      	b.n	2530 <osThreadContextCreate+0x34>
    2556:	46c0      	nop			; (mov r8, r8)
    2558:	20001155 	.word	0x20001155
    255c:	20001150 	.word	0x20001150
    2560:	0000228d 	.word	0x0000228d

00002564 <osThreadCreate>:
    2564:	b510      	push	{r4, lr}
    2566:	2200      	movs	r2, #0
    2568:	f7ff ffc8 	bl	24fc <osThreadContextCreate>
    256c:	bd10      	pop	{r4, pc}

0000256e <svcMessageCreate>:
    256e:	b510      	push	{r4, lr}
    2570:	0003      	movs	r3, r0
    2572:	1e04      	subs	r4, r0, #0
    2574:	d00f      	beq.n	2596 <svcMessageCreate+0x28>
    2576:	6801      	ldr	r1, [r0, #0]
    2578:	1e0b      	subs	r3, r1, #0
    257a:	d00c      	beq.n	2596 <svcMessageCreate+0x28>
    257c:	6840      	ldr	r0, [r0, #4]
    257e:	1e03      	subs	r3, r0, #0
    2580:	d009      	beq.n	2596 <svcMessageCreate+0x28>
    2582:	2300      	movs	r3, #0
    2584:	7802      	ldrb	r2, [r0, #0]
    2586:	429a      	cmp	r2, r3
    2588:	d105      	bne.n	2596 <svcMessageCreate+0x28>
    258a:	3104      	adds	r1, #4
    258c:	0089      	lsls	r1, r1, #2
    258e:	b289      	uxth	r1, r1
    2590:	f7ff fc39 	bl	1e06 <rt_mbx_init>
    2594:	6863      	ldr	r3, [r4, #4]
    2596:	0018      	movs	r0, r3
    2598:	bd10      	pop	{r4, pc}
	...

0000259c <svcKernelInitialize>:
    259c:	b570      	push	{r4, r5, r6, lr}
    259e:	4d12      	ldr	r5, [pc, #72]	; (25e8 <svcKernelInitialize+0x4c>)
    25a0:	782b      	ldrb	r3, [r5, #0]
    25a2:	2b00      	cmp	r3, #0
    25a4:	d101      	bne.n	25aa <svcKernelInitialize+0xe>
    25a6:	f000 fa9b 	bl	2ae0 <rt_sys_init>
    25aa:	22ff      	movs	r2, #255	; 0xff
    25ac:	4b0f      	ldr	r3, [pc, #60]	; (25ec <svcKernelInitialize+0x50>)
    25ae:	782c      	ldrb	r4, [r5, #0]
    25b0:	681b      	ldr	r3, [r3, #0]
    25b2:	709a      	strb	r2, [r3, #2]
    25b4:	2c00      	cmp	r4, #0
    25b6:	d111      	bne.n	25dc <svcKernelInitialize+0x40>
    25b8:	0021      	movs	r1, r4
    25ba:	480d      	ldr	r0, [pc, #52]	; (25f0 <svcKernelInitialize+0x54>)
    25bc:	f7ff ffd7 	bl	256e <svcMessageCreate>
    25c0:	4b0c      	ldr	r3, [pc, #48]	; (25f4 <svcKernelInitialize+0x58>)
    25c2:	0022      	movs	r2, r4
    25c4:	6018      	str	r0, [r3, #0]
    25c6:	0021      	movs	r1, r4
    25c8:	480b      	ldr	r0, [pc, #44]	; (25f8 <svcKernelInitialize+0x5c>)
    25ca:	f7ff fe5f 	bl	228c <svcThreadCreate>
    25ce:	4b0b      	ldr	r3, [pc, #44]	; (25fc <svcKernelInitialize+0x60>)
    25d0:	6018      	str	r0, [r3, #0]
    25d2:	480b      	ldr	r0, [pc, #44]	; (2600 <svcKernelInitialize+0x64>)
    25d4:	f7ff ff34 	bl	2440 <osMutexCreate>
    25d8:	4b0a      	ldr	r3, [pc, #40]	; (2604 <svcKernelInitialize+0x68>)
    25da:	6018      	str	r0, [r3, #0]
    25dc:	2301      	movs	r3, #1
    25de:	2000      	movs	r0, #0
    25e0:	702b      	strb	r3, [r5, #0]
    25e2:	4b09      	ldr	r3, [pc, #36]	; (2608 <svcKernelInitialize+0x6c>)
    25e4:	7018      	strb	r0, [r3, #0]
    25e6:	bd70      	pop	{r4, r5, r6, pc}
    25e8:	20001154 	.word	0x20001154
    25ec:	2000115c 	.word	0x2000115c
    25f0:	0000768c 	.word	0x0000768c
    25f4:	20000c18 	.word	0x20000c18
    25f8:	000076a8 	.word	0x000076a8
    25fc:	2000110c 	.word	0x2000110c
    2600:	000076c0 	.word	0x000076c0
    2604:	20001150 	.word	0x20001150
    2608:	20001155 	.word	0x20001155

0000260c <osKernelInitialize>:
    260c:	b5b0      	push	{r4, r5, r7, lr}
    260e:	f3ef 8510 	mrs	r5, PRIMASK
    2612:	2482      	movs	r4, #130	; 0x82
    2614:	2d00      	cmp	r5, #0
    2616:	d10a      	bne.n	262e <osKernelInitialize+0x22>
    2618:	f3ef 8505 	mrs	r5, IPSR
    261c:	2d00      	cmp	r5, #0
    261e:	d106      	bne.n	262e <osKernelInitialize+0x22>
    2620:	f3ef 8414 	mrs	r4, CONTROL
    2624:	07e4      	lsls	r4, r4, #31
    2626:	d404      	bmi.n	2632 <osKernelInitialize+0x26>
    2628:	f7ff ffb8 	bl	259c <svcKernelInitialize>
    262c:	0004      	movs	r4, r0
    262e:	0020      	movs	r0, r4
    2630:	bdb0      	pop	{r4, r5, r7, pc}
    2632:	4f02      	ldr	r7, [pc, #8]	; (263c <osKernelInitialize+0x30>)
    2634:	46bc      	mov	r12, r7
    2636:	df00      	svc	0
    2638:	e7f8      	b.n	262c <osKernelInitialize+0x20>
    263a:	0000      	.short	0x0000
    263c:	0000259d 	.word	0x0000259d

00002640 <svcMessageGet>:
    2640:	b530      	push	{r4, r5, lr}
    2642:	0004      	movs	r4, r0
    2644:	b085      	sub	sp, #20
    2646:	000d      	movs	r5, r1
    2648:	2800      	cmp	r0, #0
    264a:	d017      	beq.n	267c <svcMessageGet+0x3c>
    264c:	7803      	ldrb	r3, [r0, #0]
    264e:	2b01      	cmp	r3, #1
    2650:	d114      	bne.n	267c <svcMessageGet+0x3c>
    2652:	0008      	movs	r0, r1
    2654:	f7ff fd56 	bl	2104 <rt_ms2tick>
    2658:	a902      	add	r1, sp, #8
    265a:	0002      	movs	r2, r0
    265c:	0020      	movs	r0, r4
    265e:	f7ff fbdf 	bl	1e20 <rt_mbx_wait>
    2662:	2801      	cmp	r0, #1
    2664:	d108      	bne.n	2678 <svcMessageGet+0x38>
    2666:	0028      	movs	r0, r5
    2668:	1e45      	subs	r5, r0, #1
    266a:	41a8      	sbcs	r0, r5
    266c:	0180      	lsls	r0, r0, #6
    266e:	9902      	ldr	r1, [sp, #8]
    2670:	2200      	movs	r2, #0
    2672:	0013      	movs	r3, r2
    2674:	b005      	add	sp, #20
    2676:	bd30      	pop	{r4, r5, pc}
    2678:	2010      	movs	r0, #16
    267a:	e7f8      	b.n	266e <svcMessageGet+0x2e>
    267c:	2080      	movs	r0, #128	; 0x80
    267e:	2100      	movs	r1, #0
    2680:	e7f6      	b.n	2670 <svcMessageGet+0x30>

00002682 <isrMessagePut>:
    2682:	b570      	push	{r4, r5, r6, lr}
    2684:	2380      	movs	r3, #128	; 0x80
    2686:	0004      	movs	r4, r0
    2688:	000e      	movs	r6, r1
    268a:	0015      	movs	r5, r2
    268c:	2800      	cmp	r0, #0
    268e:	d00e      	beq.n	26ae <isrMessagePut+0x2c>
    2690:	2a00      	cmp	r2, #0
    2692:	d10c      	bne.n	26ae <isrMessagePut+0x2c>
    2694:	7802      	ldrb	r2, [r0, #0]
    2696:	2a01      	cmp	r2, #1
    2698:	d109      	bne.n	26ae <isrMessagePut+0x2c>
    269a:	f7ff fc1b 	bl	1ed4 <rt_mbx_check>
    269e:	2381      	movs	r3, #129	; 0x81
    26a0:	2800      	cmp	r0, #0
    26a2:	d004      	beq.n	26ae <isrMessagePut+0x2c>
    26a4:	0031      	movs	r1, r6
    26a6:	0020      	movs	r0, r4
    26a8:	f7ff fc18 	bl	1edc <isr_mbx_send>
    26ac:	002b      	movs	r3, r5
    26ae:	0018      	movs	r0, r3
    26b0:	bd70      	pop	{r4, r5, r6, pc}
	...

000026b4 <sysTimerTick>:
    26b4:	b5f8      	push	{r3, r4, r5, r6, r7, lr}
    26b6:	4e12      	ldr	r6, [pc, #72]	; (2700 <sysTimerTick+0x4c>)
    26b8:	6834      	ldr	r4, [r6, #0]
    26ba:	2c00      	cmp	r4, #0
    26bc:	d006      	beq.n	26cc <sysTimerTick+0x18>
    26be:	2701      	movs	r7, #1
    26c0:	68a3      	ldr	r3, [r4, #8]
    26c2:	3b01      	subs	r3, #1
    26c4:	60a3      	str	r3, [r4, #8]
    26c6:	68a2      	ldr	r2, [r4, #8]
    26c8:	2a00      	cmp	r2, #0
    26ca:	d000      	beq.n	26ce <sysTimerTick+0x1a>
    26cc:	bdf8      	pop	{r3, r4, r5, r6, r7, pc}
    26ce:	4b0d      	ldr	r3, [pc, #52]	; (2704 <sysTimerTick+0x50>)
    26d0:	6825      	ldr	r5, [r4, #0]
    26d2:	0021      	movs	r1, r4
    26d4:	6818      	ldr	r0, [r3, #0]
    26d6:	6035      	str	r5, [r6, #0]
    26d8:	f7ff ffd3 	bl	2682 <isrMessagePut>
    26dc:	2800      	cmp	r0, #0
    26de:	d002      	beq.n	26e6 <sysTimerTick+0x32>
    26e0:	2004      	movs	r0, #4
    26e2:	f7ff f8ff 	bl	18e4 <os_error>
    26e6:	7963      	ldrb	r3, [r4, #5]
    26e8:	2b01      	cmp	r3, #1
    26ea:	d107      	bne.n	26fc <sysTimerTick+0x48>
    26ec:	68e1      	ldr	r1, [r4, #12]
    26ee:	0020      	movs	r0, r4
    26f0:	f7ff fcec 	bl	20cc <rt_timer_insert>
    26f4:	2d00      	cmp	r5, #0
    26f6:	d0e9      	beq.n	26cc <sysTimerTick+0x18>
    26f8:	002c      	movs	r4, r5
    26fa:	e7e4      	b.n	26c6 <sysTimerTick+0x12>
    26fc:	7127      	strb	r7, [r4, #4]
    26fe:	e7f9      	b.n	26f4 <sysTimerTick+0x40>
    2700:	20001158 	.word	0x20001158
    2704:	20000c18 	.word	0x20000c18

00002708 <isrMessageGet>:
    2708:	b57f      	push	{r0, r1, r2, r3, r4, r5, r6, lr}
    270a:	0004      	movs	r4, r0
    270c:	0016      	movs	r6, r2
    270e:	1e08      	subs	r0, r1, #0
    2710:	d001      	beq.n	2716 <isrMessageGet+0xe>
    2712:	2a00      	cmp	r2, #0
    2714:	d004      	beq.n	2720 <isrMessageGet+0x18>
    2716:	2380      	movs	r3, #128	; 0x80
    2718:	6023      	str	r3, [r4, #0]
    271a:	0020      	movs	r0, r4
    271c:	b004      	add	sp, #16
    271e:	bd70      	pop	{r4, r5, r6, pc}
    2720:	780b      	ldrb	r3, [r1, #0]
    2722:	2b01      	cmp	r3, #1
    2724:	d1f7      	bne.n	2716 <isrMessageGet+0xe>
    2726:	a902      	add	r1, sp, #8
    2728:	ad01      	add	r5, sp, #4
    272a:	f7ff fbdd 	bl	1ee8 <isr_mbx_receive>
    272e:	2804      	cmp	r0, #4
    2730:	d004      	beq.n	273c <isrMessageGet+0x34>
    2732:	9601      	str	r6, [sp, #4]
    2734:	0023      	movs	r3, r4
    2736:	cd07      	ldmia	r5!, {r0, r1, r2}
    2738:	c307      	stmia	r3!, {r0, r1, r2}
    273a:	e7ee      	b.n	271a <isrMessageGet+0x12>
    273c:	2310      	movs	r3, #16
    273e:	9301      	str	r3, [sp, #4]
    2740:	e7f8      	b.n	2734 <isrMessageGet+0x2c>
	...

00002744 <osMessageGet>:
    2744:	b5b0      	push	{r4, r5, r7, lr}
    2746:	0004      	movs	r4, r0
    2748:	0015      	movs	r5, r2
    274a:	f3ef 8010 	mrs	r0, PRIMASK
    274e:	2800      	cmp	r0, #0
    2750:	d103      	bne.n	275a <osMessageGet+0x16>
    2752:	f3ef 8005 	mrs	r0, IPSR
    2756:	2800      	cmp	r0, #0
    2758:	d005      	beq.n	2766 <osMessageGet+0x22>
    275a:	002a      	movs	r2, r5
    275c:	0020      	movs	r0, r4
    275e:	f7ff ffd3 	bl	2708 <isrMessageGet>
    2762:	0020      	movs	r0, r4
    2764:	bdb0      	pop	{r4, r5, r7, pc}
    2766:	0008      	movs	r0, r1
    2768:	0011      	movs	r1, r2
    276a:	4f03      	ldr	r7, [pc, #12]	; (2778 <osMessageGet+0x34>)
    276c:	46bc      	mov	r12, r7
    276e:	df00      	svc	0
    2770:	6020      	str	r0, [r4, #0]
    2772:	6061      	str	r1, [r4, #4]
    2774:	60a2      	str	r2, [r4, #8]
    2776:	e7f4      	b.n	2762 <osMessageGet+0x1e>
    2778:	00002641 	.word	0x00002641

0000277c <osTimerThread>:
    277c:	b510      	push	{r4, lr}
    277e:	2401      	movs	r4, #1
    2780:	b086      	sub	sp, #24
    2782:	4264      	negs	r4, r4
    2784:	4b09      	ldr	r3, [pc, #36]	; (27ac <osTimerThread+0x30>)
    2786:	0022      	movs	r2, r4
    2788:	6819      	ldr	r1, [r3, #0]
    278a:	a803      	add	r0, sp, #12
    278c:	f7ff ffda 	bl	2744 <osMessageGet>
    2790:	9b03      	ldr	r3, [sp, #12]
    2792:	2b10      	cmp	r3, #16
    2794:	d1f6      	bne.n	2784 <osTimerThread+0x8>
    2796:	9904      	ldr	r1, [sp, #16]
    2798:	a801      	add	r0, sp, #4
    279a:	f7ff fe05 	bl	23a8 <osTimerCall>
    279e:	9b01      	ldr	r3, [sp, #4]
    27a0:	2b00      	cmp	r3, #0
    27a2:	d0ef      	beq.n	2784 <osTimerThread+0x8>
    27a4:	9802      	ldr	r0, [sp, #8]
    27a6:	4798      	blx	r3
    27a8:	e7ec      	b.n	2784 <osTimerThread+0x8>
    27aa:	46c0      	nop			; (mov r8, r8)
    27ac:	20000c18 	.word	0x20000c18

000027b0 <rt_switch_req>:
    27b0:	4b07      	ldr	r3, [pc, #28]	; (27d0 <rt_switch_req+0x20>)
    27b2:	b510      	push	{r4, lr}
    27b4:	6058      	str	r0, [r3, #4]
    27b6:	2302      	movs	r3, #2
    27b8:	7043      	strb	r3, [r0, #1]
    27ba:	4b06      	ldr	r3, [pc, #24]	; (27d4 <rt_switch_req+0x24>)
    27bc:	681b      	ldr	r3, [r3, #0]
    27be:	2b00      	cmp	r3, #0
    27c0:	d004      	beq.n	27cc <rt_switch_req+0x1c>
    27c2:	691b      	ldr	r3, [r3, #16]
    27c4:	2b00      	cmp	r3, #0
    27c6:	d001      	beq.n	27cc <rt_switch_req+0x1c>
    27c8:	6bc0      	ldr	r0, [r0, #60]	; 0x3c
    27ca:	4798      	blx	r3
    27cc:	bd10      	pop	{r4, pc}
    27ce:	46c0      	nop			; (mov r8, r8)
    27d0:	2000115c 	.word	0x2000115c
    27d4:	20001144 	.word	0x20001144

000027d8 <rt_dispatch.part.0>:
    27d8:	b510      	push	{r4, lr}
    27da:	4803      	ldr	r0, [pc, #12]	; (27e8 <rt_dispatch.part.0+0x10>)
    27dc:	f7ff f8ee 	bl	19bc <rt_get_first>
    27e0:	f7ff ffe6 	bl	27b0 <rt_switch_req>
    27e4:	bd10      	pop	{r4, pc}
    27e6:	46c0      	nop			; (mov r8, r8)
    27e8:	20001110 	.word	0x20001110

000027ec <rt_dispatch>:
    27ec:	b570      	push	{r4, r5, r6, lr}
    27ee:	1e04      	subs	r4, r0, #0
    27f0:	d102      	bne.n	27f8 <rt_dispatch+0xc>
    27f2:	f7ff fff1 	bl	27d8 <rt_dispatch.part.0>
    27f6:	bd70      	pop	{r4, r5, r6, pc}
    27f8:	4e0a      	ldr	r6, [pc, #40]	; (2824 <rt_dispatch+0x38>)
    27fa:	78a2      	ldrb	r2, [r4, #2]
    27fc:	6830      	ldr	r0, [r6, #0]
    27fe:	2501      	movs	r5, #1
    2800:	7883      	ldrb	r3, [r0, #2]
    2802:	429a      	cmp	r2, r3
    2804:	d907      	bls.n	2816 <rt_dispatch+0x2a>
    2806:	f7ff f8eb 	bl	19e0 <rt_put_rdy_first>
    280a:	6833      	ldr	r3, [r6, #0]
    280c:	0020      	movs	r0, r4
    280e:	705d      	strb	r5, [r3, #1]
    2810:	f7ff ffce 	bl	27b0 <rt_switch_req>
    2814:	e7ef      	b.n	27f6 <rt_dispatch+0xa>
    2816:	7065      	strb	r5, [r4, #1]
    2818:	0021      	movs	r1, r4
    281a:	4803      	ldr	r0, [pc, #12]	; (2828 <rt_dispatch+0x3c>)
    281c:	f7ff f8b4 	bl	1988 <rt_put_prio>
    2820:	e7e9      	b.n	27f6 <rt_dispatch+0xa>
    2822:	46c0      	nop			; (mov r8, r8)
    2824:	2000115c 	.word	0x2000115c
    2828:	20001110 	.word	0x20001110

0000282c <rt_block>:
    282c:	b570      	push	{r4, r5, r6, lr}
    282e:	000d      	movs	r5, r1
    2830:	2800      	cmp	r0, #0
    2832:	d00e      	beq.n	2852 <rt_block+0x26>
    2834:	4b07      	ldr	r3, [pc, #28]	; (2854 <rt_block+0x28>)
    2836:	4c08      	ldr	r4, [pc, #32]	; (2858 <rt_block+0x2c>)
    2838:	4298      	cmp	r0, r3
    283a:	d003      	beq.n	2844 <rt_block+0x18>
    283c:	0001      	movs	r1, r0
    283e:	6820      	ldr	r0, [r4, #0]
    2840:	f7ff f8d8 	bl	19f4 <rt_put_dly>
    2844:	6823      	ldr	r3, [r4, #0]
    2846:	4805      	ldr	r0, [pc, #20]	; (285c <rt_block+0x30>)
    2848:	705d      	strb	r5, [r3, #1]
    284a:	f7ff f8b7 	bl	19bc <rt_get_first>
    284e:	f7ff ffaf 	bl	27b0 <rt_switch_req>
    2852:	bd70      	pop	{r4, r5, r6, pc}
    2854:	0000ffff 	.word	0x0000ffff
    2858:	2000115c 	.word	0x2000115c
    285c:	20001110 	.word	0x20001110

00002860 <rt_tsk_self>:
    2860:	4b02      	ldr	r3, [pc, #8]	; (286c <rt_tsk_self+0xc>)
    2862:	681b      	ldr	r3, [r3, #0]
    2864:	1e18      	subs	r0, r3, #0
    2866:	d000      	beq.n	286a <rt_tsk_self+0xa>
    2868:	78d8      	ldrb	r0, [r3, #3]
    286a:	4770      	bx	lr
    286c:	2000115c 	.word	0x2000115c

00002870 <rt_tsk_prio>:
    2870:	b510      	push	{r4, lr}
    2872:	2800      	cmp	r0, #0
    2874:	d116      	bne.n	28a4 <rt_tsk_prio+0x34>
    2876:	4b1a      	ldr	r3, [pc, #104]	; (28e0 <rt_tsk_prio+0x70>)
    2878:	681b      	ldr	r3, [r3, #0]
    287a:	7099      	strb	r1, [r3, #2]
    287c:	3305      	adds	r3, #5
    287e:	77d9      	strb	r1, [r3, #31]
    2880:	4818      	ldr	r0, [pc, #96]	; (28e4 <rt_tsk_prio+0x74>)
    2882:	6843      	ldr	r3, [r0, #4]
    2884:	789b      	ldrb	r3, [r3, #2]
    2886:	428b      	cmp	r3, r1
    2888:	d802      	bhi.n	2890 <rt_tsk_prio+0x20>
    288a:	2200      	movs	r2, #0
    288c:	0010      	movs	r0, r2
    288e:	bd10      	pop	{r4, pc}
    2890:	4c13      	ldr	r4, [pc, #76]	; (28e0 <rt_tsk_prio+0x70>)
    2892:	6821      	ldr	r1, [r4, #0]
    2894:	f7ff f878 	bl	1988 <rt_put_prio>
    2898:	2201      	movs	r2, #1
    289a:	6823      	ldr	r3, [r4, #0]
    289c:	705a      	strb	r2, [r3, #1]
    289e:	f7ff ff9b 	bl	27d8 <rt_dispatch.part.0>
    28a2:	e7f2      	b.n	288a <rt_tsk_prio+0x1a>
    28a4:	4b10      	ldr	r3, [pc, #64]	; (28e8 <rt_tsk_prio+0x78>)
    28a6:	22ff      	movs	r2, #255	; 0xff
    28a8:	881b      	ldrh	r3, [r3, #0]
    28aa:	4298      	cmp	r0, r3
    28ac:	d8ee      	bhi.n	288c <rt_tsk_prio+0x1c>
    28ae:	1e43      	subs	r3, r0, #1
    28b0:	480e      	ldr	r0, [pc, #56]	; (28ec <rt_tsk_prio+0x7c>)
    28b2:	009b      	lsls	r3, r3, #2
    28b4:	581c      	ldr	r4, [r3, r0]
    28b6:	2c00      	cmp	r4, #0
    28b8:	d0e8      	beq.n	288c <rt_tsk_prio+0x1c>
    28ba:	1d63      	adds	r3, r4, #5
    28bc:	70a1      	strb	r1, [r4, #2]
    28be:	77d9      	strb	r1, [r3, #31]
    28c0:	4b07      	ldr	r3, [pc, #28]	; (28e0 <rt_tsk_prio+0x70>)
    28c2:	681b      	ldr	r3, [r3, #0]
    28c4:	429c      	cmp	r4, r3
    28c6:	d0db      	beq.n	2880 <rt_tsk_prio+0x10>
    28c8:	0020      	movs	r0, r4
    28ca:	f7ff f90b 	bl	1ae4 <rt_resort_prio>
    28ce:	7863      	ldrb	r3, [r4, #1]
    28d0:	2b01      	cmp	r3, #1
    28d2:	d1da      	bne.n	288a <rt_tsk_prio+0x1a>
    28d4:	4803      	ldr	r0, [pc, #12]	; (28e4 <rt_tsk_prio+0x74>)
    28d6:	f7ff f871 	bl	19bc <rt_get_first>
    28da:	f7ff ff87 	bl	27ec <rt_dispatch>
    28de:	e7d4      	b.n	288a <rt_tsk_prio+0x1a>
    28e0:	2000115c 	.word	0x2000115c
    28e4:	20001110 	.word	0x20001110
    28e8:	00007688 	.word	0x00007688
    28ec:	20000b78 	.word	0x20000b78

000028f0 <rt_tsk_create>:
    28f0:	b5f7      	push	{r0, r1, r2, r4, r5, r6, r7, lr}
    28f2:	001f      	movs	r7, r3
    28f4:	b2cb      	uxtb	r3, r1
    28f6:	0015      	movs	r5, r2
    28f8:	425a      	negs	r2, r3
    28fa:	4153      	adcs	r3, r2
    28fc:	9000      	str	r0, [sp, #0]
    28fe:	4821      	ldr	r0, [pc, #132]	; (2984 <rt_tsk_create+0x94>)
    2900:	18ce      	adds	r6, r1, r3
    2902:	f7ff fa5f 	bl	1dc4 <rt_alloc_box>
    2906:	1e04      	subs	r4, r0, #0
    2908:	d102      	bne.n	2910 <rt_tsk_create+0x20>
    290a:	2500      	movs	r5, #0
    290c:	0028      	movs	r0, r5
    290e:	bdfe      	pop	{r1, r2, r3, r4, r5, r6, r7, pc}
    2910:	6305      	str	r5, [r0, #48]	; 0x30
    2912:	2501      	movs	r5, #1
    2914:	4b1c      	ldr	r3, [pc, #112]	; (2988 <rt_tsk_create+0x98>)
    2916:	0a32      	lsrs	r2, r6, #8
    2918:	8819      	ldrh	r1, [r3, #0]
    291a:	6282      	str	r2, [r0, #40]	; 0x28
    291c:	428d      	cmp	r5, r1
    291e:	d8f4      	bhi.n	290a <rt_tsk_create+0x1a>
    2920:	1e6b      	subs	r3, r5, #1
    2922:	9301      	str	r3, [sp, #4]
    2924:	4819      	ldr	r0, [pc, #100]	; (298c <rt_tsk_create+0x9c>)
    2926:	00ab      	lsls	r3, r5, #2
    2928:	3b04      	subs	r3, #4
    292a:	58c3      	ldr	r3, [r0, r3]
    292c:	2b00      	cmp	r3, #0
    292e:	d001      	beq.n	2934 <rt_tsk_create+0x44>
    2930:	3501      	adds	r5, #1
    2932:	e7f3      	b.n	291c <rt_tsk_create+0x2c>
    2934:	2101      	movs	r1, #1
    2936:	b2f6      	uxtb	r6, r6
    2938:	7061      	strb	r1, [r4, #1]
    293a:	1d61      	adds	r1, r4, #5
    293c:	70e5      	strb	r5, [r4, #3]
    293e:	61e7      	str	r7, [r4, #28]
    2940:	63a7      	str	r7, [r4, #56]	; 0x38
    2942:	7023      	strb	r3, [r4, #0]
    2944:	70a6      	strb	r6, [r4, #2]
    2946:	77ce      	strb	r6, [r1, #31]
    2948:	1da1      	adds	r1, r4, #6
    294a:	6063      	str	r3, [r4, #4]
    294c:	60a3      	str	r3, [r4, #8]
    294e:	60e3      	str	r3, [r4, #12]
    2950:	6123      	str	r3, [r4, #16]
    2952:	6223      	str	r3, [r4, #32]
    2954:	82a3      	strh	r3, [r4, #20]
    2956:	82e3      	strh	r3, [r4, #22]
    2958:	8323      	strh	r3, [r4, #24]
    295a:	8363      	strh	r3, [r4, #26]
    295c:	77cb      	strb	r3, [r1, #31]
    295e:	2a00      	cmp	r2, #0
    2960:	d103      	bne.n	296a <rt_tsk_create+0x7a>
    2962:	480b      	ldr	r0, [pc, #44]	; (2990 <rt_tsk_create+0xa0>)
    2964:	f7ff fa2e 	bl	1dc4 <rt_alloc_box>
    2968:	6320      	str	r0, [r4, #48]	; 0x30
    296a:	0020      	movs	r0, r4
    296c:	9900      	ldr	r1, [sp, #0]
    296e:	f7ff f9b1 	bl	1cd4 <rt_init_stack>
    2972:	1e6b      	subs	r3, r5, #1
    2974:	4a05      	ldr	r2, [pc, #20]	; (298c <rt_tsk_create+0x9c>)
    2976:	009b      	lsls	r3, r3, #2
    2978:	0020      	movs	r0, r4
    297a:	50d4      	str	r4, [r2, r3]
    297c:	f7ff ff36 	bl	27ec <rt_dispatch>
    2980:	e7c4      	b.n	290c <rt_tsk_create+0x1c>
    2982:	46c0      	nop			; (mov r8, r8)
    2984:	20000f40 	.word	0x20000f40
    2988:	00007688 	.word	0x00007688
    298c:	20000b78 	.word	0x20000b78
    2990:	20000968 	.word	0x20000968

00002994 <rt_tsk_delete>:
    2994:	b5f7      	push	{r0, r1, r2, r4, r5, r6, r7, lr}
    2996:	4d4c      	ldr	r5, [pc, #304]	; (2ac8 <rt_tsk_delete+0x134>)
    2998:	2800      	cmp	r0, #0
    299a:	d003      	beq.n	29a4 <rt_tsk_delete+0x10>
    299c:	682b      	ldr	r3, [r5, #0]
    299e:	78db      	ldrb	r3, [r3, #3]
    29a0:	4298      	cmp	r0, r3
    29a2:	d140      	bne.n	2a26 <rt_tsk_delete+0x92>
    29a4:	2300      	movs	r3, #0
    29a6:	682c      	ldr	r4, [r5, #0]
    29a8:	2701      	movs	r7, #1
    29aa:	7063      	strb	r3, [r4, #1]
    29ac:	f001 fb01 	bl	3fb2 <rt_get_PSP>
    29b0:	62e0      	str	r0, [r4, #44]	; 0x2c
    29b2:	f7ff f97b 	bl	1cac <rt_stk_check>
    29b6:	682b      	ldr	r3, [r5, #0]
    29b8:	6a1c      	ldr	r4, [r3, #32]
    29ba:	2c00      	cmp	r4, #0
    29bc:	d113      	bne.n	29e6 <rt_tsk_delete+0x52>
    29be:	682a      	ldr	r2, [r5, #0]
    29c0:	4942      	ldr	r1, [pc, #264]	; (2acc <rt_tsk_delete+0x138>)
    29c2:	78d3      	ldrb	r3, [r2, #3]
    29c4:	4842      	ldr	r0, [pc, #264]	; (2ad0 <rt_tsk_delete+0x13c>)
    29c6:	3b01      	subs	r3, #1
    29c8:	009b      	lsls	r3, r3, #2
    29ca:	505c      	str	r4, [r3, r1]
    29cc:	6b11      	ldr	r1, [r2, #48]	; 0x30
    29ce:	f7ff fa08 	bl	1de2 <rt_free_box>
    29d2:	6829      	ldr	r1, [r5, #0]
    29d4:	483f      	ldr	r0, [pc, #252]	; (2ad4 <rt_tsk_delete+0x140>)
    29d6:	630c      	str	r4, [r1, #48]	; 0x30
    29d8:	f7ff fa03 	bl	1de2 <rt_free_box>
    29dc:	602c      	str	r4, [r5, #0]
    29de:	f7ff fefb 	bl	27d8 <rt_dispatch.part.0>
    29e2:	0020      	movs	r0, r4
    29e4:	bdfe      	pop	{r1, r2, r3, r4, r5, r6, r7, pc}
    29e6:	6863      	ldr	r3, [r4, #4]
    29e8:	2b00      	cmp	r3, #0
    29ea:	d016      	beq.n	2a1a <rt_tsk_delete+0x86>
    29ec:	0020      	movs	r0, r4
    29ee:	f7fe ffe5 	bl	19bc <rt_get_first>
    29f2:	0006      	movs	r6, r0
    29f4:	2100      	movs	r1, #0
    29f6:	f7ff f9b9 	bl	1d6c <rt_ret_val>
    29fa:	0030      	movs	r0, r6
    29fc:	f7ff f88a 	bl	1b14 <rt_rmv_dly>
    2a00:	7077      	strb	r7, [r6, #1]
    2a02:	0031      	movs	r1, r6
    2a04:	4834      	ldr	r0, [pc, #208]	; (2ad8 <rt_tsk_delete+0x144>)
    2a06:	f7fe ffbf 	bl	1988 <rt_put_prio>
    2a0a:	68e3      	ldr	r3, [r4, #12]
    2a0c:	6a32      	ldr	r2, [r6, #32]
    2a0e:	8067      	strh	r7, [r4, #2]
    2a10:	60a6      	str	r6, [r4, #8]
    2a12:	60e2      	str	r2, [r4, #12]
    2a14:	6234      	str	r4, [r6, #32]
    2a16:	001c      	movs	r4, r3
    2a18:	e7cf      	b.n	29ba <rt_tsk_delete+0x26>
    2a1a:	68e2      	ldr	r2, [r4, #12]
    2a1c:	8063      	strh	r3, [r4, #2]
    2a1e:	60a3      	str	r3, [r4, #8]
    2a20:	60e3      	str	r3, [r4, #12]
    2a22:	0014      	movs	r4, r2
    2a24:	e7c9      	b.n	29ba <rt_tsk_delete+0x26>
    2a26:	4b2d      	ldr	r3, [pc, #180]	; (2adc <rt_tsk_delete+0x148>)
    2a28:	24ff      	movs	r4, #255	; 0xff
    2a2a:	881b      	ldrh	r3, [r3, #0]
    2a2c:	4298      	cmp	r0, r3
    2a2e:	d8d8      	bhi.n	29e2 <rt_tsk_delete+0x4e>
    2a30:	3801      	subs	r0, #1
    2a32:	0083      	lsls	r3, r0, #2
    2a34:	9301      	str	r3, [sp, #4]
    2a36:	9a01      	ldr	r2, [sp, #4]
    2a38:	4b24      	ldr	r3, [pc, #144]	; (2acc <rt_tsk_delete+0x138>)
    2a3a:	58d6      	ldr	r6, [r2, r3]
    2a3c:	2e00      	cmp	r6, #0
    2a3e:	d0d0      	beq.n	29e2 <rt_tsk_delete+0x4e>
    2a40:	0030      	movs	r0, r6
    2a42:	f7ff f839 	bl	1ab8 <rt_rmv_list>
    2a46:	0030      	movs	r0, r6
    2a48:	f7ff f864 	bl	1b14 <rt_rmv_dly>
    2a4c:	6a34      	ldr	r4, [r6, #32]
    2a4e:	2c00      	cmp	r4, #0
    2a50:	d117      	bne.n	2a82 <rt_tsk_delete+0xee>
    2a52:	4b1e      	ldr	r3, [pc, #120]	; (2acc <rt_tsk_delete+0x138>)
    2a54:	9a01      	ldr	r2, [sp, #4]
    2a56:	6b31      	ldr	r1, [r6, #48]	; 0x30
    2a58:	481d      	ldr	r0, [pc, #116]	; (2ad0 <rt_tsk_delete+0x13c>)
    2a5a:	509c      	str	r4, [r3, r2]
    2a5c:	f7ff f9c1 	bl	1de2 <rt_free_box>
    2a60:	0031      	movs	r1, r6
    2a62:	6334      	str	r4, [r6, #48]	; 0x30
    2a64:	481b      	ldr	r0, [pc, #108]	; (2ad4 <rt_tsk_delete+0x140>)
    2a66:	f7ff f9bc 	bl	1de2 <rt_free_box>
    2a6a:	481b      	ldr	r0, [pc, #108]	; (2ad8 <rt_tsk_delete+0x144>)
    2a6c:	6829      	ldr	r1, [r5, #0]
    2a6e:	6843      	ldr	r3, [r0, #4]
    2a70:	789a      	ldrb	r2, [r3, #2]
    2a72:	788b      	ldrb	r3, [r1, #2]
    2a74:	429a      	cmp	r2, r3
    2a76:	d9b4      	bls.n	29e2 <rt_tsk_delete+0x4e>
    2a78:	2301      	movs	r3, #1
    2a7a:	704b      	strb	r3, [r1, #1]
    2a7c:	f7fe ff84 	bl	1988 <rt_put_prio>
    2a80:	e7ad      	b.n	29de <rt_tsk_delete+0x4a>
    2a82:	6863      	ldr	r3, [r4, #4]
    2a84:	2b00      	cmp	r3, #0
    2a86:	d018      	beq.n	2aba <rt_tsk_delete+0x126>
    2a88:	0020      	movs	r0, r4
    2a8a:	f7fe ff97 	bl	19bc <rt_get_first>
    2a8e:	0007      	movs	r7, r0
    2a90:	2100      	movs	r1, #0
    2a92:	f7ff f96b 	bl	1d6c <rt_ret_val>
    2a96:	0038      	movs	r0, r7
    2a98:	f7ff f83c 	bl	1b14 <rt_rmv_dly>
    2a9c:	2301      	movs	r3, #1
    2a9e:	0039      	movs	r1, r7
    2aa0:	707b      	strb	r3, [r7, #1]
    2aa2:	480d      	ldr	r0, [pc, #52]	; (2ad8 <rt_tsk_delete+0x144>)
    2aa4:	f7fe ff70 	bl	1988 <rt_put_prio>
    2aa8:	2201      	movs	r2, #1
    2aaa:	68e3      	ldr	r3, [r4, #12]
    2aac:	8062      	strh	r2, [r4, #2]
    2aae:	6a3a      	ldr	r2, [r7, #32]
    2ab0:	60a7      	str	r7, [r4, #8]
    2ab2:	60e2      	str	r2, [r4, #12]
    2ab4:	623c      	str	r4, [r7, #32]
    2ab6:	001c      	movs	r4, r3
    2ab8:	e7c9      	b.n	2a4e <rt_tsk_delete+0xba>
    2aba:	68e2      	ldr	r2, [r4, #12]
    2abc:	8063      	strh	r3, [r4, #2]
    2abe:	60a3      	str	r3, [r4, #8]
    2ac0:	60e3      	str	r3, [r4, #12]
    2ac2:	0014      	movs	r4, r2
    2ac4:	e7c3      	b.n	2a4e <rt_tsk_delete+0xba>
    2ac6:	46c0      	nop			; (mov r8, r8)
    2ac8:	2000115c 	.word	0x2000115c
    2acc:	20000b78 	.word	0x20000b78
    2ad0:	20000968 	.word	0x20000968
    2ad4:	20000f40 	.word	0x20000f40
    2ad8:	20001110 	.word	0x20001110
    2adc:	00007688 	.word	0x00007688

00002ae0 <rt_sys_init>:
    2ae0:	4b2d      	ldr	r3, [pc, #180]	; (2b98 <rt_sys_init+0xb8>)
    2ae2:	b570      	push	{r4, r5, r6, lr}
    2ae4:	8819      	ldrh	r1, [r3, #0]
    2ae6:	2300      	movs	r3, #0
    2ae8:	001c      	movs	r4, r3
    2aea:	482c      	ldr	r0, [pc, #176]	; (2b9c <rt_sys_init+0xbc>)
    2aec:	428b      	cmp	r3, r1
    2aee:	d34e      	bcc.n	2b8e <rt_sys_init+0xae>
    2af0:	4b2b      	ldr	r3, [pc, #172]	; (2ba0 <rt_sys_init+0xc0>)
    2af2:	2240      	movs	r2, #64	; 0x40
    2af4:	8819      	ldrh	r1, [r3, #0]
    2af6:	482b      	ldr	r0, [pc, #172]	; (2ba4 <rt_sys_init+0xc4>)
    2af8:	f7ff f93f 	bl	1d7a <_init_box>
    2afc:	2280      	movs	r2, #128	; 0x80
    2afe:	4b2a      	ldr	r3, [pc, #168]	; (2ba8 <rt_sys_init+0xc8>)
    2b00:	0612      	lsls	r2, r2, #24
    2b02:	881b      	ldrh	r3, [r3, #0]
    2b04:	4e29      	ldr	r6, [pc, #164]	; (2bac <rt_sys_init+0xcc>)
    2b06:	431a      	orrs	r2, r3
    2b08:	4b29      	ldr	r3, [pc, #164]	; (2bb0 <rt_sys_init+0xd0>)
    2b0a:	0030      	movs	r0, r6
    2b0c:	6819      	ldr	r1, [r3, #0]
    2b0e:	f7ff f934 	bl	1d7a <_init_box>
    2b12:	4b28      	ldr	r3, [pc, #160]	; (2bb4 <rt_sys_init+0xd4>)
    2b14:	2208      	movs	r2, #8
    2b16:	8819      	ldrh	r1, [r3, #0]
    2b18:	4b27      	ldr	r3, [pc, #156]	; (2bb8 <rt_sys_init+0xd8>)
    2b1a:	2500      	movs	r5, #0
    2b1c:	6818      	ldr	r0, [r3, #0]
    2b1e:	f7ff f92c 	bl	1d7a <_init_box>
    2b22:	23ff      	movs	r3, #255	; 0xff
    2b24:	4c25      	ldr	r4, [pc, #148]	; (2bbc <rt_sys_init+0xdc>)
    2b26:	0030      	movs	r0, r6
    2b28:	70e3      	strb	r3, [r4, #3]
    2b2a:	3bfe      	subs	r3, #254	; 0xfe
    2b2c:	7063      	strb	r3, [r4, #1]
    2b2e:	1d63      	adds	r3, r4, #5
    2b30:	77dd      	strb	r5, [r3, #31]
    2b32:	1da3      	adds	r3, r4, #6
    2b34:	77dd      	strb	r5, [r3, #31]
    2b36:	62a5      	str	r5, [r4, #40]	; 0x28
    2b38:	7025      	strb	r5, [r4, #0]
    2b3a:	70a5      	strb	r5, [r4, #2]
    2b3c:	6065      	str	r5, [r4, #4]
    2b3e:	60a5      	str	r5, [r4, #8]
    2b40:	60e5      	str	r5, [r4, #12]
    2b42:	6125      	str	r5, [r4, #16]
    2b44:	6225      	str	r5, [r4, #32]
    2b46:	82a5      	strh	r5, [r4, #20]
    2b48:	82e5      	strh	r5, [r4, #22]
    2b4a:	8325      	strh	r5, [r4, #24]
    2b4c:	8365      	strh	r5, [r4, #26]
    2b4e:	f7ff f939 	bl	1dc4 <rt_alloc_box>
    2b52:	491b      	ldr	r1, [pc, #108]	; (2bc0 <rt_sys_init+0xe0>)
    2b54:	6320      	str	r0, [r4, #48]	; 0x30
    2b56:	0020      	movs	r0, r4
    2b58:	f7ff f8bc 	bl	1cd4 <rt_init_stack>
    2b5c:	2204      	movs	r2, #4
    2b5e:	4b19      	ldr	r3, [pc, #100]	; (2bc4 <rt_sys_init+0xe4>)
    2b60:	0020      	movs	r0, r4
    2b62:	701a      	strb	r2, [r3, #0]
    2b64:	605d      	str	r5, [r3, #4]
    2b66:	4b18      	ldr	r3, [pc, #96]	; (2bc8 <rt_sys_init+0xe8>)
    2b68:	701a      	strb	r2, [r3, #0]
    2b6a:	60dd      	str	r5, [r3, #12]
    2b6c:	611d      	str	r5, [r3, #16]
    2b6e:	829d      	strh	r5, [r3, #20]
    2b70:	4b16      	ldr	r3, [pc, #88]	; (2bcc <rt_sys_init+0xec>)
    2b72:	601c      	str	r4, [r3, #0]
    2b74:	2302      	movs	r3, #2
    2b76:	7063      	strb	r3, [r4, #1]
    2b78:	f7ff fe1a 	bl	27b0 <rt_switch_req>
    2b7c:	4a14      	ldr	r2, [pc, #80]	; (2bd0 <rt_sys_init+0xf0>)
    2b7e:	4b15      	ldr	r3, [pc, #84]	; (2bd4 <rt_sys_init+0xf4>)
    2b80:	7812      	ldrb	r2, [r2, #0]
    2b82:	701d      	strb	r5, [r3, #0]
    2b84:	705d      	strb	r5, [r3, #1]
    2b86:	70da      	strb	r2, [r3, #3]
    2b88:	f7ff fa72 	bl	2070 <rt_init_robin>
    2b8c:	bd70      	pop	{r4, r5, r6, pc}
    2b8e:	009a      	lsls	r2, r3, #2
    2b90:	1812      	adds	r2, r2, r0
    2b92:	6014      	str	r4, [r2, #0]
    2b94:	3301      	adds	r3, #1
    2b96:	e7a9      	b.n	2aec <rt_sys_init+0xc>
    2b98:	00007688 	.word	0x00007688
    2b9c:	20000b78 	.word	0x20000b78
    2ba0:	00007654 	.word	0x00007654
    2ba4:	20000f40 	.word	0x20000f40
    2ba8:	000076a4 	.word	0x000076a4
    2bac:	20000968 	.word	0x20000968
    2bb0:	00007650 	.word	0x00007650
    2bb4:	00007656 	.word	0x00007656
    2bb8:	1ffff7b8 	.word	0x1ffff7b8
    2bbc:	20001164 	.word	0x20001164
    2bc0:	000018dd 	.word	0x000018dd
    2bc4:	20001110 	.word	0x20001110
    2bc8:	20001128 	.word	0x20001128
    2bcc:	2000115c 	.word	0x2000115c
    2bd0:	00007685 	.word	0x00007685
    2bd4:	20000b94 	.word	0x20000b94

00002bd8 <rt_sys_start>:
    2bd8:	22ff      	movs	r2, #255	; 0xff
    2bda:	4b15      	ldr	r3, [pc, #84]	; (2c30 <rt_sys_start+0x58>)
    2bdc:	0412      	lsls	r2, r2, #16
    2bde:	6819      	ldr	r1, [r3, #0]
    2be0:	b510      	push	{r4, lr}
    2be2:	430a      	orrs	r2, r1
    2be4:	601a      	str	r2, [r3, #0]
    2be6:	681b      	ldr	r3, [r3, #0]
    2be8:	4a12      	ldr	r2, [pc, #72]	; (2c34 <rt_sys_start+0x5c>)
    2bea:	025b      	lsls	r3, r3, #9
    2bec:	6811      	ldr	r1, [r2, #0]
    2bee:	0e9b      	lsrs	r3, r3, #26
    2bf0:	069b      	lsls	r3, r3, #26
    2bf2:	430b      	orrs	r3, r1
    2bf4:	6013      	str	r3, [r2, #0]
    2bf6:	f7ff f81b 	bl	1c30 <os_tick_init>
    2bfa:	490f      	ldr	r1, [pc, #60]	; (2c38 <rt_sys_start+0x60>)
    2bfc:	6008      	str	r0, [r1, #0]
    2bfe:	2800      	cmp	r0, #0
    2c00:	db15      	blt.n	2c2e <rt_sys_start+0x56>
    2c02:	0883      	lsrs	r3, r0, #2
    2c04:	4a0d      	ldr	r2, [pc, #52]	; (2c3c <rt_sys_start+0x64>)
    2c06:	009b      	lsls	r3, r3, #2
    2c08:	189b      	adds	r3, r3, r2
    2c0a:	2218      	movs	r2, #24
    2c0c:	00c0      	lsls	r0, r0, #3
    2c0e:	4010      	ands	r0, r2
    2c10:	32e7      	adds	r2, #231	; 0xe7
    2c12:	4082      	lsls	r2, r0
    2c14:	681c      	ldr	r4, [r3, #0]
    2c16:	4322      	orrs	r2, r4
    2c18:	601a      	str	r2, [r3, #0]
    2c1a:	680a      	ldr	r2, [r1, #0]
    2c1c:	4908      	ldr	r1, [pc, #32]	; (2c40 <rt_sys_start+0x68>)
    2c1e:	0953      	lsrs	r3, r2, #5
    2c20:	009b      	lsls	r3, r3, #2
    2c22:	185b      	adds	r3, r3, r1
    2c24:	211f      	movs	r1, #31
    2c26:	400a      	ands	r2, r1
    2c28:	391e      	subs	r1, #30
    2c2a:	4091      	lsls	r1, r2
    2c2c:	6019      	str	r1, [r3, #0]
    2c2e:	bd10      	pop	{r4, pc}
    2c30:	e000ed20 	.word	0xe000ed20
    2c34:	e000ed1c 	.word	0xe000ed1c
    2c38:	20001140 	.word	0x20001140
    2c3c:	e000e400 	.word	0xe000e400
    2c40:	e000e100 	.word	0xe000e100

00002c44 <rt_mut_init>:
    2c44:	2303      	movs	r3, #3
    2c46:	7003      	strb	r3, [r0, #0]
    2c48:	2300      	movs	r3, #0
    2c4a:	8043      	strh	r3, [r0, #2]
    2c4c:	6043      	str	r3, [r0, #4]
    2c4e:	6083      	str	r3, [r0, #8]
    2c50:	60c3      	str	r3, [r0, #12]
    2c52:	4770      	bx	lr

00002c54 <rt_mut_release>:
    2c54:	b5f7      	push	{r0, r1, r2, r4, r5, r6, r7, lr}
    2c56:	8843      	ldrh	r3, [r0, #2]
    2c58:	0005      	movs	r5, r0
    2c5a:	20ff      	movs	r0, #255	; 0xff
    2c5c:	2b00      	cmp	r3, #0
    2c5e:	d00b      	beq.n	2c78 <rt_mut_release+0x24>
    2c60:	4a34      	ldr	r2, [pc, #208]	; (2d34 <rt_mut_release+0xe0>)
    2c62:	68a9      	ldr	r1, [r5, #8]
    2c64:	6812      	ldr	r2, [r2, #0]
    2c66:	9201      	str	r2, [sp, #4]
    2c68:	4291      	cmp	r1, r2
    2c6a:	d105      	bne.n	2c78 <rt_mut_release+0x24>
    2c6c:	3b01      	subs	r3, #1
    2c6e:	b29b      	uxth	r3, r3
    2c70:	806b      	strh	r3, [r5, #2]
    2c72:	2b00      	cmp	r3, #0
    2c74:	d001      	beq.n	2c7a <rt_mut_release+0x26>
    2c76:	2000      	movs	r0, #0
    2c78:	bdfe      	pop	{r1, r2, r3, r4, r5, r6, r7, pc}
    2c7a:	6a0b      	ldr	r3, [r1, #32]
    2c7c:	429d      	cmp	r5, r3
    2c7e:	d135      	bne.n	2cec <rt_mut_release+0x98>
    2c80:	68eb      	ldr	r3, [r5, #12]
    2c82:	620b      	str	r3, [r1, #32]
    2c84:	1d4b      	adds	r3, r1, #5
    2c86:	7fdb      	ldrb	r3, [r3, #31]
    2c88:	6a0c      	ldr	r4, [r1, #32]
    2c8a:	2c00      	cmp	r4, #0
    2c8c:	d136      	bne.n	2cfc <rt_mut_release+0xa8>
    2c8e:	708b      	strb	r3, [r1, #2]
    2c90:	686a      	ldr	r2, [r5, #4]
    2c92:	4f29      	ldr	r7, [pc, #164]	; (2d38 <rt_mut_release+0xe4>)
    2c94:	2a00      	cmp	r2, #0
    2c96:	d03c      	beq.n	2d12 <rt_mut_release+0xbe>
    2c98:	0028      	movs	r0, r5
    2c9a:	f7fe fe8f 	bl	19bc <rt_get_first>
    2c9e:	0006      	movs	r6, r0
    2ca0:	0021      	movs	r1, r4
    2ca2:	f7ff f863 	bl	1d6c <rt_ret_val>
    2ca6:	0030      	movs	r0, r6
    2ca8:	f7fe ff34 	bl	1b14 <rt_rmv_dly>
    2cac:	2301      	movs	r3, #1
    2cae:	806b      	strh	r3, [r5, #2]
    2cb0:	6a33      	ldr	r3, [r6, #32]
    2cb2:	60ae      	str	r6, [r5, #8]
    2cb4:	60eb      	str	r3, [r5, #12]
    2cb6:	4b1f      	ldr	r3, [pc, #124]	; (2d34 <rt_mut_release+0xe0>)
    2cb8:	6235      	str	r5, [r6, #32]
    2cba:	6819      	ldr	r1, [r3, #0]
    2cbc:	687b      	ldr	r3, [r7, #4]
    2cbe:	788a      	ldrb	r2, [r1, #2]
    2cc0:	789b      	ldrb	r3, [r3, #2]
    2cc2:	0030      	movs	r0, r6
    2cc4:	429a      	cmp	r2, r3
    2cc6:	d20d      	bcs.n	2ce4 <rt_mut_release+0x90>
    2cc8:	0038      	movs	r0, r7
    2cca:	f7fe fe5d 	bl	1988 <rt_put_prio>
    2cce:	0038      	movs	r0, r7
    2cd0:	0031      	movs	r1, r6
    2cd2:	f7fe fe59 	bl	1988 <rt_put_prio>
    2cd6:	2201      	movs	r2, #1
    2cd8:	4b16      	ldr	r3, [pc, #88]	; (2d34 <rt_mut_release+0xe0>)
    2cda:	0020      	movs	r0, r4
    2cdc:	681b      	ldr	r3, [r3, #0]
    2cde:	705a      	strb	r2, [r3, #1]
    2ce0:	2301      	movs	r3, #1
    2ce2:	7073      	strb	r3, [r6, #1]
    2ce4:	f7ff fd82 	bl	27ec <rt_dispatch>
    2ce8:	e7c5      	b.n	2c76 <rt_mut_release+0x22>
    2cea:	0013      	movs	r3, r2
    2cec:	2b00      	cmp	r3, #0
    2cee:	d0c9      	beq.n	2c84 <rt_mut_release+0x30>
    2cf0:	68da      	ldr	r2, [r3, #12]
    2cf2:	4295      	cmp	r5, r2
    2cf4:	d1f9      	bne.n	2cea <rt_mut_release+0x96>
    2cf6:	68ea      	ldr	r2, [r5, #12]
    2cf8:	60da      	str	r2, [r3, #12]
    2cfa:	e7c3      	b.n	2c84 <rt_mut_release+0x30>
    2cfc:	6862      	ldr	r2, [r4, #4]
    2cfe:	2a00      	cmp	r2, #0
    2d00:	d005      	beq.n	2d0e <rt_mut_release+0xba>
    2d02:	7890      	ldrb	r0, [r2, #2]
    2d04:	1c02      	adds	r2, r0, #0
    2d06:	4298      	cmp	r0, r3
    2d08:	d200      	bcs.n	2d0c <rt_mut_release+0xb8>
    2d0a:	1c1a      	adds	r2, r3, #0
    2d0c:	b2d3      	uxtb	r3, r2
    2d0e:	68e4      	ldr	r4, [r4, #12]
    2d10:	e7bb      	b.n	2c8a <rt_mut_release+0x36>
    2d12:	687a      	ldr	r2, [r7, #4]
    2d14:	7892      	ldrb	r2, [r2, #2]
    2d16:	429a      	cmp	r2, r3
    2d18:	d9ad      	bls.n	2c76 <rt_mut_release+0x22>
    2d1a:	0038      	movs	r0, r7
    2d1c:	f7fe fe34 	bl	1988 <rt_put_prio>
    2d20:	2201      	movs	r2, #1
    2d22:	4b04      	ldr	r3, [pc, #16]	; (2d34 <rt_mut_release+0xe0>)
    2d24:	0020      	movs	r0, r4
    2d26:	681b      	ldr	r3, [r3, #0]
    2d28:	705a      	strb	r2, [r3, #1]
    2d2a:	f7ff fd5f 	bl	27ec <rt_dispatch>
    2d2e:	0020      	movs	r0, r4
    2d30:	e7a2      	b.n	2c78 <rt_mut_release+0x24>
    2d32:	46c0      	nop			; (mov r8, r8)
    2d34:	2000115c 	.word	0x2000115c
    2d38:	20001110 	.word	0x20001110

00002d3c <rt_mut_wait>:
    2d3c:	b570      	push	{r4, r5, r6, lr}
    2d3e:	8842      	ldrh	r2, [r0, #2]
    2d40:	0004      	movs	r4, r0
    2d42:	000e      	movs	r6, r1
    2d44:	4d16      	ldr	r5, [pc, #88]	; (2da0 <rt_mut_wait+0x64>)
    2d46:	2a00      	cmp	r2, #0
    2d48:	d108      	bne.n	2d5c <rt_mut_wait+0x20>
    2d4a:	682b      	ldr	r3, [r5, #0]
    2d4c:	6a19      	ldr	r1, [r3, #32]
    2d4e:	6083      	str	r3, [r0, #8]
    2d50:	60c1      	str	r1, [r0, #12]
    2d52:	6218      	str	r0, [r3, #32]
    2d54:	2000      	movs	r0, #0
    2d56:	3201      	adds	r2, #1
    2d58:	8062      	strh	r2, [r4, #2]
    2d5a:	bd70      	pop	{r4, r5, r6, pc}
    2d5c:	6883      	ldr	r3, [r0, #8]
    2d5e:	6829      	ldr	r1, [r5, #0]
    2d60:	428b      	cmp	r3, r1
    2d62:	d0f7      	beq.n	2d54 <rt_mut_wait+0x18>
    2d64:	2001      	movs	r0, #1
    2d66:	2e00      	cmp	r6, #0
    2d68:	d0f7      	beq.n	2d5a <rt_mut_wait+0x1e>
    2d6a:	788a      	ldrb	r2, [r1, #2]
    2d6c:	7899      	ldrb	r1, [r3, #2]
    2d6e:	4291      	cmp	r1, r2
    2d70:	d203      	bcs.n	2d7a <rt_mut_wait+0x3e>
    2d72:	709a      	strb	r2, [r3, #2]
    2d74:	0018      	movs	r0, r3
    2d76:	f7fe feb5 	bl	1ae4 <rt_resort_prio>
    2d7a:	6862      	ldr	r2, [r4, #4]
    2d7c:	2a00      	cmp	r2, #0
    2d7e:	d009      	beq.n	2d94 <rt_mut_wait+0x58>
    2d80:	6829      	ldr	r1, [r5, #0]
    2d82:	0020      	movs	r0, r4
    2d84:	f7fe fe00 	bl	1988 <rt_put_prio>
    2d88:	0030      	movs	r0, r6
    2d8a:	2109      	movs	r1, #9
    2d8c:	f7ff fd4e 	bl	282c <rt_block>
    2d90:	2001      	movs	r0, #1
    2d92:	e7e2      	b.n	2d5a <rt_mut_wait+0x1e>
    2d94:	682b      	ldr	r3, [r5, #0]
    2d96:	6063      	str	r3, [r4, #4]
    2d98:	605a      	str	r2, [r3, #4]
    2d9a:	609c      	str	r4, [r3, #8]
    2d9c:	e7f4      	b.n	2d88 <rt_mut_wait+0x4c>
    2d9e:	46c0      	nop			; (mov r8, r8)
    2da0:	2000115c 	.word	0x2000115c

00002da4 <rt_dly_wait>:
    2da4:	b510      	push	{r4, lr}
    2da6:	2103      	movs	r1, #3
    2da8:	f7ff fd40 	bl	282c <rt_block>
    2dac:	bd10      	pop	{r4, pc}
	...

00002db0 <rt_sem_psh>:
    2db0:	6843      	ldr	r3, [r0, #4]
    2db2:	b510      	push	{r4, lr}
    2db4:	2b00      	cmp	r3, #0
    2db6:	d00e      	beq.n	2dd6 <rt_sem_psh+0x26>
    2db8:	f7fe fe00 	bl	19bc <rt_get_first>
    2dbc:	0004      	movs	r4, r0
    2dbe:	f7fe fea9 	bl	1b14 <rt_rmv_dly>
    2dc2:	2101      	movs	r1, #1
    2dc4:	0020      	movs	r0, r4
    2dc6:	7061      	strb	r1, [r4, #1]
    2dc8:	f7fe ffd0 	bl	1d6c <rt_ret_val>
    2dcc:	0021      	movs	r1, r4
    2dce:	4804      	ldr	r0, [pc, #16]	; (2de0 <rt_sem_psh+0x30>)
    2dd0:	f7fe fdda 	bl	1988 <rt_put_prio>
    2dd4:	bd10      	pop	{r4, pc}
    2dd6:	8843      	ldrh	r3, [r0, #2]
    2dd8:	3301      	adds	r3, #1
    2dda:	8043      	strh	r3, [r0, #2]
    2ddc:	e7fa      	b.n	2dd4 <rt_sem_psh+0x24>
    2dde:	46c0      	nop			; (mov r8, r8)
    2de0:	20001110 	.word	0x20001110

00002de4 <gpio_set>:
    2de4:	b510      	push	{r4, lr}
    2de6:	0004      	movs	r4, r0
    2de8:	2101      	movs	r1, #1
    2dea:	f000 fb47 	bl	347c <pin_function>
    2dee:	2001      	movs	r0, #1
    2df0:	0664      	lsls	r4, r4, #25
    2df2:	0ee4      	lsrs	r4, r4, #27
    2df4:	40a0      	lsls	r0, r4
    2df6:	bd10      	pop	{r4, pc}

00002df8 <gpio_init>:
    2df8:	b570      	push	{r4, r5, r6, lr}
    2dfa:	0005      	movs	r5, r0
    2dfc:	000c      	movs	r4, r1
    2dfe:	8029      	strh	r1, [r5, #0]
    2e00:	1c4b      	adds	r3, r1, #1
    2e02:	d00f      	beq.n	2e24 <gpio_init+0x2c>
    2e04:	0008      	movs	r0, r1
    2e06:	f7ff ffed 	bl	2de4 <gpio_set>
    2e0a:	4b07      	ldr	r3, [pc, #28]	; (2e28 <gpio_init+0x30>)
    2e0c:	0b24      	lsrs	r4, r4, #12
    2e0e:	18e4      	adds	r4, r4, r3
    2e10:	01a4      	lsls	r4, r4, #6
    2e12:	1d23      	adds	r3, r4, #4
    2e14:	60eb      	str	r3, [r5, #12]
    2e16:	3304      	adds	r3, #4
    2e18:	612b      	str	r3, [r5, #16]
    2e1a:	3414      	adds	r4, #20
    2e1c:	3308      	adds	r3, #8
    2e1e:	6068      	str	r0, [r5, #4]
    2e20:	616b      	str	r3, [r5, #20]
    2e22:	60ac      	str	r4, [r5, #8]
    2e24:	bd70      	pop	{r4, r5, r6, pc}
    2e26:	46c0      	nop			; (mov r8, r8)
    2e28:	03e03fc0 	.word	0x03e03fc0

00002e2c <gpio_mode>:
    2e2c:	b510      	push	{r4, lr}
    2e2e:	2300      	movs	r3, #0
    2e30:	5ec0      	ldrsh	r0, [r0, r3]
    2e32:	f000 fb43 	bl	34bc <pin_mode>
    2e36:	bd10      	pop	{r4, pc}

00002e38 <gpio_dir>:
    2e38:	2900      	cmp	r1, #0
    2e3a:	d002      	beq.n	2e42 <gpio_dir+0xa>
    2e3c:	2901      	cmp	r1, #1
    2e3e:	d006      	beq.n	2e4e <gpio_dir+0x16>
    2e40:	4770      	bx	lr
    2e42:	6882      	ldr	r2, [r0, #8]
    2e44:	6841      	ldr	r1, [r0, #4]
    2e46:	6813      	ldr	r3, [r2, #0]
    2e48:	438b      	bics	r3, r1
    2e4a:	6013      	str	r3, [r2, #0]
    2e4c:	e7f8      	b.n	2e40 <gpio_dir+0x8>
    2e4e:	6882      	ldr	r2, [r0, #8]
    2e50:	6841      	ldr	r1, [r0, #4]
    2e52:	6813      	ldr	r3, [r2, #0]
    2e54:	430b      	orrs	r3, r1
    2e56:	e7f8      	b.n	2e4a <gpio_dir+0x12>

00002e58 <hal_sleep>:
    2e58:	222a      	movs	r2, #42	; 0x2a
    2e5a:	4b03      	ldr	r3, [pc, #12]	; (2e68 <hal_sleep+0x10>)
    2e5c:	701a      	strb	r2, [r3, #0]
    2e5e:	2200      	movs	r2, #0
    2e60:	4b02      	ldr	r3, [pc, #8]	; (2e6c <hal_sleep+0x14>)
    2e62:	611a      	str	r2, [r3, #16]
    2e64:	bf30      	wfi
    2e66:	4770      	bx	lr
    2e68:	4007e000 	.word	0x4007e000
    2e6c:	e000ed00 	.word	0xe000ed00

00002e70 <lptmr_set>:
    2e70:	2200      	movs	r2, #0
    2e72:	4b06      	ldr	r3, [pc, #24]	; (2e8c <lptmr_set+0x1c>)
    2e74:	601a      	str	r2, [r3, #0]
    2e76:	6098      	str	r0, [r3, #8]
    2e78:	6819      	ldr	r1, [r3, #0]
    2e7a:	3240      	adds	r2, #64	; 0x40
    2e7c:	430a      	orrs	r2, r1
    2e7e:	601a      	str	r2, [r3, #0]
    2e80:	2201      	movs	r2, #1
    2e82:	6819      	ldr	r1, [r3, #0]
    2e84:	430a      	orrs	r2, r1
    2e86:	601a      	str	r2, [r3, #0]
    2e88:	4770      	bx	lr
    2e8a:	46c0      	nop			; (mov r8, r8)
    2e8c:	40040000 	.word	0x40040000

00002e90 <lptmr_isr>:
    2e90:	2380      	movs	r3, #128	; 0x80
    2e92:	4a0d      	ldr	r2, [pc, #52]	; (2ec8 <lptmr_isr+0x38>)
    2e94:	b570      	push	{r4, r5, r6, lr}
    2e96:	6811      	ldr	r1, [r2, #0]
    2e98:	4d0c      	ldr	r5, [pc, #48]	; (2ecc <lptmr_isr+0x3c>)
    2e9a:	430b      	orrs	r3, r1
    2e9c:	6013      	str	r3, [r2, #0]
    2e9e:	682c      	ldr	r4, [r5, #0]
    2ea0:	2c00      	cmp	r4, #0
    2ea2:	d005      	beq.n	2eb0 <lptmr_isr+0x20>
    2ea4:	480a      	ldr	r0, [pc, #40]	; (2ed0 <lptmr_isr+0x40>)
    2ea6:	3c01      	subs	r4, #1
    2ea8:	f7ff ffe2 	bl	2e70 <lptmr_set>
    2eac:	602c      	str	r4, [r5, #0]
    2eae:	bd70      	pop	{r4, r5, r6, pc}
    2eb0:	4d08      	ldr	r5, [pc, #32]	; (2ed4 <lptmr_isr+0x44>)
    2eb2:	8828      	ldrh	r0, [r5, #0]
    2eb4:	2800      	cmp	r0, #0
    2eb6:	d003      	beq.n	2ec0 <lptmr_isr+0x30>
    2eb8:	f7ff ffda 	bl	2e70 <lptmr_set>
    2ebc:	802c      	strh	r4, [r5, #0]
    2ebe:	e7f6      	b.n	2eae <lptmr_isr+0x1e>
    2ec0:	f7fe fbf6 	bl	16b0 <us_ticker_irq_handler>
    2ec4:	e7f3      	b.n	2eae <lptmr_isr+0x1e>
    2ec6:	46c0      	nop			; (mov r8, r8)
    2ec8:	40040000 	.word	0x40040000
    2ecc:	20000830 	.word	0x20000830
    2ed0:	0000ffff 	.word	0x0000ffff
    2ed4:	20000834 	.word	0x20000834

00002ed8 <us_ticker_init>:
    2ed8:	b5f7      	push	{r0, r1, r2, r4, r5, r6, r7, lr}
    2eda:	4b68      	ldr	r3, [pc, #416]	; (307c <us_ticker_init+0x1a4>)
    2edc:	681a      	ldr	r2, [r3, #0]
    2ede:	9201      	str	r2, [sp, #4]
    2ee0:	2a00      	cmp	r2, #0
    2ee2:	d000      	beq.n	2ee6 <us_ticker_init+0xe>
    2ee4:	e08f      	b.n	3006 <us_ticker_init+0x12e>
    2ee6:	2401      	movs	r4, #1
    2ee8:	601c      	str	r4, [r3, #0]
    2eea:	2380      	movs	r3, #128	; 0x80
    2eec:	4e64      	ldr	r6, [pc, #400]	; (3080 <us_ticker_init+0x1a8>)
    2eee:	4a65      	ldr	r2, [pc, #404]	; (3084 <us_ticker_init+0x1ac>)
    2ef0:	041b      	lsls	r3, r3, #16
    2ef2:	58b1      	ldr	r1, [r6, r2]
    2ef4:	4d64      	ldr	r5, [pc, #400]	; (3088 <us_ticker_init+0x1b0>)
    2ef6:	430b      	orrs	r3, r1
    2ef8:	50b3      	str	r3, [r6, r2]
    2efa:	9a01      	ldr	r2, [sp, #4]
    2efc:	4b63      	ldr	r3, [pc, #396]	; (308c <us_ticker_init+0x1b4>)
    2efe:	4f64      	ldr	r7, [pc, #400]	; (3090 <us_ticker_init+0x1b8>)
    2f00:	601a      	str	r2, [r3, #0]
    2f02:	2301      	movs	r3, #1
    2f04:	425b      	negs	r3, r3
    2f06:	616b      	str	r3, [r5, #20]
    2f08:	3305      	adds	r3, #5
    2f0a:	61eb      	str	r3, [r5, #28]
    2f0c:	69eb      	ldr	r3, [r5, #28]
    2f0e:	4323      	orrs	r3, r4
    2f10:	61eb      	str	r3, [r5, #28]
    2f12:	4b60      	ldr	r3, [pc, #384]	; (3094 <us_ticker_init+0x1bc>)
    2f14:	6838      	ldr	r0, [r7, #0]
    2f16:	58f1      	ldr	r1, [r6, r3]
    2f18:	2307      	movs	r3, #7
    2f1a:	0c09      	lsrs	r1, r1, #16
    2f1c:	4019      	ands	r1, r3
    2f1e:	1909      	adds	r1, r1, r4
    2f20:	f001 f8f4 	bl	410c <__udivsi3>
    2f24:	4b5c      	ldr	r3, [pc, #368]	; (3098 <us_ticker_init+0x1c0>)
    2f26:	495d      	ldr	r1, [pc, #372]	; (309c <us_ticker_init+0x1c4>)
    2f28:	18c0      	adds	r0, r0, r3
    2f2a:	f001 f8ef 	bl	410c <__udivsi3>
    2f2e:	4a5c      	ldr	r2, [pc, #368]	; (30a0 <us_ticker_init+0x1c8>)
    2f30:	3801      	subs	r0, #1
    2f32:	6068      	str	r0, [r5, #4]
    2f34:	60ec      	str	r4, [r5, #12]
    2f36:	58b3      	ldr	r3, [r6, r2]
    2f38:	4d5a      	ldr	r5, [pc, #360]	; (30a4 <us_ticker_init+0x1cc>)
    2f3a:	4323      	orrs	r3, r4
    2f3c:	50b3      	str	r3, [r6, r2]
    2f3e:	9b01      	ldr	r3, [sp, #4]
    2f40:	201c      	movs	r0, #28
    2f42:	602b      	str	r3, [r5, #0]
    2f44:	4958      	ldr	r1, [pc, #352]	; (30a8 <us_ticker_init+0x1d0>)
    2f46:	f000 fd8f 	bl	3a68 <NVIC_SetVector>
    2f4a:	2280      	movs	r2, #128	; 0x80
    2f4c:	4b57      	ldr	r3, [pc, #348]	; (30ac <us_ticker_init+0x1d4>)
    2f4e:	0552      	lsls	r2, r2, #21
    2f50:	601a      	str	r2, [r3, #0]
    2f52:	223f      	movs	r2, #63	; 0x3f
    2f54:	4b4f      	ldr	r3, [pc, #316]	; (3094 <us_ticker_init+0x1bc>)
    2f56:	683f      	ldr	r7, [r7, #0]
    2f58:	58f0      	ldr	r0, [r6, r3]
    2f5a:	4e55      	ldr	r6, [pc, #340]	; (30b0 <us_ticker_init+0x1d8>)
    2f5c:	0f00      	lsrs	r0, r0, #28
    2f5e:	7833      	ldrb	r3, [r6, #0]
    2f60:	1900      	adds	r0, r0, r4
    2f62:	4347      	muls	r7, r0
    2f64:	4393      	bics	r3, r2
    2f66:	2b80      	cmp	r3, #128	; 0x80
    2f68:	d033      	beq.n	2fd2 <us_ticker_init+0xfa>
    2f6a:	7833      	ldrb	r3, [r6, #0]
    2f6c:	4393      	bics	r3, r2
    2f6e:	d164      	bne.n	303a <us_ticker_init+0x162>
    2f70:	7973      	ldrb	r3, [r6, #5]
    2f72:	065b      	lsls	r3, r3, #25
    2f74:	d453      	bmi.n	301e <us_ticker_init+0x146>
    2f76:	79b3      	ldrb	r3, [r6, #6]
    2f78:	06db      	lsls	r3, r3, #27
    2f7a:	d45e      	bmi.n	303a <us_ticker_init+0x162>
    2f7c:	7833      	ldrb	r3, [r6, #0]
    2f7e:	3a38      	subs	r2, #56	; 0x38
    2f80:	08db      	lsrs	r3, r3, #3
    2f82:	7871      	ldrb	r1, [r6, #1]
    2f84:	4013      	ands	r3, r2
    2f86:	3229      	adds	r2, #41	; 0x29
    2f88:	409c      	lsls	r4, r3
    2f8a:	4211      	tst	r1, r2
    2f8c:	d003      	beq.n	2f96 <us_ticker_init+0xbe>
    2f8e:	23ff      	movs	r3, #255	; 0xff
    2f90:	0164      	lsls	r4, r4, #5
    2f92:	015b      	lsls	r3, r3, #5
    2f94:	401c      	ands	r4, r3
    2f96:	221f      	movs	r2, #31
    2f98:	78f3      	ldrb	r3, [r6, #3]
    2f9a:	4393      	bics	r3, r2
    2f9c:	2b60      	cmp	r3, #96	; 0x60
    2f9e:	d035      	beq.n	300c <us_ticker_init+0x134>
    2fa0:	d807      	bhi.n	2fb2 <us_ticker_init+0xda>
    2fa2:	2b20      	cmp	r3, #32
    2fa4:	d00e      	beq.n	2fc4 <us_ticker_init+0xec>
    2fa6:	2b40      	cmp	r3, #64	; 0x40
    2fa8:	d02e      	beq.n	3008 <us_ticker_init+0x130>
    2faa:	2b00      	cmp	r3, #0
    2fac:	d135      	bne.n	301a <us_ticker_init+0x142>
    2fae:	21a0      	movs	r1, #160	; 0xa0
    2fb0:	e006      	b.n	2fc0 <us_ticker_init+0xe8>
    2fb2:	2ba0      	cmp	r3, #160	; 0xa0
    2fb4:	d02d      	beq.n	3012 <us_ticker_init+0x13a>
    2fb6:	2bc0      	cmp	r3, #192	; 0xc0
    2fb8:	d02d      	beq.n	3016 <us_ticker_init+0x13e>
    2fba:	2b80      	cmp	r3, #128	; 0x80
    2fbc:	d12d      	bne.n	301a <us_ticker_init+0x142>
    2fbe:	21b7      	movs	r1, #183	; 0xb7
    2fc0:	0089      	lsls	r1, r1, #2
    2fc2:	e001      	b.n	2fc8 <us_ticker_init+0xf0>
    2fc4:	21a0      	movs	r1, #160	; 0xa0
    2fc6:	00c9      	lsls	r1, r1, #3
    2fc8:	0020      	movs	r0, r4
    2fca:	4378      	muls	r0, r7
    2fcc:	f001 f89e 	bl	410c <__udivsi3>
    2fd0:	0007      	movs	r7, r0
    2fd2:	2f00      	cmp	r7, #0
    2fd4:	d031      	beq.n	303a <us_ticker_init+0x162>
    2fd6:	4931      	ldr	r1, [pc, #196]	; (309c <us_ticker_init+0x1c4>)
    2fd8:	0038      	movs	r0, r7
    2fda:	f001 f91d 	bl	4218 <__aeabi_uidivmod>
    2fde:	1e0c      	subs	r4, r1, #0
    2fe0:	d12b      	bne.n	303a <us_ticker_init+0x162>
    2fe2:	492e      	ldr	r1, [pc, #184]	; (309c <us_ticker_init+0x1c4>)
    2fe4:	0038      	movs	r0, r7
    2fe6:	f001 f891 	bl	410c <__udivsi3>
    2fea:	2307      	movs	r3, #7
    2fec:	2801      	cmp	r0, #1
    2fee:	d042      	beq.n	3076 <us_ticker_init+0x19e>
    2ff0:	0021      	movs	r1, r4
    2ff2:	2301      	movs	r3, #1
    2ff4:	0840      	lsrs	r0, r0, #1
    2ff6:	2801      	cmp	r0, #1
    2ff8:	d11a      	bne.n	3030 <us_ticker_init+0x158>
    2ffa:	2378      	movs	r3, #120	; 0x78
    2ffc:	00c9      	lsls	r1, r1, #3
    2ffe:	4019      	ands	r1, r3
    3000:	3b75      	subs	r3, #117	; 0x75
    3002:	4319      	orrs	r1, r3
    3004:	6069      	str	r1, [r5, #4]
    3006:	bdf7      	pop	{r0, r1, r2, r4, r5, r6, r7, pc}
    3008:	21f0      	movs	r1, #240	; 0xf0
    300a:	e7dc      	b.n	2fc6 <us_ticker_init+0xee>
    300c:	21a0      	movs	r1, #160	; 0xa0
    300e:	0109      	lsls	r1, r1, #4
    3010:	e7da      	b.n	2fc8 <us_ticker_init+0xf0>
    3012:	21b7      	movs	r1, #183	; 0xb7
    3014:	e7d7      	b.n	2fc6 <us_ticker_init+0xee>
    3016:	4927      	ldr	r1, [pc, #156]	; (30b4 <us_ticker_init+0x1dc>)
    3018:	e7d6      	b.n	2fc8 <us_ticker_init+0xf0>
    301a:	4927      	ldr	r1, [pc, #156]	; (30b8 <us_ticker_init+0x1e0>)
    301c:	e7d4      	b.n	2fc8 <us_ticker_init+0xf0>
    301e:	231f      	movs	r3, #31
    3020:	7930      	ldrb	r0, [r6, #4]
    3022:	7971      	ldrb	r1, [r6, #5]
    3024:	4018      	ands	r0, r3
    3026:	3001      	adds	r0, #1
    3028:	4019      	ands	r1, r3
    302a:	4378      	muls	r0, r7
    302c:	3118      	adds	r1, #24
    302e:	e7cd      	b.n	2fcc <us_ticker_init+0xf4>
    3030:	4218      	tst	r0, r3
    3032:	d102      	bne.n	303a <us_ticker_init+0x162>
    3034:	3101      	adds	r1, #1
    3036:	0840      	lsrs	r0, r0, #1
    3038:	e7dd      	b.n	2ff6 <us_ticker_init+0x11e>
    303a:	2302      	movs	r3, #2
    303c:	7832      	ldrb	r2, [r6, #0]
    303e:	4313      	orrs	r3, r2
    3040:	7033      	strb	r3, [r6, #0]
    3042:	2301      	movs	r3, #1
    3044:	7872      	ldrb	r2, [r6, #1]
    3046:	4313      	orrs	r3, r2
    3048:	7073      	strb	r3, [r6, #1]
    304a:	2300      	movs	r3, #0
    304c:	220e      	movs	r2, #14
    304e:	606b      	str	r3, [r5, #4]
    3050:	7a33      	ldrb	r3, [r6, #8]
    3052:	4013      	ands	r3, r2
    3054:	d00a      	beq.n	306c <us_ticker_init+0x194>
    3056:	2b02      	cmp	r3, #2
    3058:	d00c      	beq.n	3074 <us_ticker_init+0x19c>
    305a:	7a33      	ldrb	r3, [r6, #8]
    305c:	4393      	bics	r3, r2
    305e:	7233      	strb	r3, [r6, #8]
    3060:	2304      	movs	r3, #4
    3062:	7a32      	ldrb	r2, [r6, #8]
    3064:	431a      	orrs	r2, r3
    3066:	7232      	strb	r2, [r6, #8]
    3068:	686a      	ldr	r2, [r5, #4]
    306a:	e001      	b.n	3070 <us_ticker_init+0x198>
    306c:	2308      	movs	r3, #8
    306e:	686a      	ldr	r2, [r5, #4]
    3070:	4313      	orrs	r3, r2
    3072:	e000      	b.n	3076 <us_ticker_init+0x19e>
    3074:	686b      	ldr	r3, [r5, #4]
    3076:	606b      	str	r3, [r5, #4]
    3078:	e7c5      	b.n	3006 <us_ticker_init+0x12e>
    307a:	46c0      	nop			; (mov r8, r8)
    307c:	2000082c 	.word	0x2000082c
    3080:	40047000 	.word	0x40047000
    3084:	0000103c 	.word	0x0000103c
    3088:	400370fc 	.word	0x400370fc
    308c:	40037000 	.word	0x40037000
    3090:	1ffff0e0 	.word	0x1ffff0e0
    3094:	00001044 	.word	0x00001044
    3098:	0007a120 	.word	0x0007a120
    309c:	000f4240 	.word	0x000f4240
    30a0:	00001038 	.word	0x00001038
    30a4:	40040000 	.word	0x40040000
    30a8:	00002e91 	.word	0x00002e91
    30ac:	e000e100 	.word	0xe000e100
    30b0:	40064000 	.word	0x40064000
    30b4:	00000895 	.word	0x00000895
    30b8:	00000b71 	.word	0x00000b71

000030bc <us_ticker_read>:
    30bc:	4b05      	ldr	r3, [pc, #20]	; (30d4 <us_ticker_read+0x18>)
    30be:	b510      	push	{r4, lr}
    30c0:	681b      	ldr	r3, [r3, #0]
    30c2:	2b00      	cmp	r3, #0
    30c4:	d101      	bne.n	30ca <us_ticker_read+0xe>
    30c6:	f7ff ff07 	bl	2ed8 <us_ticker_init>
    30ca:	4b03      	ldr	r3, [pc, #12]	; (30d8 <us_ticker_read+0x1c>)
    30cc:	6998      	ldr	r0, [r3, #24]
    30ce:	43c0      	mvns	r0, r0
    30d0:	bd10      	pop	{r4, pc}
    30d2:	46c0      	nop			; (mov r8, r8)
    30d4:	2000082c 	.word	0x2000082c
    30d8:	400370fc 	.word	0x400370fc

000030dc <us_ticker_disable_interrupt>:
    30dc:	2140      	movs	r1, #64	; 0x40
    30de:	4a02      	ldr	r2, [pc, #8]	; (30e8 <us_ticker_disable_interrupt+0xc>)
    30e0:	6813      	ldr	r3, [r2, #0]
    30e2:	438b      	bics	r3, r1
    30e4:	6013      	str	r3, [r2, #0]
    30e6:	4770      	bx	lr
    30e8:	40040000 	.word	0x40040000

000030ec <us_ticker_clear_interrupt>:
    30ec:	4770      	bx	lr
	...

000030f0 <us_ticker_set_interrupt>:
    30f0:	b570      	push	{r4, r5, r6, lr}
    30f2:	0004      	movs	r4, r0
    30f4:	f7ff ffe2 	bl	30bc <us_ticker_read>
    30f8:	1a20      	subs	r0, r4, r0
    30fa:	2800      	cmp	r0, #0
    30fc:	dc00      	bgt.n	3100 <us_ticker_set_interrupt+0x10>
    30fe:	2001      	movs	r0, #1
    3100:	4d08      	ldr	r5, [pc, #32]	; (3124 <us_ticker_set_interrupt+0x34>)
    3102:	4e09      	ldr	r6, [pc, #36]	; (3128 <us_ticker_set_interrupt+0x38>)
    3104:	1404      	asrs	r4, r0, #16
    3106:	b280      	uxth	r0, r0
    3108:	602c      	str	r4, [r5, #0]
    310a:	8030      	strh	r0, [r6, #0]
    310c:	2c00      	cmp	r4, #0
    310e:	d005      	beq.n	311c <us_ticker_set_interrupt+0x2c>
    3110:	4806      	ldr	r0, [pc, #24]	; (312c <us_ticker_set_interrupt+0x3c>)
    3112:	3c01      	subs	r4, #1
    3114:	f7ff feac 	bl	2e70 <lptmr_set>
    3118:	602c      	str	r4, [r5, #0]
    311a:	bd70      	pop	{r4, r5, r6, pc}
    311c:	f7ff fea8 	bl	2e70 <lptmr_set>
    3120:	8034      	strh	r4, [r6, #0]
    3122:	e7fa      	b.n	311a <us_ticker_set_interrupt+0x2a>
    3124:	20000830 	.word	0x20000830
    3128:	20000834 	.word	0x20000834
    312c:	0000ffff 	.word	0x0000ffff

00003130 <mcgpllfll_frequency.part.0>:
    3130:	4a0c      	ldr	r2, [pc, #48]	; (3164 <mcgpllfll_frequency.part.0+0x34>)
    3132:	4b0d      	ldr	r3, [pc, #52]	; (3168 <mcgpllfll_frequency.part.0+0x38>)
    3134:	b510      	push	{r4, lr}
    3136:	5898      	ldr	r0, [r3, r2]
    3138:	4a0c      	ldr	r2, [pc, #48]	; (316c <mcgpllfll_frequency.part.0+0x3c>)
    313a:	0f00      	lsrs	r0, r0, #28
    313c:	6812      	ldr	r2, [r2, #0]
    313e:	3001      	adds	r0, #1
    3140:	4350      	muls	r0, r2
    3142:	4a0b      	ldr	r2, [pc, #44]	; (3170 <mcgpllfll_frequency.part.0+0x40>)
    3144:	7951      	ldrb	r1, [r2, #5]
    3146:	4a0b      	ldr	r2, [pc, #44]	; (3174 <mcgpllfll_frequency.part.0+0x44>)
    3148:	0649      	lsls	r1, r1, #25
    314a:	d404      	bmi.n	3156 <mcgpllfll_frequency.part.0+0x26>
    314c:	5899      	ldr	r1, [r3, r2]
    314e:	4c0a      	ldr	r4, [pc, #40]	; (3178 <mcgpllfll_frequency.part.0+0x48>)
    3150:	4021      	ands	r1, r4
    3152:	5099      	str	r1, [r3, r2]
    3154:	bd10      	pop	{r4, pc}
    3156:	2180      	movs	r1, #128	; 0x80
    3158:	589c      	ldr	r4, [r3, r2]
    315a:	0249      	lsls	r1, r1, #9
    315c:	4321      	orrs	r1, r4
    315e:	5099      	str	r1, [r3, r2]
    3160:	0840      	lsrs	r0, r0, #1
    3162:	e7f7      	b.n	3154 <mcgpllfll_frequency.part.0+0x24>
    3164:	00001044 	.word	0x00001044
    3168:	40047000 	.word	0x40047000
    316c:	1ffff0e0 	.word	0x1ffff0e0
    3170:	40064000 	.word	0x40064000
    3174:	00001004 	.word	0x00001004
    3178:	fffeffff 	.word	0xfffeffff

0000317c <pwmout_write>:
    317c:	b570      	push	{r4, r5, r6, lr}
    317e:	1c0c      	adds	r4, r1, #0
    3180:	0005      	movs	r5, r0
    3182:	2100      	movs	r1, #0
    3184:	1c20      	adds	r0, r4, #0
    3186:	f001 f949 	bl	441c <__aeabi_fcmplt>
    318a:	2800      	cmp	r0, #0
    318c:	d118      	bne.n	31c0 <pwmout_write+0x44>
    318e:	21fe      	movs	r1, #254	; 0xfe
    3190:	1c20      	adds	r0, r4, #0
    3192:	0589      	lsls	r1, r1, #22
    3194:	f001 f956 	bl	4444 <__aeabi_fcmpgt>
    3198:	2800      	cmp	r0, #0
    319a:	d001      	beq.n	31a0 <pwmout_write+0x24>
    319c:	24fe      	movs	r4, #254	; 0xfe
    319e:	05a4      	lsls	r4, r4, #22
    31a0:	682b      	ldr	r3, [r5, #0]
    31a2:	68ae      	ldr	r6, [r5, #8]
    31a4:	6818      	ldr	r0, [r3, #0]
    31a6:	3001      	adds	r0, #1
    31a8:	f002 f826 	bl	51f8 <__aeabi_ui2f>
    31ac:	1c21      	adds	r1, r4, #0
    31ae:	f001 fcf7 	bl	4ba0 <__aeabi_fmul>
    31b2:	f001 f95b 	bl	446c <__aeabi_f2uiz>
    31b6:	2200      	movs	r2, #0
    31b8:	686b      	ldr	r3, [r5, #4]
    31ba:	6030      	str	r0, [r6, #0]
    31bc:	601a      	str	r2, [r3, #0]
    31be:	bd70      	pop	{r4, r5, r6, pc}
    31c0:	2400      	movs	r4, #0
    31c2:	e7ed      	b.n	31a0 <pwmout_write+0x24>

000031c4 <pwmout_read>:
    31c4:	0003      	movs	r3, r0
    31c6:	6882      	ldr	r2, [r0, #8]
    31c8:	681b      	ldr	r3, [r3, #0]
    31ca:	b570      	push	{r4, r5, r6, lr}
    31cc:	6810      	ldr	r0, [r2, #0]
    31ce:	681c      	ldr	r4, [r3, #0]
    31d0:	f002 f812 	bl	51f8 <__aeabi_ui2f>
    31d4:	1c05      	adds	r5, r0, #0
    31d6:	1c60      	adds	r0, r4, #1
    31d8:	f002 f80e 	bl	51f8 <__aeabi_ui2f>
    31dc:	1c01      	adds	r1, r0, #0
    31de:	1c28      	adds	r0, r5, #0
    31e0:	f001 faee 	bl	47c0 <__aeabi_fdiv>
    31e4:	21fe      	movs	r1, #254	; 0xfe
    31e6:	0589      	lsls	r1, r1, #22
    31e8:	1c04      	adds	r4, r0, #0
    31ea:	f001 f92b 	bl	4444 <__aeabi_fcmpgt>
    31ee:	2800      	cmp	r0, #0
    31f0:	d001      	beq.n	31f6 <pwmout_read+0x32>
    31f2:	24fe      	movs	r4, #254	; 0xfe
    31f4:	05a4      	lsls	r4, r4, #22
    31f6:	1c20      	adds	r0, r4, #0
    31f8:	bd70      	pop	{r4, r5, r6, pc}
	...

000031fc <pwmout_period_us>:
    31fc:	b5f8      	push	{r3, r4, r5, r6, r7, lr}
    31fe:	000f      	movs	r7, r1
    3200:	0004      	movs	r4, r0
    3202:	f7ff ffdf 	bl	31c4 <pwmout_read>
    3206:	1c05      	adds	r5, r0, #0
    3208:	0038      	movs	r0, r7
    320a:	f001 ffa5 	bl	5158 <__aeabi_i2f>
    320e:	4b07      	ldr	r3, [pc, #28]	; (322c <pwmout_period_us+0x30>)
    3210:	6826      	ldr	r6, [r4, #0]
    3212:	6819      	ldr	r1, [r3, #0]
    3214:	f001 fcc4 	bl	4ba0 <__aeabi_fmul>
    3218:	f001 f928 	bl	446c <__aeabi_f2uiz>
    321c:	3801      	subs	r0, #1
    321e:	6030      	str	r0, [r6, #0]
    3220:	1c29      	adds	r1, r5, #0
    3222:	0020      	movs	r0, r4
    3224:	f7ff ffaa 	bl	317c <pwmout_write>
    3228:	bdf8      	pop	{r3, r4, r5, r6, r7, pc}
    322a:	46c0      	nop			; (mov r8, r8)
    322c:	20000838 	.word	0x20000838

00003230 <pwmout_period>:
    3230:	b510      	push	{r4, lr}
    3232:	0004      	movs	r4, r0
    3234:	1c08      	adds	r0, r1, #0
    3236:	4905      	ldr	r1, [pc, #20]	; (324c <pwmout_period+0x1c>)
    3238:	f001 fcb2 	bl	4ba0 <__aeabi_fmul>
    323c:	f001 ff6c 	bl	5118 <__aeabi_f2iz>
    3240:	0001      	movs	r1, r0
    3242:	0020      	movs	r0, r4
    3244:	f7ff ffda 	bl	31fc <pwmout_period_us>
    3248:	bd10      	pop	{r4, pc}
    324a:	46c0      	nop			; (mov r8, r8)
    324c:	49742400 	.word	0x49742400

00003250 <pwmout_init>:
    3250:	b5f0      	push	{r4, r5, r6, r7, lr}
    3252:	b085      	sub	sp, #20
    3254:	9100      	str	r1, [sp, #0]
    3256:	0006      	movs	r6, r0
    3258:	496a      	ldr	r1, [pc, #424]	; (3404 <pwmout_init+0x1b4>)
    325a:	9800      	ldr	r0, [sp, #0]
    325c:	f7fe fa92 	bl	1784 <pinmap_peripheral>
    3260:	466b      	mov	r3, sp
    3262:	9001      	str	r0, [sp, #4]
    3264:	889b      	ldrh	r3, [r3, #4]
    3266:	4d68      	ldr	r5, [pc, #416]	; (3408 <pwmout_init+0x1b8>)
    3268:	9303      	str	r3, [sp, #12]
    326a:	4b67      	ldr	r3, [pc, #412]	; (3408 <pwmout_init+0x1b8>)
    326c:	4c67      	ldr	r4, [pc, #412]	; (340c <pwmout_init+0x1bc>)
    326e:	7818      	ldrb	r0, [r3, #0]
    3270:	233f      	movs	r3, #63	; 0x3f
    3272:	4398      	bics	r0, r3
    3274:	9002      	str	r0, [sp, #8]
    3276:	4f66      	ldr	r7, [pc, #408]	; (3410 <pwmout_init+0x1c0>)
    3278:	d167      	bne.n	334a <pwmout_init+0xfa>
    327a:	f7ff ff59 	bl	3130 <mcgpllfll_frequency.part.0>
    327e:	2800      	cmp	r0, #0
    3280:	d063      	beq.n	334a <pwmout_init+0xfa>
    3282:	2380      	movs	r3, #128	; 0x80
    3284:	59e2      	ldr	r2, [r4, r7]
    3286:	045b      	lsls	r3, r3, #17
    3288:	4313      	orrs	r3, r2
    328a:	223f      	movs	r2, #63	; 0x3f
    328c:	51e3      	str	r3, [r4, r7]
    328e:	782b      	ldrb	r3, [r5, #0]
    3290:	9802      	ldr	r0, [sp, #8]
    3292:	4393      	bics	r3, r2
    3294:	d101      	bne.n	329a <pwmout_init+0x4a>
    3296:	f7ff ff4b 	bl	3130 <mcgpllfll_frequency.part.0>
    329a:	f001 ffad 	bl	51f8 <__aeabi_ui2f>
    329e:	495d      	ldr	r1, [pc, #372]	; (3414 <pwmout_init+0x1c4>)
    32a0:	f001 fa8e 	bl	47c0 <__aeabi_fdiv>
    32a4:	2500      	movs	r5, #0
    32a6:	1c07      	adds	r7, r0, #0
    32a8:	21fe      	movs	r1, #254	; 0xfe
    32aa:	1c38      	adds	r0, r7, #0
    32ac:	0589      	lsls	r1, r1, #22
    32ae:	f001 f8c9 	bl	4444 <__aeabi_fcmpgt>
    32b2:	2800      	cmp	r0, #0
    32b4:	d008      	beq.n	32c8 <pwmout_init+0x78>
    32b6:	21fc      	movs	r1, #252	; 0xfc
    32b8:	1c38      	adds	r0, r7, #0
    32ba:	0589      	lsls	r1, r1, #22
    32bc:	f001 fc70 	bl	4ba0 <__aeabi_fmul>
    32c0:	3501      	adds	r5, #1
    32c2:	1c07      	adds	r7, r0, #0
    32c4:	2d07      	cmp	r5, #7
    32c6:	d1ef      	bne.n	32a8 <pwmout_init+0x58>
    32c8:	4b53      	ldr	r3, [pc, #332]	; (3418 <pwmout_init+0x1c8>)
    32ca:	2101      	movs	r1, #1
    32cc:	601f      	str	r7, [r3, #0]
    32ce:	9b03      	ldr	r3, [sp, #12]
    32d0:	4f52      	ldr	r7, [pc, #328]	; (341c <pwmout_init+0x1cc>)
    32d2:	0a1b      	lsrs	r3, r3, #8
    32d4:	9302      	str	r3, [sp, #8]
    32d6:	466b      	mov	r3, sp
    32d8:	791a      	ldrb	r2, [r3, #4]
    32da:	59e3      	ldr	r3, [r4, r7]
    32dc:	469c      	mov	r12, r3
    32de:	9b00      	ldr	r3, [sp, #0]
    32e0:	0b18      	lsrs	r0, r3, #12
    32e2:	000b      	movs	r3, r1
    32e4:	3009      	adds	r0, #9
    32e6:	4083      	lsls	r3, r0
    32e8:	0018      	movs	r0, r3
    32ea:	4663      	mov	r3, r12
    32ec:	4318      	orrs	r0, r3
    32ee:	2318      	movs	r3, #24
    32f0:	469c      	mov	r12, r3
    32f2:	9b02      	ldr	r3, [sp, #8]
    32f4:	51e0      	str	r0, [r4, r7]
    32f6:	449c      	add	r12, r3
    32f8:	4663      	mov	r3, r12
    32fa:	4099      	lsls	r1, r3
    32fc:	4848      	ldr	r0, [pc, #288]	; (3420 <pwmout_init+0x1d0>)
    32fe:	4b49      	ldr	r3, [pc, #292]	; (3424 <pwmout_init+0x1d4>)
    3300:	5827      	ldr	r7, [r4, r0]
    3302:	430f      	orrs	r7, r1
    3304:	9902      	ldr	r1, [sp, #8]
    3306:	5027      	str	r7, [r4, r0]
    3308:	18cb      	adds	r3, r1, r3
    330a:	2108      	movs	r1, #8
    330c:	2028      	movs	r0, #40	; 0x28
    330e:	430d      	orrs	r5, r1
    3310:	1c51      	adds	r1, r2, #1
    3312:	3202      	adds	r2, #2
    3314:	031b      	lsls	r3, r3, #12
    3316:	00c9      	lsls	r1, r1, #3
    3318:	00d2      	lsls	r2, r2, #3
    331a:	1859      	adds	r1, r3, r1
    331c:	189a      	adds	r2, r3, r2
    331e:	601d      	str	r5, [r3, #0]
    3320:	6048      	str	r0, [r1, #4]
    3322:	60b2      	str	r2, [r6, #8]
    3324:	001a      	movs	r2, r3
    3326:	3304      	adds	r3, #4
    3328:	3208      	adds	r2, #8
    332a:	6032      	str	r2, [r6, #0]
    332c:	6073      	str	r3, [r6, #4]
    332e:	0030      	movs	r0, r6
    3330:	493d      	ldr	r1, [pc, #244]	; (3428 <pwmout_init+0x1d8>)
    3332:	f7ff ff63 	bl	31fc <pwmout_period_us>
    3336:	0030      	movs	r0, r6
    3338:	2100      	movs	r1, #0
    333a:	f7ff ff1f 	bl	317c <pwmout_write>
    333e:	4931      	ldr	r1, [pc, #196]	; (3404 <pwmout_init+0x1b4>)
    3340:	9800      	ldr	r0, [sp, #0]
    3342:	f7fe f9e5 	bl	1710 <pinmap_pinout>
    3346:	b005      	add	sp, #20
    3348:	bdf0      	pop	{r4, r5, r6, r7, pc}
    334a:	2380      	movs	r3, #128	; 0x80
    334c:	59e2      	ldr	r2, [r4, r7]
    334e:	049b      	lsls	r3, r3, #18
    3350:	4313      	orrs	r3, r2
    3352:	223f      	movs	r2, #63	; 0x3f
    3354:	51e3      	str	r3, [r4, r7]
    3356:	4b35      	ldr	r3, [pc, #212]	; (342c <pwmout_init+0x1dc>)
    3358:	58e0      	ldr	r0, [r4, r3]
    335a:	4b35      	ldr	r3, [pc, #212]	; (3430 <pwmout_init+0x1e0>)
    335c:	0f00      	lsrs	r0, r0, #28
    335e:	681b      	ldr	r3, [r3, #0]
    3360:	3001      	adds	r0, #1
    3362:	4358      	muls	r0, r3
    3364:	782b      	ldrb	r3, [r5, #0]
    3366:	4393      	bics	r3, r2
    3368:	2b80      	cmp	r3, #128	; 0x80
    336a:	d096      	beq.n	329a <pwmout_init+0x4a>
    336c:	782b      	ldrb	r3, [r5, #0]
    336e:	4393      	bics	r3, r2
    3370:	d144      	bne.n	33fc <pwmout_init+0x1ac>
    3372:	796b      	ldrb	r3, [r5, #5]
    3374:	3201      	adds	r2, #1
    3376:	4013      	ands	r3, r2
    3378:	d137      	bne.n	33ea <pwmout_init+0x19a>
    337a:	79aa      	ldrb	r2, [r5, #6]
    337c:	06d2      	lsls	r2, r2, #27
    337e:	d43f      	bmi.n	3400 <pwmout_init+0x1b0>
    3380:	2201      	movs	r2, #1
    3382:	2130      	movs	r1, #48	; 0x30
    3384:	782b      	ldrb	r3, [r5, #0]
    3386:	786f      	ldrb	r7, [r5, #1]
    3388:	069b      	lsls	r3, r3, #26
    338a:	0f5b      	lsrs	r3, r3, #29
    338c:	409a      	lsls	r2, r3
    338e:	420f      	tst	r7, r1
    3390:	d003      	beq.n	339a <pwmout_init+0x14a>
    3392:	23ff      	movs	r3, #255	; 0xff
    3394:	0152      	lsls	r2, r2, #5
    3396:	015b      	lsls	r3, r3, #5
    3398:	401a      	ands	r2, r3
    339a:	211f      	movs	r1, #31
    339c:	78eb      	ldrb	r3, [r5, #3]
    339e:	438b      	bics	r3, r1
    33a0:	2b60      	cmp	r3, #96	; 0x60
    33a2:	d019      	beq.n	33d8 <pwmout_init+0x188>
    33a4:	d807      	bhi.n	33b6 <pwmout_init+0x166>
    33a6:	2b20      	cmp	r3, #32
    33a8:	d00e      	beq.n	33c8 <pwmout_init+0x178>
    33aa:	2b40      	cmp	r3, #64	; 0x40
    33ac:	d012      	beq.n	33d4 <pwmout_init+0x184>
    33ae:	2b00      	cmp	r3, #0
    33b0:	d119      	bne.n	33e6 <pwmout_init+0x196>
    33b2:	21a0      	movs	r1, #160	; 0xa0
    33b4:	e006      	b.n	33c4 <pwmout_init+0x174>
    33b6:	2ba0      	cmp	r3, #160	; 0xa0
    33b8:	d011      	beq.n	33de <pwmout_init+0x18e>
    33ba:	2bc0      	cmp	r3, #192	; 0xc0
    33bc:	d011      	beq.n	33e2 <pwmout_init+0x192>
    33be:	2b80      	cmp	r3, #128	; 0x80
    33c0:	d111      	bne.n	33e6 <pwmout_init+0x196>
    33c2:	21b7      	movs	r1, #183	; 0xb7
    33c4:	0089      	lsls	r1, r1, #2
    33c6:	e001      	b.n	33cc <pwmout_init+0x17c>
    33c8:	21a0      	movs	r1, #160	; 0xa0
    33ca:	00c9      	lsls	r1, r1, #3
    33cc:	4350      	muls	r0, r2
    33ce:	f000 fe9d 	bl	410c <__udivsi3>
    33d2:	e762      	b.n	329a <pwmout_init+0x4a>
    33d4:	21f0      	movs	r1, #240	; 0xf0
    33d6:	e7f8      	b.n	33ca <pwmout_init+0x17a>
    33d8:	21a0      	movs	r1, #160	; 0xa0
    33da:	0109      	lsls	r1, r1, #4
    33dc:	e7f6      	b.n	33cc <pwmout_init+0x17c>
    33de:	21b7      	movs	r1, #183	; 0xb7
    33e0:	e7f3      	b.n	33ca <pwmout_init+0x17a>
    33e2:	4914      	ldr	r1, [pc, #80]	; (3434 <pwmout_init+0x1e4>)
    33e4:	e7f2      	b.n	33cc <pwmout_init+0x17c>
    33e6:	4914      	ldr	r1, [pc, #80]	; (3438 <pwmout_init+0x1e8>)
    33e8:	e7f0      	b.n	33cc <pwmout_init+0x17c>
    33ea:	221f      	movs	r2, #31
    33ec:	792b      	ldrb	r3, [r5, #4]
    33ee:	7969      	ldrb	r1, [r5, #5]
    33f0:	4013      	ands	r3, r2
    33f2:	3301      	adds	r3, #1
    33f4:	4011      	ands	r1, r2
    33f6:	4358      	muls	r0, r3
    33f8:	3118      	adds	r1, #24
    33fa:	e7e8      	b.n	33ce <pwmout_init+0x17e>
    33fc:	2000      	movs	r0, #0
    33fe:	e74c      	b.n	329a <pwmout_init+0x4a>
    3400:	0018      	movs	r0, r3
    3402:	e74a      	b.n	329a <pwmout_init+0x4a>
    3404:	000076c4 	.word	0x000076c4
    3408:	40064000 	.word	0x40064000
    340c:	40047000 	.word	0x40047000
    3410:	00001004 	.word	0x00001004
    3414:	49742400 	.word	0x49742400
    3418:	20000838 	.word	0x20000838
    341c:	00001038 	.word	0x00001038
    3420:	0000103c 	.word	0x0000103c
    3424:	00040038 	.word	0x00040038
    3428:	00004e20 	.word	0x00004e20
    342c:	00001044 	.word	0x00001044
    3430:	1ffff0e0 	.word	0x1ffff0e0
    3434:	00000895 	.word	0x00000895
    3438:	00000b71 	.word	0x00000b71

0000343c <pwmout_pulsewidth_us>:
    343c:	b510      	push	{r4, lr}
    343e:	6884      	ldr	r4, [r0, #8]
    3440:	0008      	movs	r0, r1
    3442:	f001 fe89 	bl	5158 <__aeabi_i2f>
    3446:	4b04      	ldr	r3, [pc, #16]	; (3458 <pwmout_pulsewidth_us+0x1c>)
    3448:	6819      	ldr	r1, [r3, #0]
    344a:	f001 fba9 	bl	4ba0 <__aeabi_fmul>
    344e:	f001 f80d 	bl	446c <__aeabi_f2uiz>
    3452:	6020      	str	r0, [r4, #0]
    3454:	bd10      	pop	{r4, pc}
    3456:	46c0      	nop			; (mov r8, r8)
    3458:	20000838 	.word	0x20000838

0000345c <pwmout_pulsewidth>:
    345c:	b510      	push	{r4, lr}
    345e:	0004      	movs	r4, r0
    3460:	1c08      	adds	r0, r1, #0
    3462:	4905      	ldr	r1, [pc, #20]	; (3478 <pwmout_pulsewidth+0x1c>)
    3464:	f001 fb9c 	bl	4ba0 <__aeabi_fmul>
    3468:	f001 fe56 	bl	5118 <__aeabi_f2iz>
    346c:	0001      	movs	r1, r0
    346e:	0020      	movs	r0, r4
    3470:	f7ff ffe4 	bl	343c <pwmout_pulsewidth_us>
    3474:	bd10      	pop	{r4, pc}
    3476:	46c0      	nop			; (mov r8, r8)
    3478:	49742400 	.word	0x49742400

0000347c <pin_function>:
    347c:	0b03      	lsrs	r3, r0, #12
    347e:	b5f0      	push	{r4, r5, r6, r7, lr}
    3480:	001f      	movs	r7, r3
    3482:	2201      	movs	r2, #1
    3484:	3709      	adds	r7, #9
    3486:	40ba      	lsls	r2, r7
    3488:	4d08      	ldr	r5, [pc, #32]	; (34ac <pin_function+0x30>)
    348a:	4c09      	ldr	r4, [pc, #36]	; (34b0 <pin_function+0x34>)
    348c:	0209      	lsls	r1, r1, #8
    348e:	592e      	ldr	r6, [r5, r4]
    3490:	4332      	orrs	r2, r6
    3492:	512a      	str	r2, [r5, r4]
    3494:	4a07      	ldr	r2, [pc, #28]	; (34b4 <pin_function+0x38>)
    3496:	189b      	adds	r3, r3, r2
    3498:	227c      	movs	r2, #124	; 0x7c
    349a:	031b      	lsls	r3, r3, #12
    349c:	4010      	ands	r0, r2
    349e:	1818      	adds	r0, r3, r0
    34a0:	6803      	ldr	r3, [r0, #0]
    34a2:	4a05      	ldr	r2, [pc, #20]	; (34b8 <pin_function+0x3c>)
    34a4:	4013      	ands	r3, r2
    34a6:	4319      	orrs	r1, r3
    34a8:	6001      	str	r1, [r0, #0]
    34aa:	bdf0      	pop	{r4, r5, r6, r7, pc}
    34ac:	40047000 	.word	0x40047000
    34b0:	00001038 	.word	0x00001038
    34b4:	00040049 	.word	0x00040049
    34b8:	fffff8ff 	.word	0xfffff8ff

000034bc <pin_mode>:
    34bc:	2203      	movs	r2, #3
    34be:	4b03      	ldr	r3, [pc, #12]	; (34cc <pin_mode+0x10>)
    34c0:	18c0      	adds	r0, r0, r3
    34c2:	6803      	ldr	r3, [r0, #0]
    34c4:	4393      	bics	r3, r2
    34c6:	4319      	orrs	r1, r3
    34c8:	6001      	str	r1, [r0, #0]
    34ca:	4770      	bx	lr
    34cc:	40049000 	.word	0x40049000

000034d0 <mcgpllfll_frequency>:
    34d0:	213f      	movs	r1, #63	; 0x3f
    34d2:	2000      	movs	r0, #0
    34d4:	4a0e      	ldr	r2, [pc, #56]	; (3510 <mcgpllfll_frequency+0x40>)
    34d6:	b510      	push	{r4, lr}
    34d8:	7813      	ldrb	r3, [r2, #0]
    34da:	438b      	bics	r3, r1
    34dc:	4283      	cmp	r3, r0
    34de:	d10f      	bne.n	3500 <mcgpllfll_frequency+0x30>
    34e0:	490c      	ldr	r1, [pc, #48]	; (3514 <mcgpllfll_frequency+0x44>)
    34e2:	4b0d      	ldr	r3, [pc, #52]	; (3518 <mcgpllfll_frequency+0x48>)
    34e4:	5858      	ldr	r0, [r3, r1]
    34e6:	490d      	ldr	r1, [pc, #52]	; (351c <mcgpllfll_frequency+0x4c>)
    34e8:	0f00      	lsrs	r0, r0, #28
    34ea:	6809      	ldr	r1, [r1, #0]
    34ec:	3001      	adds	r0, #1
    34ee:	4348      	muls	r0, r1
    34f0:	7951      	ldrb	r1, [r2, #5]
    34f2:	4a0b      	ldr	r2, [pc, #44]	; (3520 <mcgpllfll_frequency+0x50>)
    34f4:	0649      	lsls	r1, r1, #25
    34f6:	d404      	bmi.n	3502 <mcgpllfll_frequency+0x32>
    34f8:	5899      	ldr	r1, [r3, r2]
    34fa:	4c0a      	ldr	r4, [pc, #40]	; (3524 <mcgpllfll_frequency+0x54>)
    34fc:	4021      	ands	r1, r4
    34fe:	5099      	str	r1, [r3, r2]
    3500:	bd10      	pop	{r4, pc}
    3502:	2180      	movs	r1, #128	; 0x80
    3504:	589c      	ldr	r4, [r3, r2]
    3506:	0249      	lsls	r1, r1, #9
    3508:	4321      	orrs	r1, r4
    350a:	5099      	str	r1, [r3, r2]
    350c:	0840      	lsrs	r0, r0, #1
    350e:	e7f7      	b.n	3500 <mcgpllfll_frequency+0x30>
    3510:	40064000 	.word	0x40064000
    3514:	00001044 	.word	0x00001044
    3518:	40047000 	.word	0x40047000
    351c:	1ffff0e0 	.word	0x1ffff0e0
    3520:	00001004 	.word	0x00001004
    3524:	fffeffff 	.word	0xfffeffff

00003528 <uart_irq>:
    3528:	b570      	push	{r4, r5, r6, lr}
    352a:	4d0a      	ldr	r5, [pc, #40]	; (3554 <uart_irq+0x2c>)
    352c:	008c      	lsls	r4, r1, #2
    352e:	0006      	movs	r6, r0
    3530:	5960      	ldr	r0, [r4, r5]
    3532:	2800      	cmp	r0, #0
    3534:	d00d      	beq.n	3552 <uart_irq+0x2a>
    3536:	b273      	sxtb	r3, r6
    3538:	2b00      	cmp	r3, #0
    353a:	da03      	bge.n	3544 <uart_irq+0x1c>
    353c:	4b06      	ldr	r3, [pc, #24]	; (3558 <uart_irq+0x30>)
    353e:	2101      	movs	r1, #1
    3540:	681b      	ldr	r3, [r3, #0]
    3542:	4798      	blx	r3
    3544:	06b3      	lsls	r3, r6, #26
    3546:	d504      	bpl.n	3552 <uart_irq+0x2a>
    3548:	4b03      	ldr	r3, [pc, #12]	; (3558 <uart_irq+0x30>)
    354a:	2100      	movs	r1, #0
    354c:	681b      	ldr	r3, [r3, #0]
    354e:	5928      	ldr	r0, [r5, r4]
    3550:	4798      	blx	r3
    3552:	bd70      	pop	{r4, r5, r6, pc}
    3554:	20000840 	.word	0x20000840
    3558:	2000083c 	.word	0x2000083c

0000355c <uart1_irq>:
    355c:	b510      	push	{r4, lr}
    355e:	4b03      	ldr	r3, [pc, #12]	; (356c <uart1_irq+0x10>)
    3560:	2101      	movs	r1, #1
    3562:	7918      	ldrb	r0, [r3, #4]
    3564:	b2c0      	uxtb	r0, r0
    3566:	f7ff ffdf 	bl	3528 <uart_irq>
    356a:	bd10      	pop	{r4, pc}
    356c:	4006b000 	.word	0x4006b000

00003570 <uart2_irq>:
    3570:	b510      	push	{r4, lr}
    3572:	4b03      	ldr	r3, [pc, #12]	; (3580 <uart2_irq+0x10>)
    3574:	2102      	movs	r1, #2
    3576:	7918      	ldrb	r0, [r3, #4]
    3578:	b2c0      	uxtb	r0, r0
    357a:	f7ff ffd5 	bl	3528 <uart_irq>
    357e:	bd10      	pop	{r4, pc}
    3580:	4006c000 	.word	0x4006c000

00003584 <uart0_irq>:
    3584:	b510      	push	{r4, lr}
    3586:	4c07      	ldr	r4, [pc, #28]	; (35a4 <uart0_irq+0x20>)
    3588:	2100      	movs	r1, #0
    358a:	7920      	ldrb	r0, [r4, #4]
    358c:	b2c0      	uxtb	r0, r0
    358e:	f7ff ffcb 	bl	3528 <uart_irq>
    3592:	2308      	movs	r3, #8
    3594:	7922      	ldrb	r2, [r4, #4]
    3596:	421a      	tst	r2, r3
    3598:	d002      	beq.n	35a0 <uart0_irq+0x1c>
    359a:	7922      	ldrb	r2, [r4, #4]
    359c:	4313      	orrs	r3, r2
    359e:	7123      	strb	r3, [r4, #4]
    35a0:	bd10      	pop	{r4, pc}
    35a2:	46c0      	nop			; (mov r8, r8)
    35a4:	4006a000 	.word	0x4006a000

000035a8 <serial_baud>:
    35a8:	b5f7      	push	{r0, r1, r2, r4, r5, r6, r7, lr}
    35aa:	000d      	movs	r5, r1
    35ac:	210c      	movs	r1, #12
    35ae:	6803      	ldr	r3, [r0, #0]
    35b0:	0006      	movs	r6, r0
    35b2:	78dc      	ldrb	r4, [r3, #3]
    35b4:	400c      	ands	r4, r1
    35b6:	9401      	str	r4, [sp, #4]
    35b8:	78da      	ldrb	r2, [r3, #3]
    35ba:	438a      	bics	r2, r1
    35bc:	70da      	strb	r2, [r3, #3]
    35be:	4a41      	ldr	r2, [pc, #260]	; (36c4 <serial_baud+0x11c>)
    35c0:	4293      	cmp	r3, r2
    35c2:	d000      	beq.n	35c6 <serial_baud+0x1e>
    35c4:	e073      	b.n	36ae <serial_baud+0x106>
    35c6:	f7ff ff83 	bl	34d0 <mcgpllfll_frequency>
    35ca:	2800      	cmp	r0, #0
    35cc:	d014      	beq.n	35f8 <serial_baud+0x50>
    35ce:	f7ff ff7f 	bl	34d0 <mcgpllfll_frequency>
    35d2:	0129      	lsls	r1, r5, #4
    35d4:	f000 fd9a 	bl	410c <__udivsi3>
    35d8:	251f      	movs	r5, #31
    35da:	6832      	ldr	r2, [r6, #0]
    35dc:	0a03      	lsrs	r3, r0, #8
    35de:	7811      	ldrb	r1, [r2, #0]
    35e0:	402b      	ands	r3, r5
    35e2:	43a9      	bics	r1, r5
    35e4:	430b      	orrs	r3, r1
    35e6:	7013      	strb	r3, [r2, #0]
    35e8:	b2c0      	uxtb	r0, r0
    35ea:	7853      	ldrb	r3, [r2, #1]
    35ec:	7050      	strb	r0, [r2, #1]
    35ee:	78d3      	ldrb	r3, [r2, #3]
    35f0:	9c01      	ldr	r4, [sp, #4]
    35f2:	431c      	orrs	r4, r3
    35f4:	70d4      	strb	r4, [r2, #3]
    35f6:	bdf7      	pop	{r0, r1, r2, r4, r5, r6, r7, pc}
    35f8:	4b33      	ldr	r3, [pc, #204]	; (36c8 <serial_baud+0x120>)
    35fa:	4a34      	ldr	r2, [pc, #208]	; (36cc <serial_baud+0x124>)
    35fc:	58d7      	ldr	r7, [r2, r3]
    35fe:	4b34      	ldr	r3, [pc, #208]	; (36d0 <serial_baud+0x128>)
    3600:	0f3f      	lsrs	r7, r7, #28
    3602:	681a      	ldr	r2, [r3, #0]
    3604:	233f      	movs	r3, #63	; 0x3f
    3606:	3701      	adds	r7, #1
    3608:	4357      	muls	r7, r2
    360a:	4a32      	ldr	r2, [pc, #200]	; (36d4 <serial_baud+0x12c>)
    360c:	469c      	mov	r12, r3
    360e:	7811      	ldrb	r1, [r2, #0]
    3610:	4399      	bics	r1, r3
    3612:	0013      	movs	r3, r2
    3614:	2980      	cmp	r1, #128	; 0x80
    3616:	d053      	beq.n	36c0 <serial_baud+0x118>
    3618:	4664      	mov	r4, r12
    361a:	7811      	ldrb	r1, [r2, #0]
    361c:	43a1      	bics	r1, r4
    361e:	d1d8      	bne.n	35d2 <serial_baud+0x2a>
    3620:	7951      	ldrb	r1, [r2, #5]
    3622:	0649      	lsls	r1, r1, #25
    3624:	d43a      	bmi.n	369c <serial_baud+0xf4>
    3626:	7992      	ldrb	r2, [r2, #6]
    3628:	06d2      	lsls	r2, r2, #27
    362a:	d4d2      	bmi.n	35d2 <serial_baud+0x2a>
    362c:	7819      	ldrb	r1, [r3, #0]
    362e:	785a      	ldrb	r2, [r3, #1]
    3630:	0689      	lsls	r1, r1, #26
    3632:	4694      	mov	r12, r2
    3634:	2201      	movs	r2, #1
    3636:	0f49      	lsrs	r1, r1, #29
    3638:	408a      	lsls	r2, r1
    363a:	2030      	movs	r0, #48	; 0x30
    363c:	4661      	mov	r1, r12
    363e:	4201      	tst	r1, r0
    3640:	d003      	beq.n	364a <serial_baud+0xa2>
    3642:	21ff      	movs	r1, #255	; 0xff
    3644:	0152      	lsls	r2, r2, #5
    3646:	0149      	lsls	r1, r1, #5
    3648:	400a      	ands	r2, r1
    364a:	211f      	movs	r1, #31
    364c:	78db      	ldrb	r3, [r3, #3]
    364e:	438b      	bics	r3, r1
    3650:	2b60      	cmp	r3, #96	; 0x60
    3652:	d01a      	beq.n	368a <serial_baud+0xe2>
    3654:	d807      	bhi.n	3666 <serial_baud+0xbe>
    3656:	2b20      	cmp	r3, #32
    3658:	d00e      	beq.n	3678 <serial_baud+0xd0>
    365a:	2b40      	cmp	r3, #64	; 0x40
    365c:	d013      	beq.n	3686 <serial_baud+0xde>
    365e:	2b00      	cmp	r3, #0
    3660:	d11a      	bne.n	3698 <serial_baud+0xf0>
    3662:	21a0      	movs	r1, #160	; 0xa0
    3664:	e006      	b.n	3674 <serial_baud+0xcc>
    3666:	2ba0      	cmp	r3, #160	; 0xa0
    3668:	d012      	beq.n	3690 <serial_baud+0xe8>
    366a:	2bc0      	cmp	r3, #192	; 0xc0
    366c:	d012      	beq.n	3694 <serial_baud+0xec>
    366e:	2b80      	cmp	r3, #128	; 0x80
    3670:	d112      	bne.n	3698 <serial_baud+0xf0>
    3672:	21b7      	movs	r1, #183	; 0xb7
    3674:	0089      	lsls	r1, r1, #2
    3676:	e001      	b.n	367c <serial_baud+0xd4>
    3678:	21a0      	movs	r1, #160	; 0xa0
    367a:	00c9      	lsls	r1, r1, #3
    367c:	437a      	muls	r2, r7
    367e:	0010      	movs	r0, r2
    3680:	f000 fd44 	bl	410c <__udivsi3>
    3684:	e7a5      	b.n	35d2 <serial_baud+0x2a>
    3686:	21f0      	movs	r1, #240	; 0xf0
    3688:	e7f7      	b.n	367a <serial_baud+0xd2>
    368a:	21a0      	movs	r1, #160	; 0xa0
    368c:	0109      	lsls	r1, r1, #4
    368e:	e7f5      	b.n	367c <serial_baud+0xd4>
    3690:	21b7      	movs	r1, #183	; 0xb7
    3692:	e7f2      	b.n	367a <serial_baud+0xd2>
    3694:	4910      	ldr	r1, [pc, #64]	; (36d8 <serial_baud+0x130>)
    3696:	e7f1      	b.n	367c <serial_baud+0xd4>
    3698:	4910      	ldr	r1, [pc, #64]	; (36dc <serial_baud+0x134>)
    369a:	e7ef      	b.n	367c <serial_baud+0xd4>
    369c:	231f      	movs	r3, #31
    369e:	7910      	ldrb	r0, [r2, #4]
    36a0:	7951      	ldrb	r1, [r2, #5]
    36a2:	4018      	ands	r0, r3
    36a4:	3001      	adds	r0, #1
    36a6:	4019      	ands	r1, r3
    36a8:	4378      	muls	r0, r7
    36aa:	3118      	adds	r1, #24
    36ac:	e7e8      	b.n	3680 <serial_baud+0xd8>
    36ae:	4b06      	ldr	r3, [pc, #24]	; (36c8 <serial_baud+0x120>)
    36b0:	4a06      	ldr	r2, [pc, #24]	; (36cc <serial_baud+0x124>)
    36b2:	58d1      	ldr	r1, [r2, r3]
    36b4:	4b06      	ldr	r3, [pc, #24]	; (36d0 <serial_baud+0x128>)
    36b6:	0349      	lsls	r1, r1, #13
    36b8:	0f49      	lsrs	r1, r1, #29
    36ba:	3101      	adds	r1, #1
    36bc:	6818      	ldr	r0, [r3, #0]
    36be:	e7df      	b.n	3680 <serial_baud+0xd8>
    36c0:	0038      	movs	r0, r7
    36c2:	e786      	b.n	35d2 <serial_baud+0x2a>
    36c4:	4006a000 	.word	0x4006a000
    36c8:	00001044 	.word	0x00001044
    36cc:	40047000 	.word	0x40047000
    36d0:	1ffff0e0 	.word	0x1ffff0e0
    36d4:	40064000 	.word	0x40064000
    36d8:	00000895 	.word	0x00000895
    36dc:	00000b71 	.word	0x00000b71

000036e0 <serial_format>:
    36e0:	b5f0      	push	{r4, r5, r6, r7, lr}
    36e2:	270c      	movs	r7, #12
    36e4:	6801      	ldr	r1, [r0, #0]
    36e6:	78c8      	ldrb	r0, [r1, #3]
    36e8:	78ce      	ldrb	r6, [r1, #3]
    36ea:	4038      	ands	r0, r7
    36ec:	43be      	bics	r6, r7
    36ee:	70ce      	strb	r6, [r1, #3]
    36f0:	2a01      	cmp	r2, #1
    36f2:	d015      	beq.n	3720 <serial_format+0x40>
    36f4:	2a00      	cmp	r2, #0
    36f6:	d013      	beq.n	3720 <serial_format+0x40>
    36f8:	2a02      	cmp	r2, #2
    36fa:	d014      	beq.n	3726 <serial_format+0x46>
    36fc:	0064      	lsls	r4, r4, #1
    36fe:	432c      	orrs	r4, r5
    3700:	b2e4      	uxtb	r4, r4
    3702:	708c      	strb	r4, [r1, #2]
    3704:	2420      	movs	r4, #32
    3706:	780a      	ldrb	r2, [r1, #0]
    3708:	3b01      	subs	r3, #1
    370a:	43a2      	bics	r2, r4
    370c:	700a      	strb	r2, [r1, #0]
    370e:	780a      	ldrb	r2, [r1, #0]
    3710:	015b      	lsls	r3, r3, #5
    3712:	4313      	orrs	r3, r2
    3714:	b2db      	uxtb	r3, r3
    3716:	700b      	strb	r3, [r1, #0]
    3718:	78cb      	ldrb	r3, [r1, #3]
    371a:	4318      	orrs	r0, r3
    371c:	70c8      	strb	r0, [r1, #3]
    371e:	bdf0      	pop	{r4, r5, r6, r7, pc}
    3720:	0015      	movs	r5, r2
    3722:	0014      	movs	r4, r2
    3724:	e7ea      	b.n	36fc <serial_format+0x1c>
    3726:	2500      	movs	r5, #0
    3728:	2401      	movs	r4, #1
    372a:	e7e7      	b.n	36fc <serial_format+0x1c>

0000372c <serial_init>:
    372c:	b5f8      	push	{r3, r4, r5, r6, r7, lr}
    372e:	000e      	movs	r6, r1
    3730:	0004      	movs	r4, r0
    3732:	4949      	ldr	r1, [pc, #292]	; (3858 <serial_init+0x12c>)
    3734:	0030      	movs	r0, r6
    3736:	0017      	movs	r7, r2
    3738:	f7fe f824 	bl	1784 <pinmap_peripheral>
    373c:	4947      	ldr	r1, [pc, #284]	; (385c <serial_init+0x130>)
    373e:	0005      	movs	r5, r0
    3740:	0038      	movs	r0, r7
    3742:	f7fe f81f 	bl	1784 <pinmap_peripheral>
    3746:	0001      	movs	r1, r0
    3748:	0028      	movs	r0, r5
    374a:	f7fd fffd 	bl	1748 <pinmap_merge>
    374e:	4b44      	ldr	r3, [pc, #272]	; (3860 <serial_init+0x134>)
    3750:	0005      	movs	r5, r0
    3752:	6020      	str	r0, [r4, #0]
    3754:	4298      	cmp	r0, r3
    3756:	d100      	bne.n	375a <serial_init+0x2e>
    3758:	e06c      	b.n	3834 <serial_init+0x108>
    375a:	4b42      	ldr	r3, [pc, #264]	; (3864 <serial_init+0x138>)
    375c:	4298      	cmp	r0, r3
    375e:	d100      	bne.n	3762 <serial_init+0x36>
    3760:	e070      	b.n	3844 <serial_init+0x118>
    3762:	4b41      	ldr	r3, [pc, #260]	; (3868 <serial_init+0x13c>)
    3764:	4298      	cmp	r0, r3
    3766:	d110      	bne.n	378a <serial_init+0x5e>
    3768:	f7ff feb2 	bl	34d0 <mcgpllfll_frequency>
    376c:	4b3f      	ldr	r3, [pc, #252]	; (386c <serial_init+0x140>)
    376e:	4a40      	ldr	r2, [pc, #256]	; (3870 <serial_init+0x144>)
    3770:	2800      	cmp	r0, #0
    3772:	d05b      	beq.n	382c <serial_init+0x100>
    3774:	2180      	movs	r1, #128	; 0x80
    3776:	5898      	ldr	r0, [r3, r2]
    3778:	04c9      	lsls	r1, r1, #19
    377a:	4301      	orrs	r1, r0
    377c:	5099      	str	r1, [r3, r2]
    377e:	2280      	movs	r2, #128	; 0x80
    3780:	493c      	ldr	r1, [pc, #240]	; (3874 <serial_init+0x148>)
    3782:	00d2      	lsls	r2, r2, #3
    3784:	5858      	ldr	r0, [r3, r1]
    3786:	4302      	orrs	r2, r0
    3788:	505a      	str	r2, [r3, r1]
    378a:	210c      	movs	r1, #12
    378c:	6823      	ldr	r3, [r4, #0]
    378e:	78da      	ldrb	r2, [r3, #3]
    3790:	438a      	bics	r2, r1
    3792:	70da      	strb	r2, [r3, #3]
    3794:	2208      	movs	r2, #8
    3796:	78d9      	ldrb	r1, [r3, #3]
    3798:	430a      	orrs	r2, r1
    379a:	70da      	strb	r2, [r3, #3]
    379c:	2240      	movs	r2, #64	; 0x40
    379e:	7919      	ldrb	r1, [r3, #4]
    37a0:	4211      	tst	r1, r2
    37a2:	d0fc      	beq.n	379e <serial_init+0x72>
    37a4:	210c      	movs	r1, #12
    37a6:	78da      	ldrb	r2, [r3, #3]
    37a8:	438a      	bics	r2, r1
    37aa:	70da      	strb	r2, [r3, #3]
    37ac:	4b2c      	ldr	r3, [pc, #176]	; (3860 <serial_init+0x134>)
    37ae:	429d      	cmp	r5, r3
    37b0:	d04e      	beq.n	3850 <serial_init+0x124>
    37b2:	4b2c      	ldr	r3, [pc, #176]	; (3864 <serial_init+0x138>)
    37b4:	429d      	cmp	r5, r3
    37b6:	d04d      	beq.n	3854 <serial_init+0x128>
    37b8:	4b2b      	ldr	r3, [pc, #172]	; (3868 <serial_init+0x13c>)
    37ba:	429d      	cmp	r5, r3
    37bc:	d101      	bne.n	37c2 <serial_init+0x96>
    37be:	2300      	movs	r3, #0
    37c0:	6063      	str	r3, [r4, #4]
    37c2:	2196      	movs	r1, #150	; 0x96
    37c4:	0020      	movs	r0, r4
    37c6:	0189      	lsls	r1, r1, #6
    37c8:	f7ff feee 	bl	35a8 <serial_baud>
    37cc:	2301      	movs	r3, #1
    37ce:	2200      	movs	r2, #0
    37d0:	2108      	movs	r1, #8
    37d2:	0020      	movs	r0, r4
    37d4:	f7ff ff84 	bl	36e0 <serial_format>
    37d8:	491f      	ldr	r1, [pc, #124]	; (3858 <serial_init+0x12c>)
    37da:	0030      	movs	r0, r6
    37dc:	f7fd ff98 	bl	1710 <pinmap_pinout>
    37e0:	491e      	ldr	r1, [pc, #120]	; (385c <serial_init+0x130>)
    37e2:	0038      	movs	r0, r7
    37e4:	f7fd ff94 	bl	1710 <pinmap_pinout>
    37e8:	1c73      	adds	r3, r6, #1
    37ea:	d008      	beq.n	37fe <serial_init+0xd2>
    37ec:	2308      	movs	r3, #8
    37ee:	6822      	ldr	r2, [r4, #0]
    37f0:	0030      	movs	r0, r6
    37f2:	78d1      	ldrb	r1, [r2, #3]
    37f4:	430b      	orrs	r3, r1
    37f6:	70d3      	strb	r3, [r2, #3]
    37f8:	2102      	movs	r1, #2
    37fa:	f7ff fe5f 	bl	34bc <pin_mode>
    37fe:	1c7b      	adds	r3, r7, #1
    3800:	d008      	beq.n	3814 <serial_init+0xe8>
    3802:	2304      	movs	r3, #4
    3804:	6822      	ldr	r2, [r4, #0]
    3806:	0038      	movs	r0, r7
    3808:	78d1      	ldrb	r1, [r2, #3]
    380a:	430b      	orrs	r3, r1
    380c:	70d3      	strb	r3, [r2, #3]
    380e:	2102      	movs	r1, #2
    3810:	f7ff fe54 	bl	34bc <pin_mode>
    3814:	4b14      	ldr	r3, [pc, #80]	; (3868 <serial_init+0x13c>)
    3816:	429d      	cmp	r5, r3
    3818:	d107      	bne.n	382a <serial_init+0xfe>
    381a:	2201      	movs	r2, #1
    381c:	4b16      	ldr	r3, [pc, #88]	; (3878 <serial_init+0x14c>)
    381e:	0021      	movs	r1, r4
    3820:	601a      	str	r2, [r3, #0]
    3822:	4816      	ldr	r0, [pc, #88]	; (387c <serial_init+0x150>)
    3824:	3207      	adds	r2, #7
    3826:	f003 f8b8 	bl	699a <memcpy>
    382a:	bdf8      	pop	{r3, r4, r5, r6, r7, pc}
    382c:	2180      	movs	r1, #128	; 0x80
    382e:	5898      	ldr	r0, [r3, r2]
    3830:	0509      	lsls	r1, r1, #20
    3832:	e7a2      	b.n	377a <serial_init+0x4e>
    3834:	2380      	movs	r3, #128	; 0x80
    3836:	490d      	ldr	r1, [pc, #52]	; (386c <serial_init+0x140>)
    3838:	4a0e      	ldr	r2, [pc, #56]	; (3874 <serial_init+0x148>)
    383a:	011b      	lsls	r3, r3, #4
    383c:	5888      	ldr	r0, [r1, r2]
    383e:	4303      	orrs	r3, r0
    3840:	508b      	str	r3, [r1, r2]
    3842:	e7a2      	b.n	378a <serial_init+0x5e>
    3844:	2380      	movs	r3, #128	; 0x80
    3846:	4909      	ldr	r1, [pc, #36]	; (386c <serial_init+0x140>)
    3848:	4a0a      	ldr	r2, [pc, #40]	; (3874 <serial_init+0x148>)
    384a:	015b      	lsls	r3, r3, #5
    384c:	5888      	ldr	r0, [r1, r2]
    384e:	e7f6      	b.n	383e <serial_init+0x112>
    3850:	2301      	movs	r3, #1
    3852:	e7b5      	b.n	37c0 <serial_init+0x94>
    3854:	2302      	movs	r3, #2
    3856:	e7b3      	b.n	37c0 <serial_init+0x94>
    3858:	000078ec 	.word	0x000078ec
    385c:	00007880 	.word	0x00007880
    3860:	4006b000 	.word	0x4006b000
    3864:	4006c000 	.word	0x4006c000
    3868:	4006a000 	.word	0x4006a000
    386c:	40047000 	.word	0x40047000
    3870:	00001004 	.word	0x00001004
    3874:	00001034 	.word	0x00001034
    3878:	2000084c 	.word	0x2000084c
    387c:	200011a8 	.word	0x200011a8

00003880 <serial_irq_handler>:
    3880:	4b03      	ldr	r3, [pc, #12]	; (3890 <serial_irq_handler+0x10>)
    3882:	6019      	str	r1, [r3, #0]
    3884:	6843      	ldr	r3, [r0, #4]
    3886:	4903      	ldr	r1, [pc, #12]	; (3894 <serial_irq_handler+0x14>)
    3888:	009b      	lsls	r3, r3, #2
    388a:	505a      	str	r2, [r3, r1]
    388c:	4770      	bx	lr
    388e:	46c0      	nop			; (mov r8, r8)
    3890:	2000083c 	.word	0x2000083c
    3894:	20000840 	.word	0x20000840

00003898 <serial_irq_set>:
    3898:	6803      	ldr	r3, [r0, #0]
    389a:	4827      	ldr	r0, [pc, #156]	; (3938 <serial_irq_set+0xa0>)
    389c:	b510      	push	{r4, lr}
    389e:	4283      	cmp	r3, r0
    38a0:	d016      	beq.n	38d0 <serial_irq_set+0x38>
    38a2:	4826      	ldr	r0, [pc, #152]	; (393c <serial_irq_set+0xa4>)
    38a4:	4283      	cmp	r3, r0
    38a6:	d016      	beq.n	38d6 <serial_irq_set+0x3e>
    38a8:	4825      	ldr	r0, [pc, #148]	; (3940 <serial_irq_set+0xa8>)
    38aa:	4283      	cmp	r3, r0
    38ac:	d116      	bne.n	38dc <serial_irq_set+0x44>
    38ae:	240c      	movs	r4, #12
    38b0:	4824      	ldr	r0, [pc, #144]	; (3944 <serial_irq_set+0xac>)
    38b2:	2a00      	cmp	r2, #0
    38b4:	d01d      	beq.n	38f2 <serial_irq_set+0x5a>
    38b6:	2900      	cmp	r1, #0
    38b8:	d013      	beq.n	38e2 <serial_irq_set+0x4a>
    38ba:	2901      	cmp	r1, #1
    38bc:	d016      	beq.n	38ec <serial_irq_set+0x54>
    38be:	0001      	movs	r1, r0
    38c0:	0020      	movs	r0, r4
    38c2:	f000 f8d1 	bl	3a68 <NVIC_SetVector>
    38c6:	2301      	movs	r3, #1
    38c8:	40a3      	lsls	r3, r4
    38ca:	4a1f      	ldr	r2, [pc, #124]	; (3948 <serial_irq_set+0xb0>)
    38cc:	6013      	str	r3, [r2, #0]
    38ce:	bd10      	pop	{r4, pc}
    38d0:	481e      	ldr	r0, [pc, #120]	; (394c <serial_irq_set+0xb4>)
    38d2:	240d      	movs	r4, #13
    38d4:	e7ed      	b.n	38b2 <serial_irq_set+0x1a>
    38d6:	481e      	ldr	r0, [pc, #120]	; (3950 <serial_irq_set+0xb8>)
    38d8:	240e      	movs	r4, #14
    38da:	e7ea      	b.n	38b2 <serial_irq_set+0x1a>
    38dc:	2000      	movs	r0, #0
    38de:	0004      	movs	r4, r0
    38e0:	e7e7      	b.n	38b2 <serial_irq_set+0x1a>
    38e2:	2220      	movs	r2, #32
    38e4:	78d9      	ldrb	r1, [r3, #3]
    38e6:	430a      	orrs	r2, r1
    38e8:	70da      	strb	r2, [r3, #3]
    38ea:	e7e8      	b.n	38be <serial_irq_set+0x26>
    38ec:	78da      	ldrb	r2, [r3, #3]
    38ee:	2180      	movs	r1, #128	; 0x80
    38f0:	e7f9      	b.n	38e6 <serial_irq_set+0x4e>
    38f2:	2900      	cmp	r1, #0
    38f4:	d004      	beq.n	3900 <serial_irq_set+0x68>
    38f6:	2901      	cmp	r1, #1
    38f8:	d00b      	beq.n	3912 <serial_irq_set+0x7a>
    38fa:	2900      	cmp	r1, #0
    38fc:	d004      	beq.n	3908 <serial_irq_set+0x70>
    38fe:	e00c      	b.n	391a <serial_irq_set+0x82>
    3900:	2120      	movs	r1, #32
    3902:	78da      	ldrb	r2, [r3, #3]
    3904:	438a      	bics	r2, r1
    3906:	70da      	strb	r2, [r3, #3]
    3908:	78db      	ldrb	r3, [r3, #3]
    390a:	b25b      	sxtb	r3, r3
    390c:	43db      	mvns	r3, r3
    390e:	0fdb      	lsrs	r3, r3, #31
    3910:	e007      	b.n	3922 <serial_irq_set+0x8a>
    3912:	217f      	movs	r1, #127	; 0x7f
    3914:	78da      	ldrb	r2, [r3, #3]
    3916:	400a      	ands	r2, r1
    3918:	70da      	strb	r2, [r3, #3]
    391a:	78da      	ldrb	r2, [r3, #3]
    391c:	2301      	movs	r3, #1
    391e:	0952      	lsrs	r2, r2, #5
    3920:	4393      	bics	r3, r2
    3922:	2b00      	cmp	r3, #0
    3924:	d0d3      	beq.n	38ce <serial_irq_set+0x36>
    3926:	2301      	movs	r3, #1
    3928:	40a3      	lsls	r3, r4
    392a:	4a0a      	ldr	r2, [pc, #40]	; (3954 <serial_irq_set+0xbc>)
    392c:	67d3      	str	r3, [r2, #124]	; 0x7c
    392e:	f3bf 8f4f 	dsb	sy
    3932:	f3bf 8f6f 	isb	sy
    3936:	e7ca      	b.n	38ce <serial_irq_set+0x36>
    3938:	4006b000 	.word	0x4006b000
    393c:	4006c000 	.word	0x4006c000
    3940:	4006a000 	.word	0x4006a000
    3944:	00003585 	.word	0x00003585
    3948:	e000e100 	.word	0xe000e100
    394c:	0000355d 	.word	0x0000355d
    3950:	00003571 	.word	0x00003571
    3954:	e000e104 	.word	0xe000e104

00003958 <serial_readable>:
    3958:	2208      	movs	r2, #8
    395a:	6803      	ldr	r3, [r0, #0]
    395c:	7919      	ldrb	r1, [r3, #4]
    395e:	4211      	tst	r1, r2
    3960:	d002      	beq.n	3968 <serial_readable+0x10>
    3962:	7919      	ldrb	r1, [r3, #4]
    3964:	430a      	orrs	r2, r1
    3966:	711a      	strb	r2, [r3, #4]
    3968:	7918      	ldrb	r0, [r3, #4]
    396a:	2320      	movs	r3, #32
    396c:	4018      	ands	r0, r3
    396e:	4770      	bx	lr

00003970 <serial_getc>:
    3970:	b510      	push	{r4, lr}
    3972:	0004      	movs	r4, r0
    3974:	0020      	movs	r0, r4
    3976:	f7ff ffef 	bl	3958 <serial_readable>
    397a:	2800      	cmp	r0, #0
    397c:	d0fa      	beq.n	3974 <serial_getc+0x4>
    397e:	6823      	ldr	r3, [r4, #0]
    3980:	79d8      	ldrb	r0, [r3, #7]
    3982:	b2c0      	uxtb	r0, r0
    3984:	bd10      	pop	{r4, pc}

00003986 <serial_writable>:
    3986:	2208      	movs	r2, #8
    3988:	6803      	ldr	r3, [r0, #0]
    398a:	7919      	ldrb	r1, [r3, #4]
    398c:	4211      	tst	r1, r2
    398e:	d002      	beq.n	3996 <serial_writable+0x10>
    3990:	7919      	ldrb	r1, [r3, #4]
    3992:	430a      	orrs	r2, r1
    3994:	711a      	strb	r2, [r3, #4]
    3996:	7918      	ldrb	r0, [r3, #4]
    3998:	237f      	movs	r3, #127	; 0x7f
    399a:	4398      	bics	r0, r3
    399c:	4770      	bx	lr

0000399e <serial_putc>:
    399e:	b570      	push	{r4, r5, r6, lr}
    39a0:	0005      	movs	r5, r0
    39a2:	000c      	movs	r4, r1
    39a4:	0028      	movs	r0, r5
    39a6:	f7ff ffee 	bl	3986 <serial_writable>
    39aa:	2800      	cmp	r0, #0
    39ac:	d0fa      	beq.n	39a4 <serial_putc+0x6>
    39ae:	682b      	ldr	r3, [r5, #0]
    39b0:	b2e4      	uxtb	r4, r4
    39b2:	71dc      	strb	r4, [r3, #7]
    39b4:	bd70      	pop	{r4, r5, r6, pc}

000039b6 <NMI_Handler>:
    39b6:	b57f      	push	{r0, r1, r2, r3, r4, r5, r6, lr}
    39b8:	2110      	movs	r1, #16
    39ba:	4668      	mov	r0, sp
    39bc:	f7fd fe5c 	bl	1678 <gpio_init_in>
    39c0:	b007      	add	sp, #28
    39c2:	bd00      	pop	{pc}

000039c4 <SystemInit>:
    39c4:	2288      	movs	r2, #136	; 0x88
    39c6:	2000      	movs	r0, #0
    39c8:	4b1f      	ldr	r3, [pc, #124]	; (3a48 <SystemInit+0x84>)
    39ca:	0152      	lsls	r2, r2, #5
    39cc:	b510      	push	{r4, lr}
    39ce:	5098      	str	r0, [r3, r2]
    39d0:	2280      	movs	r2, #128	; 0x80
    39d2:	491e      	ldr	r1, [pc, #120]	; (3a4c <SystemInit+0x88>)
    39d4:	0092      	lsls	r2, r2, #2
    39d6:	585c      	ldr	r4, [r3, r1]
    39d8:	4322      	orrs	r2, r4
    39da:	505a      	str	r2, [r3, r1]
    39dc:	491c      	ldr	r1, [pc, #112]	; (3a50 <SystemInit+0x8c>)
    39de:	4a1d      	ldr	r2, [pc, #116]	; (3a54 <SystemInit+0x90>)
    39e0:	4c1d      	ldr	r4, [pc, #116]	; (3a58 <SystemInit+0x94>)
    39e2:	5099      	str	r1, [r3, r2]
    39e4:	4b1d      	ldr	r3, [pc, #116]	; (3a5c <SystemInit+0x98>)
    39e6:	6c99      	ldr	r1, [r3, #72]	; 0x48
    39e8:	4021      	ands	r1, r4
    39ea:	6499      	str	r1, [r3, #72]	; 0x48
    39ec:	6cda      	ldr	r2, [r3, #76]	; 0x4c
    39ee:	211f      	movs	r1, #31
    39f0:	4022      	ands	r2, r4
    39f2:	64da      	str	r2, [r3, #76]	; 0x4c
    39f4:	2289      	movs	r2, #137	; 0x89
    39f6:	4b1a      	ldr	r3, [pc, #104]	; (3a60 <SystemInit+0x9c>)
    39f8:	701a      	strb	r2, [r3, #0]
    39fa:	4b1a      	ldr	r3, [pc, #104]	; (3a64 <SystemInit+0xa0>)
    39fc:	3a65      	subs	r2, #101	; 0x65
    39fe:	705a      	strb	r2, [r3, #1]
    3a00:	3276      	adds	r2, #118	; 0x76
    3a02:	701a      	strb	r2, [r3, #0]
    3a04:	78da      	ldrb	r2, [r3, #3]
    3a06:	400a      	ands	r2, r1
    3a08:	70da      	strb	r2, [r3, #3]
    3a0a:	2201      	movs	r2, #1
    3a0c:	711a      	strb	r2, [r3, #4]
    3a0e:	7158      	strb	r0, [r3, #5]
    3a10:	320f      	adds	r2, #15
    3a12:	7999      	ldrb	r1, [r3, #6]
    3a14:	4211      	tst	r1, r2
    3a16:	d1fc      	bne.n	3a12 <SystemInit+0x4e>
    3a18:	210c      	movs	r1, #12
    3a1a:	799a      	ldrb	r2, [r3, #6]
    3a1c:	400a      	ands	r2, r1
    3a1e:	2a08      	cmp	r2, #8
    3a20:	d1fb      	bne.n	3a1a <SystemInit+0x56>
    3a22:	210c      	movs	r1, #12
    3a24:	3238      	adds	r2, #56	; 0x38
    3a26:	715a      	strb	r2, [r3, #5]
    3a28:	799a      	ldrb	r2, [r3, #6]
    3a2a:	400a      	ands	r2, r1
    3a2c:	2a08      	cmp	r2, #8
    3a2e:	d1fb      	bne.n	3a28 <SystemInit+0x64>
    3a30:	3238      	adds	r2, #56	; 0x38
    3a32:	7999      	ldrb	r1, [r3, #6]
    3a34:	4211      	tst	r1, r2
    3a36:	d0fc      	beq.n	3a32 <SystemInit+0x6e>
    3a38:	221a      	movs	r2, #26
    3a3a:	210c      	movs	r1, #12
    3a3c:	701a      	strb	r2, [r3, #0]
    3a3e:	799a      	ldrb	r2, [r3, #6]
    3a40:	400a      	ands	r2, r1
    3a42:	2a0c      	cmp	r2, #12
    3a44:	d1fb      	bne.n	3a3e <SystemInit+0x7a>
    3a46:	bd10      	pop	{r4, pc}
    3a48:	40047000 	.word	0x40047000
    3a4c:	00001038 	.word	0x00001038
    3a50:	10010000 	.word	0x10010000
    3a54:	00001044 	.word	0x00001044
    3a58:	fefff8ff 	.word	0xfefff8ff
    3a5c:	40049000 	.word	0x40049000
    3a60:	40065000 	.word	0x40065000
    3a64:	40064000 	.word	0x40064000

00003a68 <NVIC_SetVector>:
    3a68:	4a0a      	ldr	r2, [pc, #40]	; (3a94 <NVIC_SetVector+0x2c>)
    3a6a:	b5f0      	push	{r4, r5, r6, r7, lr}
    3a6c:	6893      	ldr	r3, [r2, #8]
    3a6e:	6895      	ldr	r5, [r2, #8]
    3a70:	001c      	movs	r4, r3
    3a72:	2d00      	cmp	r5, #0
    3a74:	d10a      	bne.n	3a8c <NVIC_SetVector+0x24>
    3a76:	001d      	movs	r5, r3
    3a78:	4c07      	ldr	r4, [pc, #28]	; (3a98 <NVIC_SetVector+0x30>)
    3a7a:	35c0      	adds	r5, #192	; 0xc0
    3a7c:	1ae6      	subs	r6, r4, r3
    3a7e:	681f      	ldr	r7, [r3, #0]
    3a80:	50f7      	str	r7, [r6, r3]
    3a82:	3304      	adds	r3, #4
    3a84:	42ab      	cmp	r3, r5
    3a86:	d1fa      	bne.n	3a7e <NVIC_SetVector+0x16>
    3a88:	6094      	str	r4, [r2, #8]
    3a8a:	4c03      	ldr	r4, [pc, #12]	; (3a98 <NVIC_SetVector+0x30>)
    3a8c:	3010      	adds	r0, #16
    3a8e:	0080      	lsls	r0, r0, #2
    3a90:	5101      	str	r1, [r0, r4]
    3a92:	bdf0      	pop	{r4, r5, r6, r7, pc}
    3a94:	e000ed00 	.word	0xe000ed00
    3a98:	1ffff000 	.word	0x1ffff000

00003a9c <mbed::Timer::start()>:
    3a9c:	b510      	push	{r4, lr}
    3a9e:	0004      	movs	r4, r0
    3aa0:	f7fd fe8a 	bl	17b8 <core_util_critical_section_enter>
    3aa4:	6823      	ldr	r3, [r4, #0]
    3aa6:	2b00      	cmp	r3, #0
    3aa8:	d105      	bne.n	3ab6 <mbed::Timer::start()+0x1a>
    3aaa:	68e0      	ldr	r0, [r4, #12]
    3aac:	f7fd fe2a 	bl	1704 <ticker_read>
    3ab0:	2301      	movs	r3, #1
    3ab2:	6060      	str	r0, [r4, #4]
    3ab4:	6023      	str	r3, [r4, #0]
    3ab6:	f7fd fe95 	bl	17e4 <core_util_critical_section_exit>
    3aba:	bd10      	pop	{r4, pc}

00003abc <mbed::Timer::slicetime()>:
    3abc:	b570      	push	{r4, r5, r6, lr}
    3abe:	0005      	movs	r5, r0
    3ac0:	f7fd fe7a 	bl	17b8 <core_util_critical_section_enter>
    3ac4:	682c      	ldr	r4, [r5, #0]
    3ac6:	2c00      	cmp	r4, #0
    3ac8:	d004      	beq.n	3ad4 <mbed::Timer::slicetime()+0x18>
    3aca:	68e8      	ldr	r0, [r5, #12]
    3acc:	f7fd fe1a 	bl	1704 <ticker_read>
    3ad0:	686c      	ldr	r4, [r5, #4]
    3ad2:	1b04      	subs	r4, r0, r4
    3ad4:	f7fd fe86 	bl	17e4 <core_util_critical_section_exit>
    3ad8:	0020      	movs	r0, r4
    3ada:	bd70      	pop	{r4, r5, r6, pc}

00003adc <mbed::Timer::read_us()>:
    3adc:	b570      	push	{r4, r5, r6, lr}
    3ade:	0005      	movs	r5, r0
    3ae0:	f7fd fe6a 	bl	17b8 <core_util_critical_section_enter>
    3ae4:	0028      	movs	r0, r5
    3ae6:	68ac      	ldr	r4, [r5, #8]
    3ae8:	f7ff ffe8 	bl	3abc <mbed::Timer::slicetime()>
    3aec:	1824      	adds	r4, r4, r0
    3aee:	f7fd fe79 	bl	17e4 <core_util_critical_section_exit>
    3af2:	0020      	movs	r0, r4
    3af4:	bd70      	pop	{r4, r5, r6, pc}

00003af6 <mbed::Timer::read_ms()>:
    3af6:	b510      	push	{r4, lr}
    3af8:	f7ff fff0 	bl	3adc <mbed::Timer::read_us()>
    3afc:	21fa      	movs	r1, #250	; 0xfa
    3afe:	0089      	lsls	r1, r1, #2
    3b00:	f000 fb8e 	bl	4220 <__divsi3>
    3b04:	bd10      	pop	{r4, pc}

00003b06 <mbed::Timer::reset()>:
    3b06:	b510      	push	{r4, lr}
    3b08:	0004      	movs	r4, r0
    3b0a:	f7fd fe55 	bl	17b8 <core_util_critical_section_enter>
    3b0e:	68e0      	ldr	r0, [r4, #12]
    3b10:	f7fd fdf8 	bl	1704 <ticker_read>
    3b14:	2300      	movs	r3, #0
    3b16:	6060      	str	r0, [r4, #4]
    3b18:	60a3      	str	r3, [r4, #8]
    3b1a:	f7fd fe63 	bl	17e4 <core_util_critical_section_exit>
    3b1e:	bd10      	pop	{r4, pc}

00003b20 <mbed::Timer::Timer()>:
    3b20:	2300      	movs	r3, #0
    3b22:	b510      	push	{r4, lr}
    3b24:	6003      	str	r3, [r0, #0]
    3b26:	6043      	str	r3, [r0, #4]
    3b28:	6083      	str	r3, [r0, #8]
    3b2a:	0004      	movs	r4, r0
    3b2c:	f7fd fdbc 	bl	16a8 <get_us_ticker_data>
    3b30:	60e0      	str	r0, [r4, #12]
    3b32:	0020      	movs	r0, r4
    3b34:	f7ff ffe7 	bl	3b06 <mbed::Timer::reset()>
    3b38:	0020      	movs	r0, r4
    3b3a:	bd10      	pop	{r4, pc}

00003b3c <void mbed::Callback<void ()>::function_call<void (*)()>(void const*)>:
    3b3c:	b510      	push	{r4, lr}
    3b3e:	6803      	ldr	r3, [r0, #0]
    3b40:	4798      	blx	r3
    3b42:	bd10      	pop	{r4, pc}

00003b44 <void mbed::Callback<void ()>::function_move<void (*)()>(void*, void const*)>:
    3b44:	2800      	cmp	r0, #0
    3b46:	d001      	beq.n	3b4c <void mbed::Callback<void ()>::function_move<void (*)()>(void*, void const*)+0x8>
    3b48:	680b      	ldr	r3, [r1, #0]
    3b4a:	6003      	str	r3, [r0, #0]
    3b4c:	4770      	bx	lr

00003b4e <void mbed::Callback<void ()>::function_dtor<void (*)()>(void*)>:
    3b4e:	4770      	bx	lr

00003b50 <mbed::Callback<void ()>::operator=(mbed::Callback<void ()> const&)>:
    3b50:	b570      	push	{r4, r5, r6, lr}
    3b52:	0004      	movs	r4, r0
    3b54:	000d      	movs	r5, r1
    3b56:	4288      	cmp	r0, r1
    3b58:	d00c      	beq.n	3b74 <mbed::Callback<void ()>::operator=(mbed::Callback<void ()> const&)+0x24>
    3b5a:	f7fd fbd1 	bl	1300 <mbed::Callback<void ()>::~Callback()>
    3b5e:	2c00      	cmp	r4, #0
    3b60:	d008      	beq.n	3b74 <mbed::Callback<void ()>::operator=(mbed::Callback<void ()> const&)+0x24>
    3b62:	68eb      	ldr	r3, [r5, #12]
    3b64:	2b00      	cmp	r3, #0
    3b66:	d003      	beq.n	3b70 <mbed::Callback<void ()>::operator=(mbed::Callback<void ()> const&)+0x20>
    3b68:	685b      	ldr	r3, [r3, #4]
    3b6a:	0029      	movs	r1, r5
    3b6c:	0020      	movs	r0, r4
    3b6e:	4798      	blx	r3
    3b70:	68eb      	ldr	r3, [r5, #12]
    3b72:	60e3      	str	r3, [r4, #12]
    3b74:	0020      	movs	r0, r4
    3b76:	bd70      	pop	{r4, r5, r6, pc}

00003b78 <mbed::RawSerial::lock()>:
    3b78:	4770      	bx	lr
	...

00003b7c <mbed::RawSerial::~RawSerial()>:
    3b7c:	b510      	push	{r4, lr}
    3b7e:	0004      	movs	r4, r0
    3b80:	4b03      	ldr	r3, [pc, #12]	; (3b90 <mbed::RawSerial::~RawSerial()+0x14>)
    3b82:	3308      	adds	r3, #8
    3b84:	6003      	str	r3, [r0, #0]
    3b86:	f7fd fbc5 	bl	1314 <mbed::SerialBase::~SerialBase()>
    3b8a:	0020      	movs	r0, r4
    3b8c:	bd10      	pop	{r4, pc}
    3b8e:	46c0      	nop			; (mov r8, r8)
    3b90:	00007964 	.word	0x00007964

00003b94 <mbed::RawSerial::~RawSerial()>:
    3b94:	b510      	push	{r4, lr}
    3b96:	0004      	movs	r4, r0
    3b98:	f7ff fff0 	bl	3b7c <mbed::RawSerial::~RawSerial()>
    3b9c:	0020      	movs	r0, r4
    3b9e:	f000 f9f3 	bl	3f88 <operator delete(void*)>
    3ba2:	0020      	movs	r0, r4
    3ba4:	bd10      	pop	{r4, pc}
	...

00003ba8 <mbed::RawSerial::RawSerial(PinName, PinName, int)>:
    3ba8:	b510      	push	{r4, lr}
    3baa:	0004      	movs	r4, r0
    3bac:	f000 f828 	bl	3c00 <mbed::SerialBase::SerialBase(PinName, PinName, int)>
    3bb0:	4b02      	ldr	r3, [pc, #8]	; (3bbc <mbed::RawSerial::RawSerial(PinName, PinName, int)+0x14>)
    3bb2:	0020      	movs	r0, r4
    3bb4:	3308      	adds	r3, #8
    3bb6:	6023      	str	r3, [r4, #0]
    3bb8:	bd10      	pop	{r4, pc}
    3bba:	46c0      	nop			; (mov r8, r8)
    3bbc:	00007964 	.word	0x00007964

00003bc0 <mbed::donothing()>:
    3bc0:	4770      	bx	lr

00003bc2 <mbed::SerialBase::lock()>:
    3bc2:	4770      	bx	lr

00003bc4 <mbed::SerialBase::unlock()>:
    3bc4:	4770      	bx	lr

00003bc6 <mbed::SerialBase::_irq_handler(unsigned long, SerialIrq)>:
    3bc6:	010b      	lsls	r3, r1, #4
    3bc8:	3101      	adds	r1, #1
    3bca:	b510      	push	{r4, lr}
    3bcc:	0109      	lsls	r1, r1, #4
    3bce:	1841      	adds	r1, r0, r1
    3bd0:	688a      	ldr	r2, [r1, #8]
    3bd2:	330c      	adds	r3, #12
    3bd4:	18c3      	adds	r3, r0, r3
    3bd6:	6812      	ldr	r2, [r2, #0]
    3bd8:	0018      	movs	r0, r3
    3bda:	4790      	blx	r2
    3bdc:	bd10      	pop	{r4, pc}

00003bde <mbed::SerialBase::baud(int)>:
    3bde:	b570      	push	{r4, r5, r6, lr}
    3be0:	0004      	movs	r4, r0
    3be2:	000d      	movs	r5, r1
    3be4:	6803      	ldr	r3, [r0, #0]
    3be6:	681b      	ldr	r3, [r3, #0]
    3be8:	4798      	blx	r3
    3bea:	0029      	movs	r1, r5
    3bec:	1d20      	adds	r0, r4, #4
    3bee:	f7ff fcdb 	bl	35a8 <serial_baud>
    3bf2:	6823      	ldr	r3, [r4, #0]
    3bf4:	62e5      	str	r5, [r4, #44]	; 0x2c
    3bf6:	685b      	ldr	r3, [r3, #4]
    3bf8:	0020      	movs	r0, r4
    3bfa:	4798      	blx	r3
    3bfc:	bd70      	pop	{r4, r5, r6, pc}
	...

00003c00 <mbed::SerialBase::SerialBase(PinName, PinName, int)>:
    3c00:	b5f0      	push	{r4, r5, r6, r7, lr}
    3c02:	b087      	sub	sp, #28
    3c04:	9201      	str	r2, [sp, #4]
    3c06:	4a19      	ldr	r2, [pc, #100]	; (3c6c <mbed::SerialBase::SerialBase(PinName, PinName, int)+0x6c>)
    3c08:	0004      	movs	r4, r0
    3c0a:	3208      	adds	r2, #8
    3c0c:	6002      	str	r2, [r0, #0]
    3c0e:	2200      	movs	r2, #0
    3c10:	4e17      	ldr	r6, [pc, #92]	; (3c70 <mbed::SerialBase::SerialBase(PinName, PinName, int)+0x70>)
    3c12:	4d18      	ldr	r5, [pc, #96]	; (3c74 <mbed::SerialBase::SerialBase(PinName, PinName, int)+0x74>)
    3c14:	62c3      	str	r3, [r0, #44]	; 0x2c
    3c16:	6042      	str	r2, [r0, #4]
    3c18:	6082      	str	r2, [r0, #8]
    3c1a:	6182      	str	r2, [r0, #24]
    3c1c:	6282      	str	r2, [r0, #40]	; 0x28
    3c1e:	000f      	movs	r7, r1
    3c20:	300c      	adds	r0, #12
    3c22:	a902      	add	r1, sp, #8
    3c24:	9505      	str	r5, [sp, #20]
    3c26:	9602      	str	r6, [sp, #8]
    3c28:	f7ff ff92 	bl	3b50 <mbed::Callback<void ()>::operator=(mbed::Callback<void ()> const&)>
    3c2c:	a802      	add	r0, sp, #8
    3c2e:	f7fd fb67 	bl	1300 <mbed::Callback<void ()>::~Callback()>
    3c32:	0020      	movs	r0, r4
    3c34:	a902      	add	r1, sp, #8
    3c36:	301c      	adds	r0, #28
    3c38:	9505      	str	r5, [sp, #20]
    3c3a:	9602      	str	r6, [sp, #8]
    3c3c:	1d25      	adds	r5, r4, #4
    3c3e:	f7ff ff87 	bl	3b50 <mbed::Callback<void ()>::operator=(mbed::Callback<void ()> const&)>
    3c42:	a802      	add	r0, sp, #8
    3c44:	f7fd fb5c 	bl	1300 <mbed::Callback<void ()>::~Callback()>
    3c48:	9a01      	ldr	r2, [sp, #4]
    3c4a:	0039      	movs	r1, r7
    3c4c:	0028      	movs	r0, r5
    3c4e:	f7ff fd6d 	bl	372c <serial_init>
    3c52:	6ae1      	ldr	r1, [r4, #44]	; 0x2c
    3c54:	0028      	movs	r0, r5
    3c56:	f7ff fca7 	bl	35a8 <serial_baud>
    3c5a:	0028      	movs	r0, r5
    3c5c:	0022      	movs	r2, r4
    3c5e:	4906      	ldr	r1, [pc, #24]	; (3c78 <mbed::SerialBase::SerialBase(PinName, PinName, int)+0x78>)
    3c60:	f7ff fe0e 	bl	3880 <serial_irq_handler>
    3c64:	0020      	movs	r0, r4
    3c66:	b007      	add	sp, #28
    3c68:	bdf0      	pop	{r4, r5, r6, r7, pc}
    3c6a:	46c0      	nop			; (mov r8, r8)
    3c6c:	0000797c 	.word	0x0000797c
    3c70:	00003bc1 	.word	0x00003bc1
    3c74:	00007958 	.word	0x00007958
    3c78:	00003bc7 	.word	0x00003bc7

00003c7c <mbed::SerialBase::attach(mbed::Callback<void ()>, mbed::SerialBase::IrqType)>:
    3c7c:	b5f0      	push	{r4, r5, r6, r7, lr}
    3c7e:	000f      	movs	r7, r1
    3c80:	0004      	movs	r4, r0
    3c82:	0015      	movs	r5, r2
    3c84:	6803      	ldr	r3, [r0, #0]
    3c86:	b087      	sub	sp, #28
    3c88:	681b      	ldr	r3, [r3, #0]
    3c8a:	4798      	blx	r3
    3c8c:	f7fd fd94 	bl	17b8 <core_util_critical_section_enter>
    3c90:	68fb      	ldr	r3, [r7, #12]
    3c92:	0128      	lsls	r0, r5, #4
    3c94:	9301      	str	r3, [sp, #4]
    3c96:	1d26      	adds	r6, r4, #4
    3c98:	2b00      	cmp	r3, #0
    3c9a:	d011      	beq.n	3cc0 <mbed::SerialBase::attach(mbed::Callback<void ()>, mbed::SerialBase::IrqType)+0x44>
    3c9c:	300c      	adds	r0, #12
    3c9e:	1820      	adds	r0, r4, r0
    3ca0:	0039      	movs	r1, r7
    3ca2:	f7ff ff55 	bl	3b50 <mbed::Callback<void ()>::operator=(mbed::Callback<void ()> const&)>
    3ca6:	2201      	movs	r2, #1
    3ca8:	0029      	movs	r1, r5
    3caa:	0030      	movs	r0, r6
    3cac:	f7ff fdf4 	bl	3898 <serial_irq_set>
    3cb0:	f7fd fd98 	bl	17e4 <core_util_critical_section_exit>
    3cb4:	6823      	ldr	r3, [r4, #0]
    3cb6:	0020      	movs	r0, r4
    3cb8:	685b      	ldr	r3, [r3, #4]
    3cba:	4798      	blx	r3
    3cbc:	b007      	add	sp, #28
    3cbe:	bdf0      	pop	{r4, r5, r6, r7, pc}
    3cc0:	4b06      	ldr	r3, [pc, #24]	; (3cdc <mbed::SerialBase::attach(mbed::Callback<void ()>, mbed::SerialBase::IrqType)+0x60>)
    3cc2:	300c      	adds	r0, #12
    3cc4:	9302      	str	r3, [sp, #8]
    3cc6:	4b06      	ldr	r3, [pc, #24]	; (3ce0 <mbed::SerialBase::attach(mbed::Callback<void ()>, mbed::SerialBase::IrqType)+0x64>)
    3cc8:	a902      	add	r1, sp, #8
    3cca:	1820      	adds	r0, r4, r0
    3ccc:	9305      	str	r3, [sp, #20]
    3cce:	f7ff ff3f 	bl	3b50 <mbed::Callback<void ()>::operator=(mbed::Callback<void ()> const&)>
    3cd2:	a802      	add	r0, sp, #8
    3cd4:	f7fd fb14 	bl	1300 <mbed::Callback<void ()>::~Callback()>
    3cd8:	9a01      	ldr	r2, [sp, #4]
    3cda:	e7e5      	b.n	3ca8 <mbed::SerialBase::attach(mbed::Callback<void ()>, mbed::SerialBase::IrqType)+0x2c>
    3cdc:	00003bc1 	.word	0x00003bc1
    3ce0:	00007958 	.word	0x00007958

00003ce4 <__wrap__malloc_r>:
    3ce4:	b510      	push	{r4, lr}
    3ce6:	f002 fec5 	bl	6a74 <_malloc_r>
    3cea:	bd10      	pop	{r4, pc}

00003cec <__wrap__realloc_r>:
    3cec:	b510      	push	{r4, lr}
    3cee:	f002 ff1f 	bl	6b30 <_realloc_r>
    3cf2:	bd10      	pop	{r4, pc}

00003cf4 <__wrap__free_r>:
    3cf4:	b510      	push	{r4, lr}
    3cf6:	f002 fe73 	bl	69e0 <_free_r>
    3cfa:	bd10      	pop	{r4, pc}

00003cfc <wait_us>:
    3cfc:	b570      	push	{r4, r5, r6, lr}
    3cfe:	0004      	movs	r4, r0
    3d00:	f7ff f9dc 	bl	30bc <us_ticker_read>
    3d04:	21fa      	movs	r1, #250	; 0xfa
    3d06:	0005      	movs	r5, r0
    3d08:	0089      	lsls	r1, r1, #2
    3d0a:	0020      	movs	r0, r4
    3d0c:	f000 fa88 	bl	4220 <__divsi3>
    3d10:	1e06      	subs	r6, r0, #0
    3d12:	dd03      	ble.n	3d1c <wait_us+0x20>
    3d14:	f7fd fd4a 	bl	17ac <core_util_are_interrupts_enabled>
    3d18:	2800      	cmp	r0, #0
    3d1a:	d105      	bne.n	3d28 <wait_us+0x2c>
    3d1c:	f7ff f9ce 	bl	30bc <us_ticker_read>
    3d20:	1b40      	subs	r0, r0, r5
    3d22:	42a0      	cmp	r0, r4
    3d24:	d3fa      	bcc.n	3d1c <wait_us+0x20>
    3d26:	bd70      	pop	{r4, r5, r6, pc}
    3d28:	0030      	movs	r0, r6
    3d2a:	f000 f93b 	bl	3fa4 <rtos::Thread::wait(unsigned long)>
    3d2e:	e7f5      	b.n	3d1c <wait_us+0x20>

00003d30 <wait_ms>:
    3d30:	23fa      	movs	r3, #250	; 0xfa
    3d32:	b510      	push	{r4, lr}
    3d34:	009b      	lsls	r3, r3, #2
    3d36:	4358      	muls	r0, r3
    3d38:	f7ff ffe0 	bl	3cfc <wait_us>
    3d3c:	bd10      	pop	{r4, pc}
	...

00003d40 <init_serial()>:
    3d40:	4b08      	ldr	r3, [pc, #32]	; (3d64 <init_serial()+0x24>)
    3d42:	b510      	push	{r4, lr}
    3d44:	681b      	ldr	r3, [r3, #0]
    3d46:	2b00      	cmp	r3, #0
    3d48:	d10a      	bne.n	3d60 <init_serial()+0x20>
    3d4a:	4c07      	ldr	r4, [pc, #28]	; (3d68 <init_serial()+0x28>)
    3d4c:	2108      	movs	r1, #8
    3d4e:	0020      	movs	r0, r4
    3d50:	2204      	movs	r2, #4
    3d52:	f7ff fceb 	bl	372c <serial_init>
    3d56:	2196      	movs	r1, #150	; 0x96
    3d58:	0020      	movs	r0, r4
    3d5a:	0189      	lsls	r1, r1, #6
    3d5c:	f7ff fc24 	bl	35a8 <serial_baud>
    3d60:	bd10      	pop	{r4, pc}
    3d62:	46c0      	nop			; (mov r8, r8)
    3d64:	2000084c 	.word	0x2000084c
    3d68:	200011a8 	.word	0x200011a8

00003d6c <mbed_sdk_init>:
    3d6c:	4770      	bx	lr
	...

00003d70 <_close>:
    3d70:	b510      	push	{r4, lr}
    3d72:	0004      	movs	r4, r0
    3d74:	2802      	cmp	r0, #2
    3d76:	dc01      	bgt.n	3d7c <_close+0xc>
    3d78:	2000      	movs	r0, #0
    3d7a:	bd10      	pop	{r4, pc}
    3d7c:	f002 fc22 	bl	65c4 <__errno>
    3d80:	2309      	movs	r3, #9
    3d82:	2200      	movs	r2, #0
    3d84:	6003      	str	r3, [r0, #0]
    3d86:	3c03      	subs	r4, #3
    3d88:	4b08      	ldr	r3, [pc, #32]	; (3dac <_close+0x3c>)
    3d8a:	00a4      	lsls	r4, r4, #2
    3d8c:	58e0      	ldr	r0, [r4, r3]
    3d8e:	50e2      	str	r2, [r4, r3]
    3d90:	4290      	cmp	r0, r2
    3d92:	d008      	beq.n	3da6 <_close+0x36>
    3d94:	6803      	ldr	r3, [r0, #0]
    3d96:	691b      	ldr	r3, [r3, #16]
    3d98:	4798      	blx	r3
    3d9a:	1e04      	subs	r4, r0, #0
    3d9c:	daec      	bge.n	3d78 <_close+0x8>
    3d9e:	f002 fc11 	bl	65c4 <__errno>
    3da2:	4264      	negs	r4, r4
    3da4:	6004      	str	r4, [r0, #0]
    3da6:	2001      	movs	r0, #1
    3da8:	4240      	negs	r0, r0
    3daa:	e7e6      	b.n	3d7a <_close+0xa>
    3dac:	20000850 	.word	0x20000850

00003db0 <_write>:
    3db0:	b570      	push	{r4, r5, r6, lr}
    3db2:	0006      	movs	r6, r0
    3db4:	000d      	movs	r5, r1
    3db6:	0014      	movs	r4, r2
    3db8:	f002 fc04 	bl	65c4 <__errno>
    3dbc:	2309      	movs	r3, #9
    3dbe:	6003      	str	r3, [r0, #0]
    3dc0:	2e02      	cmp	r6, #2
    3dc2:	dc0e      	bgt.n	3de2 <_write+0x32>
    3dc4:	4b12      	ldr	r3, [pc, #72]	; (3e10 <_write+0x60>)
    3dc6:	681b      	ldr	r3, [r3, #0]
    3dc8:	2b00      	cmp	r3, #0
    3dca:	d101      	bne.n	3dd0 <_write+0x20>
    3dcc:	f7ff ffb8 	bl	3d40 <init_serial()>
    3dd0:	192e      	adds	r6, r5, r4
    3dd2:	42b5      	cmp	r5, r6
    3dd4:	d016      	beq.n	3e04 <_write+0x54>
    3dd6:	7829      	ldrb	r1, [r5, #0]
    3dd8:	480e      	ldr	r0, [pc, #56]	; (3e14 <_write+0x64>)
    3dda:	f7ff fde0 	bl	399e <serial_putc>
    3dde:	3501      	adds	r5, #1
    3de0:	e7f7      	b.n	3dd2 <_write+0x22>
    3de2:	3e03      	subs	r6, #3
    3de4:	4b0c      	ldr	r3, [pc, #48]	; (3e18 <_write+0x68>)
    3de6:	00b6      	lsls	r6, r6, #2
    3de8:	58f0      	ldr	r0, [r6, r3]
    3dea:	2800      	cmp	r0, #0
    3dec:	d00c      	beq.n	3e08 <_write+0x58>
    3dee:	6803      	ldr	r3, [r0, #0]
    3df0:	0022      	movs	r2, r4
    3df2:	68db      	ldr	r3, [r3, #12]
    3df4:	0029      	movs	r1, r5
    3df6:	4798      	blx	r3
    3df8:	1e04      	subs	r4, r0, #0
    3dfa:	da03      	bge.n	3e04 <_write+0x54>
    3dfc:	f002 fbe2 	bl	65c4 <__errno>
    3e00:	4263      	negs	r3, r4
    3e02:	6003      	str	r3, [r0, #0]
    3e04:	0020      	movs	r0, r4
    3e06:	bd70      	pop	{r4, r5, r6, pc}
    3e08:	2401      	movs	r4, #1
    3e0a:	4264      	negs	r4, r4
    3e0c:	e7fa      	b.n	3e04 <_write+0x54>
    3e0e:	46c0      	nop			; (mov r8, r8)
    3e10:	2000084c 	.word	0x2000084c
    3e14:	200011a8 	.word	0x200011a8
    3e18:	20000850 	.word	0x20000850

00003e1c <_read>:
    3e1c:	b570      	push	{r4, r5, r6, lr}
    3e1e:	0004      	movs	r4, r0
    3e20:	000d      	movs	r5, r1
    3e22:	0016      	movs	r6, r2
    3e24:	f002 fbce 	bl	65c4 <__errno>
    3e28:	2309      	movs	r3, #9
    3e2a:	6003      	str	r3, [r0, #0]
    3e2c:	2c02      	cmp	r4, #2
    3e2e:	dc0c      	bgt.n	3e4a <_read+0x2e>
    3e30:	4b10      	ldr	r3, [pc, #64]	; (3e74 <_read+0x58>)
    3e32:	681b      	ldr	r3, [r3, #0]
    3e34:	2b00      	cmp	r3, #0
    3e36:	d101      	bne.n	3e3c <_read+0x20>
    3e38:	f7ff ff82 	bl	3d40 <init_serial()>
    3e3c:	480e      	ldr	r0, [pc, #56]	; (3e78 <_read+0x5c>)
    3e3e:	f7ff fd97 	bl	3970 <serial_getc>
    3e42:	2401      	movs	r4, #1
    3e44:	7028      	strb	r0, [r5, #0]
    3e46:	0020      	movs	r0, r4
    3e48:	bd70      	pop	{r4, r5, r6, pc}
    3e4a:	3c03      	subs	r4, #3
    3e4c:	4b0b      	ldr	r3, [pc, #44]	; (3e7c <_read+0x60>)
    3e4e:	00a4      	lsls	r4, r4, #2
    3e50:	58e0      	ldr	r0, [r4, r3]
    3e52:	2800      	cmp	r0, #0
    3e54:	d00b      	beq.n	3e6e <_read+0x52>
    3e56:	6803      	ldr	r3, [r0, #0]
    3e58:	0032      	movs	r2, r6
    3e5a:	689b      	ldr	r3, [r3, #8]
    3e5c:	0029      	movs	r1, r5
    3e5e:	4798      	blx	r3
    3e60:	1e04      	subs	r4, r0, #0
    3e62:	daf0      	bge.n	3e46 <_read+0x2a>
    3e64:	f002 fbae 	bl	65c4 <__errno>
    3e68:	4263      	negs	r3, r4
    3e6a:	6003      	str	r3, [r0, #0]
    3e6c:	e7eb      	b.n	3e46 <_read+0x2a>
    3e6e:	2401      	movs	r4, #1
    3e70:	4264      	negs	r4, r4
    3e72:	e7e8      	b.n	3e46 <_read+0x2a>
    3e74:	2000084c 	.word	0x2000084c
    3e78:	200011a8 	.word	0x200011a8
    3e7c:	20000850 	.word	0x20000850

00003e80 <_lseek>:
    3e80:	b570      	push	{r4, r5, r6, lr}
    3e82:	0004      	movs	r4, r0
    3e84:	000d      	movs	r5, r1
    3e86:	0016      	movs	r6, r2
    3e88:	f002 fb9c 	bl	65c4 <__errno>
    3e8c:	2309      	movs	r3, #9
    3e8e:	6003      	str	r3, [r0, #0]
    3e90:	2000      	movs	r0, #0
    3e92:	2c02      	cmp	r4, #2
    3e94:	dd0a      	ble.n	3eac <_lseek+0x2c>
    3e96:	3c03      	subs	r4, #3
    3e98:	4b06      	ldr	r3, [pc, #24]	; (3eb4 <_lseek+0x34>)
    3e9a:	00a4      	lsls	r4, r4, #2
    3e9c:	58e0      	ldr	r0, [r4, r3]
    3e9e:	2800      	cmp	r0, #0
    3ea0:	d005      	beq.n	3eae <_lseek+0x2e>
    3ea2:	6803      	ldr	r3, [r0, #0]
    3ea4:	0032      	movs	r2, r6
    3ea6:	69db      	ldr	r3, [r3, #28]
    3ea8:	0029      	movs	r1, r5
    3eaa:	4798      	blx	r3
    3eac:	bd70      	pop	{r4, r5, r6, pc}
    3eae:	2001      	movs	r0, #1
    3eb0:	4240      	negs	r0, r0
    3eb2:	e7fb      	b.n	3eac <_lseek+0x2c>
    3eb4:	20000850 	.word	0x20000850

00003eb8 <software_init_hook>:
    3eb8:	b510      	push	{r4, lr}
    3eba:	f7ff ff57 	bl	3d6c <mbed_sdk_init>
    3ebe:	f7fd fd43 	bl	1948 <software_init_hook_rtos>
    3ec2:	bd10      	pop	{r4, pc}

00003ec4 <mbed_main>:
    3ec4:	4770      	bx	lr

00003ec6 <__wrap_main>:
    3ec6:	b510      	push	{r4, lr}
    3ec8:	f7ff fffc 	bl	3ec4 <mbed_main>
    3ecc:	f7fd f84e 	bl	f6c <main>
    3ed0:	bd10      	pop	{r4, pc}
	...

00003ed4 <_sbrk>:
    3ed4:	490c      	ldr	r1, [pc, #48]	; (3f08 <_sbrk+0x34>)
    3ed6:	b510      	push	{r4, lr}
    3ed8:	680b      	ldr	r3, [r1, #0]
    3eda:	1818      	adds	r0, r3, r0
    3edc:	f3ef 8208 	mrs	r2, MSP
    3ee0:	4290      	cmp	r0, r2
    3ee2:	d305      	bcc.n	3ef0 <_sbrk+0x1c>
    3ee4:	220c      	movs	r2, #12
    3ee6:	2001      	movs	r0, #1
    3ee8:	4b08      	ldr	r3, [pc, #32]	; (3f0c <_sbrk+0x38>)
    3eea:	4240      	negs	r0, r0
    3eec:	601a      	str	r2, [r3, #0]
    3eee:	bd10      	pop	{r4, pc}
    3ef0:	4a07      	ldr	r2, [pc, #28]	; (3f10 <_sbrk+0x3c>)
    3ef2:	6814      	ldr	r4, [r2, #0]
    3ef4:	2c00      	cmp	r4, #0
    3ef6:	d004      	beq.n	3f02 <_sbrk+0x2e>
    3ef8:	4a06      	ldr	r2, [pc, #24]	; (3f14 <_sbrk+0x40>)
    3efa:	6812      	ldr	r2, [r2, #0]
    3efc:	1912      	adds	r2, r2, r4
    3efe:	4290      	cmp	r0, r2
    3f00:	d2f0      	bcs.n	3ee4 <_sbrk+0x10>
    3f02:	6008      	str	r0, [r1, #0]
    3f04:	0018      	movs	r0, r3
    3f06:	e7f2      	b.n	3eee <_sbrk+0x1a>
    3f08:	1ffff0e4 	.word	0x1ffff0e4
    3f0c:	200011b0 	.word	0x200011b0
    3f10:	20000950 	.word	0x20000950
    3f14:	20000954 	.word	0x20000954

00003f18 <_exit>:
    3f18:	b570      	push	{r4, r5, r6, lr}
    3f1a:	4c0a      	ldr	r4, [pc, #40]	; (3f44 <_exit+0x2c>)
    3f1c:	0005      	movs	r5, r0
    3f1e:	6823      	ldr	r3, [r4, #0]
    3f20:	6898      	ldr	r0, [r3, #8]
    3f22:	f002 fc0b 	bl	673c <fflush>
    3f26:	6823      	ldr	r3, [r4, #0]
    3f28:	68d8      	ldr	r0, [r3, #12]
    3f2a:	f002 fc07 	bl	673c <fflush>
    3f2e:	f7fd fc39 	bl	17a4 <mbed_interface_connected>
    3f32:	2800      	cmp	r0, #0
    3f34:	d001      	beq.n	3f3a <_exit+0x22>
    3f36:	f7fd fc6d 	bl	1814 <semihost_exit>
    3f3a:	2d00      	cmp	r5, #0
    3f3c:	d001      	beq.n	3f42 <_exit+0x2a>
    3f3e:	f7fd fc81 	bl	1844 <mbed_die>
    3f42:	e7fe      	b.n	3f42 <_exit+0x2a>
    3f44:	1ffff0e8 	.word	0x1ffff0e8

00003f48 <__aeabi_atexit>:
    3f48:	2001      	movs	r0, #1
    3f4a:	4770      	bx	lr

00003f4c <__wrap_exit>:
    3f4c:	b510      	push	{r4, lr}
    3f4e:	f7ff ffe3 	bl	3f18 <_exit>

00003f52 <__malloc_lock>:
    3f52:	b510      	push	{r4, lr}
    3f54:	f7fd fd06 	bl	1964 <__rtos_malloc_lock>
    3f58:	bd10      	pop	{r4, pc}

00003f5a <__malloc_unlock>:
    3f5a:	b510      	push	{r4, lr}
    3f5c:	f7fd fd0c 	bl	1978 <__rtos_malloc_unlock>
    3f60:	bd10      	pop	{r4, pc}
	...

00003f64 <operator new[](unsigned int)>:
    3f64:	b510      	push	{r4, lr}
    3f66:	f002 fcf9 	bl	695c <malloc>
    3f6a:	1e04      	subs	r4, r0, #0
    3f6c:	d102      	bne.n	3f74 <operator new[](unsigned int)+0x10>
    3f6e:	4802      	ldr	r0, [pc, #8]	; (3f78 <operator new[](unsigned int)+0x14>)
    3f70:	f7fd fc62 	bl	1838 <error>
    3f74:	0020      	movs	r0, r4
    3f76:	bd10      	pop	{r4, pc}
    3f78:	00007994 	.word	0x00007994

00003f7c <operator delete[](void*)>:
    3f7c:	b510      	push	{r4, lr}
    3f7e:	2800      	cmp	r0, #0
    3f80:	d001      	beq.n	3f86 <operator delete[](void*)+0xa>
    3f82:	f002 fcf5 	bl	6970 <free>
    3f86:	bd10      	pop	{r4, pc}

00003f88 <operator delete(void*)>:
    3f88:	b510      	push	{r4, lr}
    3f8a:	f7ff fff7 	bl	3f7c <operator delete[](void*)>
    3f8e:	bd10      	pop	{r4, pc}

00003f90 <thread_terminate_hook>:
    3f90:	4b03      	ldr	r3, [pc, #12]	; (3fa0 <thread_terminate_hook+0x10>)
    3f92:	b510      	push	{r4, lr}
    3f94:	681b      	ldr	r3, [r3, #0]
    3f96:	2b00      	cmp	r3, #0
    3f98:	d000      	beq.n	3f9c <thread_terminate_hook+0xc>
    3f9a:	4798      	blx	r3
    3f9c:	bd10      	pop	{r4, pc}
    3f9e:	46c0      	nop			; (mov r8, r8)
    3fa0:	20000958 	.word	0x20000958

00003fa4 <rtos::Thread::wait(unsigned long)>:
    3fa4:	b510      	push	{r4, lr}
    3fa6:	f7fe f9df 	bl	2368 <osDelay>
    3faa:	bd10      	pop	{r4, pc}

00003fac <rt_set_PSP>:
    3fac:	f380 8809 	msr	PSP, r0
    3fb0:	4770      	bx	lr

00003fb2 <rt_get_PSP>:
    3fb2:	f3ef 8009 	mrs	r0, PSP
    3fb6:	4770      	bx	lr

00003fb8 <os_set_env>:
    3fb8:	4668      	mov	r0, sp
    3fba:	f380 8809 	msr	PSP, r0
    3fbe:	484a      	ldr	r0, [pc, #296]	; (40e8 <OS_Tick_Handler+0xa>)
    3fc0:	7800      	ldrb	r0, [r0, #0]
    3fc2:	07c0      	lsls	r0, r0, #31
    3fc4:	d103      	bne.n	3fce <PrivilegedE>
    3fc6:	2003      	movs	r0, #3
    3fc8:	f380 8814 	msr	CONTROL, r0
    3fcc:	4770      	bx	lr

00003fce <PrivilegedE>:
    3fce:	2002      	movs	r0, #2
    3fd0:	f380 8814 	msr	CONTROL, r0
    3fd4:	4770      	bx	lr

00003fd6 <_alloc_box>:
    3fd6:	4b45      	ldr	r3, [pc, #276]	; (40ec <OS_Tick_Handler+0xe>)
    3fd8:	469c      	mov	r12, r3
    3fda:	f3ef 8305 	mrs	r3, IPSR
    3fde:	061b      	lsls	r3, r3, #24
    3fe0:	d105      	bne.n	3fee <PrivilegedA>
    3fe2:	f3ef 8314 	mrs	r3, CONTROL
    3fe6:	07db      	lsls	r3, r3, #31
    3fe8:	d001      	beq.n	3fee <PrivilegedA>
    3fea:	df00      	svc	0
    3fec:	4770      	bx	lr

00003fee <PrivilegedA>:
    3fee:	4760      	bx	r12

00003ff0 <_free_box>:
    3ff0:	4b3f      	ldr	r3, [pc, #252]	; (40f0 <OS_Tick_Handler+0x12>)
    3ff2:	469c      	mov	r12, r3
    3ff4:	f3ef 8305 	mrs	r3, IPSR
    3ff8:	061b      	lsls	r3, r3, #24
    3ffa:	d105      	bne.n	4008 <PrivilegedF>
    3ffc:	f3ef 8314 	mrs	r3, CONTROL
    4000:	07db      	lsls	r3, r3, #31
    4002:	d001      	beq.n	4008 <PrivilegedF>
    4004:	df00      	svc	0
    4006:	4770      	bx	lr

00004008 <PrivilegedF>:
    4008:	4760      	bx	r12

0000400a <SVC_Handler>:
    400a:	f3ef 8009 	mrs	r0, PSP
    400e:	6981      	ldr	r1, [r0, #24]
    4010:	3902      	subs	r1, #2
    4012:	7809      	ldrb	r1, [r1, #0]
    4014:	2900      	cmp	r1, #0
    4016:	d12b      	bne.n	4070 <SVC_User>
    4018:	46a6      	mov	lr, r4
    401a:	c81f      	ldmia	r0, {r0, r1, r2, r3, r4}
    401c:	46a4      	mov	r12, r4
    401e:	4674      	mov	r4, lr
    4020:	47e0      	blx	r12
    4022:	f3ef 8309 	mrs	r3, PSP
    4026:	c307      	stmia	r3!, {r0, r1, r2}
    4028:	4b32      	ldr	r3, [pc, #200]	; (40f4 <OS_Tick_Handler+0x16>)
    402a:	cb06      	ldmia	r3!, {r1, r2}
    402c:	4291      	cmp	r1, r2
    402e:	d01c      	beq.n	406a <SVC_Exit>
    4030:	3b08      	subs	r3, #8
    4032:	2900      	cmp	r1, #0
    4034:	d00d      	beq.n	4052 <SVC_Next>
    4036:	f3ef 8009 	mrs	r0, PSP
    403a:	3820      	subs	r0, #32
    403c:	62c8      	str	r0, [r1, #44]	; 0x2c
    403e:	c0f0      	stmia	r0!, {r4, r5, r6, r7}
    4040:	4644      	mov	r4, r8
    4042:	464d      	mov	r5, r9
    4044:	4656      	mov	r6, r10
    4046:	465f      	mov	r7, r11
    4048:	c0f0      	stmia	r0!, {r4, r5, r6, r7}
    404a:	b40c      	push	{r2, r3}
    404c:	f7fd fe2e 	bl	1cac <rt_stk_check>
    4050:	bc0c      	pop	{r2, r3}

00004052 <SVC_Next>:
    4052:	601a      	str	r2, [r3, #0]
    4054:	6ad0      	ldr	r0, [r2, #44]	; 0x2c
    4056:	3010      	adds	r0, #16
    4058:	c8f0      	ldmia	r0!, {r4, r5, r6, r7}
    405a:	46a0      	mov	r8, r4
    405c:	46a9      	mov	r9, r5
    405e:	46b2      	mov	r10, r6
    4060:	46bb      	mov	r11, r7
    4062:	f380 8809 	msr	PSP, r0
    4066:	3820      	subs	r0, #32
    4068:	c8f0      	ldmia	r0!, {r4, r5, r6, r7}

0000406a <SVC_Exit>:
    406a:	2002      	movs	r0, #2
    406c:	43c0      	mvns	r0, r0
    406e:	4700      	bx	r0

00004070 <SVC_User>:
    4070:	b510      	push	{r4, lr}
    4072:	4a21      	ldr	r2, [pc, #132]	; (40f8 <OS_Tick_Handler+0x1a>)
    4074:	6812      	ldr	r2, [r2, #0]
    4076:	4291      	cmp	r1, r2
    4078:	d809      	bhi.n	408e <SVC_Done>
    407a:	4c20      	ldr	r4, [pc, #128]	; (40fc <OS_Tick_Handler+0x1e>)
    407c:	0089      	lsls	r1, r1, #2
    407e:	5864      	ldr	r4, [r4, r1]
    4080:	46a6      	mov	lr, r4
    4082:	c81f      	ldmia	r0, {r0, r1, r2, r3, r4}
    4084:	46a4      	mov	r12, r4
    4086:	47f0      	blx	lr
    4088:	f3ef 8409 	mrs	r4, PSP
    408c:	c40f      	stmia	r4!, {r0, r1, r2, r3}

0000408e <SVC_Done>:
    408e:	bd10      	pop	{r4, pc}

00004090 <PendSV_Handler>:
    4090:	f7fd fd90 	bl	1bb4 <rt_pop_req>

00004094 <Sys_Switch>:
    4094:	4b17      	ldr	r3, [pc, #92]	; (40f4 <OS_Tick_Handler+0x16>)
    4096:	cb06      	ldmia	r3!, {r1, r2}
    4098:	4291      	cmp	r1, r2
    409a:	d01a      	beq.n	40d2 <Sys_Exit>
    409c:	3b08      	subs	r3, #8
    409e:	f3ef 8009 	mrs	r0, PSP
    40a2:	3820      	subs	r0, #32
    40a4:	62c8      	str	r0, [r1, #44]	; 0x2c
    40a6:	c0f0      	stmia	r0!, {r4, r5, r6, r7}
    40a8:	4644      	mov	r4, r8
    40aa:	464d      	mov	r5, r9
    40ac:	4656      	mov	r6, r10
    40ae:	465f      	mov	r7, r11
    40b0:	c0f0      	stmia	r0!, {r4, r5, r6, r7}
    40b2:	b40c      	push	{r2, r3}
    40b4:	f7fd fdfa 	bl	1cac <rt_stk_check>
    40b8:	bc0c      	pop	{r2, r3}
    40ba:	601a      	str	r2, [r3, #0]
    40bc:	6ad0      	ldr	r0, [r2, #44]	; 0x2c
    40be:	3010      	adds	r0, #16
    40c0:	c8f0      	ldmia	r0!, {r4, r5, r6, r7}
    40c2:	46a0      	mov	r8, r4
    40c4:	46a9      	mov	r9, r5
    40c6:	46b2      	mov	r10, r6
    40c8:	46bb      	mov	r11, r7
    40ca:	f380 8809 	msr	PSP, r0
    40ce:	3820      	subs	r0, #32
    40d0:	c8f0      	ldmia	r0!, {r4, r5, r6, r7}

000040d2 <Sys_Exit>:
    40d2:	2002      	movs	r0, #2
    40d4:	43c0      	mvns	r0, r0
    40d6:	4700      	bx	r0

000040d8 <SysTick_Handler>:
    40d8:	f7fd fdca 	bl	1c70 <rt_systick>
    40dc:	e7da      	b.n	4094 <Sys_Switch>

000040de <OS_Tick_Handler>:
    40de:	f7fd fdc5 	bl	1c6c <os_tick_irqack>
    40e2:	f7fd fdc5 	bl	1c70 <rt_systick>
    40e6:	e7d5      	b.n	4094 <Sys_Switch>
    40e8:	00007686 	.word	0x00007686
    40ec:	00001dc5 	.word	0x00001dc5
    40f0:	00001de3 	.word	0x00001de3
    40f4:	2000115c 	.word	0x2000115c
    40f8:	00000000 	.word	0x00000000
    40fc:	fffffffc 	.word	0xfffffffc
    4100:	e7fe      	b.n	4100 <OS_Tick_Handler+0x22>

00004102 <HardFault_Handler>:
    4102:	e7fe      	b.n	4102 <HardFault_Handler>
    4104:	e7fe      	b.n	4104 <HardFault_Handler+0x2>
    4106:	e7fe      	b.n	4106 <HardFault_Handler+0x4>
    4108:	e7fe      	b.n	4108 <HardFault_Handler+0x6>

0000410a <ADC0_IRQHandler>:
    410a:	e7fe      	b.n	410a <ADC0_IRQHandler>

0000410c <__udivsi3>:
    410c:	2200      	movs	r2, #0
    410e:	0843      	lsrs	r3, r0, #1
    4110:	428b      	cmp	r3, r1
    4112:	d374      	bcc.n	41fe <__udivsi3+0xf2>
    4114:	0903      	lsrs	r3, r0, #4
    4116:	428b      	cmp	r3, r1
    4118:	d35f      	bcc.n	41da <__udivsi3+0xce>
    411a:	0a03      	lsrs	r3, r0, #8
    411c:	428b      	cmp	r3, r1
    411e:	d344      	bcc.n	41aa <__udivsi3+0x9e>
    4120:	0b03      	lsrs	r3, r0, #12
    4122:	428b      	cmp	r3, r1
    4124:	d328      	bcc.n	4178 <__udivsi3+0x6c>
    4126:	0c03      	lsrs	r3, r0, #16
    4128:	428b      	cmp	r3, r1
    412a:	d30d      	bcc.n	4148 <__udivsi3+0x3c>
    412c:	22ff      	movs	r2, #255	; 0xff
    412e:	0209      	lsls	r1, r1, #8
    4130:	ba12      	rev	r2, r2
    4132:	0c03      	lsrs	r3, r0, #16
    4134:	428b      	cmp	r3, r1
    4136:	d302      	bcc.n	413e <__udivsi3+0x32>
    4138:	1212      	asrs	r2, r2, #8
    413a:	0209      	lsls	r1, r1, #8
    413c:	d065      	beq.n	420a <__udivsi3+0xfe>
    413e:	0b03      	lsrs	r3, r0, #12
    4140:	428b      	cmp	r3, r1
    4142:	d319      	bcc.n	4178 <__udivsi3+0x6c>
    4144:	e000      	b.n	4148 <__udivsi3+0x3c>
    4146:	0a09      	lsrs	r1, r1, #8
    4148:	0bc3      	lsrs	r3, r0, #15
    414a:	428b      	cmp	r3, r1
    414c:	d301      	bcc.n	4152 <__udivsi3+0x46>
    414e:	03cb      	lsls	r3, r1, #15
    4150:	1ac0      	subs	r0, r0, r3
    4152:	4152      	adcs	r2, r2
    4154:	0b83      	lsrs	r3, r0, #14
    4156:	428b      	cmp	r3, r1
    4158:	d301      	bcc.n	415e <__udivsi3+0x52>
    415a:	038b      	lsls	r3, r1, #14
    415c:	1ac0      	subs	r0, r0, r3
    415e:	4152      	adcs	r2, r2
    4160:	0b43      	lsrs	r3, r0, #13
    4162:	428b      	cmp	r3, r1
    4164:	d301      	bcc.n	416a <__udivsi3+0x5e>
    4166:	034b      	lsls	r3, r1, #13
    4168:	1ac0      	subs	r0, r0, r3
    416a:	4152      	adcs	r2, r2
    416c:	0b03      	lsrs	r3, r0, #12
    416e:	428b      	cmp	r3, r1
    4170:	d301      	bcc.n	4176 <__udivsi3+0x6a>
    4172:	030b      	lsls	r3, r1, #12
    4174:	1ac0      	subs	r0, r0, r3
    4176:	4152      	adcs	r2, r2
    4178:	0ac3      	lsrs	r3, r0, #11
    417a:	428b      	cmp	r3, r1
    417c:	d301      	bcc.n	4182 <__udivsi3+0x76>
    417e:	02cb      	lsls	r3, r1, #11
    4180:	1ac0      	subs	r0, r0, r3
    4182:	4152      	adcs	r2, r2
    4184:	0a83      	lsrs	r3, r0, #10
    4186:	428b      	cmp	r3, r1
    4188:	d301      	bcc.n	418e <__udivsi3+0x82>
    418a:	028b      	lsls	r3, r1, #10
    418c:	1ac0      	subs	r0, r0, r3
    418e:	4152      	adcs	r2, r2
    4190:	0a43      	lsrs	r3, r0, #9
    4192:	428b      	cmp	r3, r1
    4194:	d301      	bcc.n	419a <__udivsi3+0x8e>
    4196:	024b      	lsls	r3, r1, #9
    4198:	1ac0      	subs	r0, r0, r3
    419a:	4152      	adcs	r2, r2
    419c:	0a03      	lsrs	r3, r0, #8
    419e:	428b      	cmp	r3, r1
    41a0:	d301      	bcc.n	41a6 <__udivsi3+0x9a>
    41a2:	020b      	lsls	r3, r1, #8
    41a4:	1ac0      	subs	r0, r0, r3
    41a6:	4152      	adcs	r2, r2
    41a8:	d2cd      	bcs.n	4146 <__udivsi3+0x3a>
    41aa:	09c3      	lsrs	r3, r0, #7
    41ac:	428b      	cmp	r3, r1
    41ae:	d301      	bcc.n	41b4 <__udivsi3+0xa8>
    41b0:	01cb      	lsls	r3, r1, #7
    41b2:	1ac0      	subs	r0, r0, r3
    41b4:	4152      	adcs	r2, r2
    41b6:	0983      	lsrs	r3, r0, #6
    41b8:	428b      	cmp	r3, r1
    41ba:	d301      	bcc.n	41c0 <__udivsi3+0xb4>
    41bc:	018b      	lsls	r3, r1, #6
    41be:	1ac0      	subs	r0, r0, r3
    41c0:	4152      	adcs	r2, r2
    41c2:	0943      	lsrs	r3, r0, #5
    41c4:	428b      	cmp	r3, r1
    41c6:	d301      	bcc.n	41cc <__udivsi3+0xc0>
    41c8:	014b      	lsls	r3, r1, #5
    41ca:	1ac0      	subs	r0, r0, r3
    41cc:	4152      	adcs	r2, r2
    41ce:	0903      	lsrs	r3, r0, #4
    41d0:	428b      	cmp	r3, r1
    41d2:	d301      	bcc.n	41d8 <__udivsi3+0xcc>
    41d4:	010b      	lsls	r3, r1, #4
    41d6:	1ac0      	subs	r0, r0, r3
    41d8:	4152      	adcs	r2, r2
    41da:	08c3      	lsrs	r3, r0, #3
    41dc:	428b      	cmp	r3, r1
    41de:	d301      	bcc.n	41e4 <__udivsi3+0xd8>
    41e0:	00cb      	lsls	r3, r1, #3
    41e2:	1ac0      	subs	r0, r0, r3
    41e4:	4152      	adcs	r2, r2
    41e6:	0883      	lsrs	r3, r0, #2
    41e8:	428b      	cmp	r3, r1
    41ea:	d301      	bcc.n	41f0 <__udivsi3+0xe4>
    41ec:	008b      	lsls	r3, r1, #2
    41ee:	1ac0      	subs	r0, r0, r3
    41f0:	4152      	adcs	r2, r2
    41f2:	0843      	lsrs	r3, r0, #1
    41f4:	428b      	cmp	r3, r1
    41f6:	d301      	bcc.n	41fc <__udivsi3+0xf0>
    41f8:	004b      	lsls	r3, r1, #1
    41fa:	1ac0      	subs	r0, r0, r3
    41fc:	4152      	adcs	r2, r2
    41fe:	1a41      	subs	r1, r0, r1
    4200:	d200      	bcs.n	4204 <__udivsi3+0xf8>
    4202:	4601      	mov	r1, r0
    4204:	4152      	adcs	r2, r2
    4206:	4610      	mov	r0, r2
    4208:	4770      	bx	lr
    420a:	e7ff      	b.n	420c <__udivsi3+0x100>
    420c:	b501      	push	{r0, lr}
    420e:	2000      	movs	r0, #0
    4210:	f000 f8f0 	bl	43f4 <__aeabi_idiv0>
    4214:	bd02      	pop	{r1, pc}
    4216:	46c0      	nop			; (mov r8, r8)

00004218 <__aeabi_uidivmod>:
    4218:	2900      	cmp	r1, #0
    421a:	d0f7      	beq.n	420c <__udivsi3+0x100>
    421c:	e776      	b.n	410c <__udivsi3>
    421e:	4770      	bx	lr

00004220 <__divsi3>:
    4220:	4603      	mov	r3, r0
    4222:	430b      	orrs	r3, r1
    4224:	d47f      	bmi.n	4326 <__divsi3+0x106>
    4226:	2200      	movs	r2, #0
    4228:	0843      	lsrs	r3, r0, #1
    422a:	428b      	cmp	r3, r1
    422c:	d374      	bcc.n	4318 <__divsi3+0xf8>
    422e:	0903      	lsrs	r3, r0, #4
    4230:	428b      	cmp	r3, r1
    4232:	d35f      	bcc.n	42f4 <__divsi3+0xd4>
    4234:	0a03      	lsrs	r3, r0, #8
    4236:	428b      	cmp	r3, r1
    4238:	d344      	bcc.n	42c4 <__divsi3+0xa4>
    423a:	0b03      	lsrs	r3, r0, #12
    423c:	428b      	cmp	r3, r1
    423e:	d328      	bcc.n	4292 <__divsi3+0x72>
    4240:	0c03      	lsrs	r3, r0, #16
    4242:	428b      	cmp	r3, r1
    4244:	d30d      	bcc.n	4262 <__divsi3+0x42>
    4246:	22ff      	movs	r2, #255	; 0xff
    4248:	0209      	lsls	r1, r1, #8
    424a:	ba12      	rev	r2, r2
    424c:	0c03      	lsrs	r3, r0, #16
    424e:	428b      	cmp	r3, r1
    4250:	d302      	bcc.n	4258 <__divsi3+0x38>
    4252:	1212      	asrs	r2, r2, #8
    4254:	0209      	lsls	r1, r1, #8
    4256:	d065      	beq.n	4324 <__divsi3+0x104>
    4258:	0b03      	lsrs	r3, r0, #12
    425a:	428b      	cmp	r3, r1
    425c:	d319      	bcc.n	4292 <__divsi3+0x72>
    425e:	e000      	b.n	4262 <__divsi3+0x42>
    4260:	0a09      	lsrs	r1, r1, #8
    4262:	0bc3      	lsrs	r3, r0, #15
    4264:	428b      	cmp	r3, r1
    4266:	d301      	bcc.n	426c <__divsi3+0x4c>
    4268:	03cb      	lsls	r3, r1, #15
    426a:	1ac0      	subs	r0, r0, r3
    426c:	4152      	adcs	r2, r2
    426e:	0b83      	lsrs	r3, r0, #14
    4270:	428b      	cmp	r3, r1
    4272:	d301      	bcc.n	4278 <__divsi3+0x58>
    4274:	038b      	lsls	r3, r1, #14
    4276:	1ac0      	subs	r0, r0, r3
    4278:	4152      	adcs	r2, r2
    427a:	0b43      	lsrs	r3, r0, #13
    427c:	428b      	cmp	r3, r1
    427e:	d301      	bcc.n	4284 <__divsi3+0x64>
    4280:	034b      	lsls	r3, r1, #13
    4282:	1ac0      	subs	r0, r0, r3
    4284:	4152      	adcs	r2, r2
    4286:	0b03      	lsrs	r3, r0, #12
    4288:	428b      	cmp	r3, r1
    428a:	d301      	bcc.n	4290 <__divsi3+0x70>
    428c:	030b      	lsls	r3, r1, #12
    428e:	1ac0      	subs	r0, r0, r3
    4290:	4152      	adcs	r2, r2
    4292:	0ac3      	lsrs	r3, r0, #11
    4294:	428b      	cmp	r3, r1
    4296:	d301      	bcc.n	429c <__divsi3+0x7c>
    4298:	02cb      	lsls	r3, r1, #11
    429a:	1ac0      	subs	r0, r0, r3
    429c:	4152      	adcs	r2, r2
    429e:	0a83      	lsrs	r3, r0, #10
    42a0:	428b      	cmp	r3, r1
    42a2:	d301      	bcc.n	42a8 <__divsi3+0x88>
    42a4:	028b      	lsls	r3, r1, #10
    42a6:	1ac0      	subs	r0, r0, r3
    42a8:	4152      	adcs	r2, r2
    42aa:	0a43      	lsrs	r3, r0, #9
    42ac:	428b      	cmp	r3, r1
    42ae:	d301      	bcc.n	42b4 <__divsi3+0x94>
    42b0:	024b      	lsls	r3, r1, #9
    42b2:	1ac0      	subs	r0, r0, r3
    42b4:	4152      	adcs	r2, r2
    42b6:	0a03      	lsrs	r3, r0, #8
    42b8:	428b      	cmp	r3, r1
    42ba:	d301      	bcc.n	42c0 <__divsi3+0xa0>
    42bc:	020b      	lsls	r3, r1, #8
    42be:	1ac0      	subs	r0, r0, r3
    42c0:	4152      	adcs	r2, r2
    42c2:	d2cd      	bcs.n	4260 <__divsi3+0x40>
    42c4:	09c3      	lsrs	r3, r0, #7
    42c6:	428b      	cmp	r3, r1
    42c8:	d301      	bcc.n	42ce <__divsi3+0xae>
    42ca:	01cb      	lsls	r3, r1, #7
    42cc:	1ac0      	subs	r0, r0, r3
    42ce:	4152      	adcs	r2, r2
    42d0:	0983      	lsrs	r3, r0, #6
    42d2:	428b      	cmp	r3, r1
    42d4:	d301      	bcc.n	42da <__divsi3+0xba>
    42d6:	018b      	lsls	r3, r1, #6
    42d8:	1ac0      	subs	r0, r0, r3
    42da:	4152      	adcs	r2, r2
    42dc:	0943      	lsrs	r3, r0, #5
    42de:	428b      	cmp	r3, r1
    42e0:	d301      	bcc.n	42e6 <__divsi3+0xc6>
    42e2:	014b      	lsls	r3, r1, #5
    42e4:	1ac0      	subs	r0, r0, r3
    42e6:	4152      	adcs	r2, r2
    42e8:	0903      	lsrs	r3, r0, #4
    42ea:	428b      	cmp	r3, r1
    42ec:	d301      	bcc.n	42f2 <__divsi3+0xd2>
    42ee:	010b      	lsls	r3, r1, #4
    42f0:	1ac0      	subs	r0, r0, r3
    42f2:	4152      	adcs	r2, r2
    42f4:	08c3      	lsrs	r3, r0, #3
    42f6:	428b      	cmp	r3, r1
    42f8:	d301      	bcc.n	42fe <__divsi3+0xde>
    42fa:	00cb      	lsls	r3, r1, #3
    42fc:	1ac0      	subs	r0, r0, r3
    42fe:	4152      	adcs	r2, r2
    4300:	0883      	lsrs	r3, r0, #2
    4302:	428b      	cmp	r3, r1
    4304:	d301      	bcc.n	430a <__divsi3+0xea>
    4306:	008b      	lsls	r3, r1, #2
    4308:	1ac0      	subs	r0, r0, r3
    430a:	4152      	adcs	r2, r2
    430c:	0843      	lsrs	r3, r0, #1
    430e:	428b      	cmp	r3, r1
    4310:	d301      	bcc.n	4316 <__divsi3+0xf6>
    4312:	004b      	lsls	r3, r1, #1
    4314:	1ac0      	subs	r0, r0, r3
    4316:	4152      	adcs	r2, r2
    4318:	1a41      	subs	r1, r0, r1
    431a:	d200      	bcs.n	431e <__divsi3+0xfe>
    431c:	4601      	mov	r1, r0
    431e:	4152      	adcs	r2, r2
    4320:	4610      	mov	r0, r2
    4322:	4770      	bx	lr
    4324:	e05d      	b.n	43e2 <__divsi3+0x1c2>
    4326:	0fca      	lsrs	r2, r1, #31
    4328:	d000      	beq.n	432c <__divsi3+0x10c>
    432a:	4249      	negs	r1, r1
    432c:	1003      	asrs	r3, r0, #32
    432e:	d300      	bcc.n	4332 <__divsi3+0x112>
    4330:	4240      	negs	r0, r0
    4332:	4053      	eors	r3, r2
    4334:	2200      	movs	r2, #0
    4336:	469c      	mov	r12, r3
    4338:	0903      	lsrs	r3, r0, #4
    433a:	428b      	cmp	r3, r1
    433c:	d32d      	bcc.n	439a <__divsi3+0x17a>
    433e:	0a03      	lsrs	r3, r0, #8
    4340:	428b      	cmp	r3, r1
    4342:	d312      	bcc.n	436a <__divsi3+0x14a>
    4344:	22fc      	movs	r2, #252	; 0xfc
    4346:	0189      	lsls	r1, r1, #6
    4348:	ba12      	rev	r2, r2
    434a:	0a03      	lsrs	r3, r0, #8
    434c:	428b      	cmp	r3, r1
    434e:	d30c      	bcc.n	436a <__divsi3+0x14a>
    4350:	0189      	lsls	r1, r1, #6
    4352:	1192      	asrs	r2, r2, #6
    4354:	428b      	cmp	r3, r1
    4356:	d308      	bcc.n	436a <__divsi3+0x14a>
    4358:	0189      	lsls	r1, r1, #6
    435a:	1192      	asrs	r2, r2, #6
    435c:	428b      	cmp	r3, r1
    435e:	d304      	bcc.n	436a <__divsi3+0x14a>
    4360:	0189      	lsls	r1, r1, #6
    4362:	d03a      	beq.n	43da <__divsi3+0x1ba>
    4364:	1192      	asrs	r2, r2, #6
    4366:	e000      	b.n	436a <__divsi3+0x14a>
    4368:	0989      	lsrs	r1, r1, #6
    436a:	09c3      	lsrs	r3, r0, #7
    436c:	428b      	cmp	r3, r1
    436e:	d301      	bcc.n	4374 <__divsi3+0x154>
    4370:	01cb      	lsls	r3, r1, #7
    4372:	1ac0      	subs	r0, r0, r3
    4374:	4152      	adcs	r2, r2
    4376:	0983      	lsrs	r3, r0, #6
    4378:	428b      	cmp	r3, r1
    437a:	d301      	bcc.n	4380 <__divsi3+0x160>
    437c:	018b      	lsls	r3, r1, #6
    437e:	1ac0      	subs	r0, r0, r3
    4380:	4152      	adcs	r2, r2
    4382:	0943      	lsrs	r3, r0, #5
    4384:	428b      	cmp	r3, r1
    4386:	d301      	bcc.n	438c <__divsi3+0x16c>
    4388:	014b      	lsls	r3, r1, #5
    438a:	1ac0      	subs	r0, r0, r3
    438c:	4152      	adcs	r2, r2
    438e:	0903      	lsrs	r3, r0, #4
    4390:	428b      	cmp	r3, r1
    4392:	d301      	bcc.n	4398 <__divsi3+0x178>
    4394:	010b      	lsls	r3, r1, #4
    4396:	1ac0      	subs	r0, r0, r3
    4398:	4152      	adcs	r2, r2
    439a:	08c3      	lsrs	r3, r0, #3
    439c:	428b      	cmp	r3, r1
    439e:	d301      	bcc.n	43a4 <__divsi3+0x184>
    43a0:	00cb      	lsls	r3, r1, #3
    43a2:	1ac0      	subs	r0, r0, r3
    43a4:	4152      	adcs	r2, r2
    43a6:	0883      	lsrs	r3, r0, #2
    43a8:	428b      	cmp	r3, r1
    43aa:	d301      	bcc.n	43b0 <__divsi3+0x190>
    43ac:	008b      	lsls	r3, r1, #2
    43ae:	1ac0      	subs	r0, r0, r3
    43b0:	4152      	adcs	r2, r2
    43b2:	d2d9      	bcs.n	4368 <__divsi3+0x148>
    43b4:	0843      	lsrs	r3, r0, #1
    43b6:	428b      	cmp	r3, r1
    43b8:	d301      	bcc.n	43be <__divsi3+0x19e>
    43ba:	004b      	lsls	r3, r1, #1
    43bc:	1ac0      	subs	r0, r0, r3
    43be:	4152      	adcs	r2, r2
    43c0:	1a41      	subs	r1, r0, r1
    43c2:	d200      	bcs.n	43c6 <__divsi3+0x1a6>
    43c4:	4601      	mov	r1, r0
    43c6:	4663      	mov	r3, r12
    43c8:	4152      	adcs	r2, r2
    43ca:	105b      	asrs	r3, r3, #1
    43cc:	4610      	mov	r0, r2
    43ce:	d301      	bcc.n	43d4 <__divsi3+0x1b4>
    43d0:	4240      	negs	r0, r0
    43d2:	2b00      	cmp	r3, #0
    43d4:	d500      	bpl.n	43d8 <__divsi3+0x1b8>
    43d6:	4249      	negs	r1, r1
    43d8:	4770      	bx	lr
    43da:	4663      	mov	r3, r12
    43dc:	105b      	asrs	r3, r3, #1
    43de:	d300      	bcc.n	43e2 <__divsi3+0x1c2>
    43e0:	4240      	negs	r0, r0
    43e2:	b501      	push	{r0, lr}
    43e4:	2000      	movs	r0, #0
    43e6:	f000 f805 	bl	43f4 <__aeabi_idiv0>
    43ea:	bd02      	pop	{r1, pc}

000043ec <__aeabi_idivmod>:
    43ec:	2900      	cmp	r1, #0
    43ee:	d0f8      	beq.n	43e2 <__divsi3+0x1c2>
    43f0:	e716      	b.n	4220 <__divsi3>
    43f2:	4770      	bx	lr

000043f4 <__aeabi_idiv0>:
    43f4:	4770      	bx	lr
    43f6:	46c0      	nop			; (mov r8, r8)

000043f8 <__aeabi_cfrcmple>:
    43f8:	4684      	mov	r12, r0
    43fa:	1c08      	adds	r0, r1, #0
    43fc:	4661      	mov	r1, r12
    43fe:	e7ff      	b.n	4400 <__aeabi_cfcmpeq>

00004400 <__aeabi_cfcmpeq>:
    4400:	b51f      	push	{r0, r1, r2, r3, r4, lr}
    4402:	f000 fb8b 	bl	4b1c <__lesf2>
    4406:	2800      	cmp	r0, #0
    4408:	d401      	bmi.n	440e <__aeabi_cfcmpeq+0xe>
    440a:	2100      	movs	r1, #0
    440c:	42c8      	cmn	r0, r1
    440e:	bd1f      	pop	{r0, r1, r2, r3, r4, pc}

00004410 <__aeabi_fcmpeq>:
    4410:	b510      	push	{r4, lr}
    4412:	f000 fb1d 	bl	4a50 <__eqsf2>
    4416:	4240      	negs	r0, r0
    4418:	3001      	adds	r0, #1
    441a:	bd10      	pop	{r4, pc}

0000441c <__aeabi_fcmplt>:
    441c:	b510      	push	{r4, lr}
    441e:	f000 fb7d 	bl	4b1c <__lesf2>
    4422:	2800      	cmp	r0, #0
    4424:	db01      	blt.n	442a <__aeabi_fcmplt+0xe>
    4426:	2000      	movs	r0, #0
    4428:	bd10      	pop	{r4, pc}
    442a:	2001      	movs	r0, #1
    442c:	bd10      	pop	{r4, pc}
    442e:	46c0      	nop			; (mov r8, r8)

00004430 <__aeabi_fcmple>:
    4430:	b510      	push	{r4, lr}
    4432:	f000 fb73 	bl	4b1c <__lesf2>
    4436:	2800      	cmp	r0, #0
    4438:	dd01      	ble.n	443e <__aeabi_fcmple+0xe>
    443a:	2000      	movs	r0, #0
    443c:	bd10      	pop	{r4, pc}
    443e:	2001      	movs	r0, #1
    4440:	bd10      	pop	{r4, pc}
    4442:	46c0      	nop			; (mov r8, r8)

00004444 <__aeabi_fcmpgt>:
    4444:	b510      	push	{r4, lr}
    4446:	f000 fb29 	bl	4a9c <__gesf2>
    444a:	2800      	cmp	r0, #0
    444c:	dc01      	bgt.n	4452 <__aeabi_fcmpgt+0xe>
    444e:	2000      	movs	r0, #0
    4450:	bd10      	pop	{r4, pc}
    4452:	2001      	movs	r0, #1
    4454:	bd10      	pop	{r4, pc}
    4456:	46c0      	nop			; (mov r8, r8)

00004458 <__aeabi_fcmpge>:
    4458:	b510      	push	{r4, lr}
    445a:	f000 fb1f 	bl	4a9c <__gesf2>
    445e:	2800      	cmp	r0, #0
    4460:	da01      	bge.n	4466 <__aeabi_fcmpge+0xe>
    4462:	2000      	movs	r0, #0
    4464:	bd10      	pop	{r4, pc}
    4466:	2001      	movs	r0, #1
    4468:	bd10      	pop	{r4, pc}
    446a:	46c0      	nop			; (mov r8, r8)

0000446c <__aeabi_f2uiz>:
    446c:	219e      	movs	r1, #158	; 0x9e
    446e:	b510      	push	{r4, lr}
    4470:	05c9      	lsls	r1, r1, #23
    4472:	1c04      	adds	r4, r0, #0
    4474:	f7ff fff0 	bl	4458 <__aeabi_fcmpge>
    4478:	2800      	cmp	r0, #0
    447a:	d103      	bne.n	4484 <__aeabi_f2uiz+0x18>
    447c:	1c20      	adds	r0, r4, #0
    447e:	f000 fe4b 	bl	5118 <__aeabi_f2iz>
    4482:	bd10      	pop	{r4, pc}
    4484:	219e      	movs	r1, #158	; 0x9e
    4486:	1c20      	adds	r0, r4, #0
    4488:	05c9      	lsls	r1, r1, #23
    448a:	f000 fca9 	bl	4de0 <__aeabi_fsub>
    448e:	f000 fe43 	bl	5118 <__aeabi_f2iz>
    4492:	2380      	movs	r3, #128	; 0x80
    4494:	061b      	lsls	r3, r3, #24
    4496:	469c      	mov	r12, r3
    4498:	4460      	add	r0, r12
    449a:	e7f2      	b.n	4482 <__aeabi_f2uiz+0x16>

0000449c <__aeabi_fadd>:
    449c:	b5f0      	push	{r4, r5, r6, r7, lr}
    449e:	46c6      	mov	lr, r8
    44a0:	024e      	lsls	r6, r1, #9
    44a2:	0247      	lsls	r7, r0, #9
    44a4:	0a76      	lsrs	r6, r6, #9
    44a6:	0a7b      	lsrs	r3, r7, #9
    44a8:	0044      	lsls	r4, r0, #1
    44aa:	0fc5      	lsrs	r5, r0, #31
    44ac:	00f7      	lsls	r7, r6, #3
    44ae:	0048      	lsls	r0, r1, #1
    44b0:	4698      	mov	r8, r3
    44b2:	b500      	push	{lr}
    44b4:	0e24      	lsrs	r4, r4, #24
    44b6:	002a      	movs	r2, r5
    44b8:	00db      	lsls	r3, r3, #3
    44ba:	0e00      	lsrs	r0, r0, #24
    44bc:	0fc9      	lsrs	r1, r1, #31
    44be:	46bc      	mov	r12, r7
    44c0:	428d      	cmp	r5, r1
    44c2:	d067      	beq.n	4594 <__aeabi_fadd+0xf8>
    44c4:	1a22      	subs	r2, r4, r0
    44c6:	2a00      	cmp	r2, #0
    44c8:	dc00      	bgt.n	44cc <__aeabi_fadd+0x30>
    44ca:	e0a5      	b.n	4618 <__aeabi_fadd+0x17c>
    44cc:	2800      	cmp	r0, #0
    44ce:	d13a      	bne.n	4546 <__aeabi_fadd+0xaa>
    44d0:	2f00      	cmp	r7, #0
    44d2:	d100      	bne.n	44d6 <__aeabi_fadd+0x3a>
    44d4:	e093      	b.n	45fe <__aeabi_fadd+0x162>
    44d6:	1e51      	subs	r1, r2, #1
    44d8:	2900      	cmp	r1, #0
    44da:	d000      	beq.n	44de <__aeabi_fadd+0x42>
    44dc:	e0bc      	b.n	4658 <__aeabi_fadd+0x1bc>
    44de:	2401      	movs	r4, #1
    44e0:	1bdb      	subs	r3, r3, r7
    44e2:	015a      	lsls	r2, r3, #5
    44e4:	d546      	bpl.n	4574 <__aeabi_fadd+0xd8>
    44e6:	019b      	lsls	r3, r3, #6
    44e8:	099e      	lsrs	r6, r3, #6
    44ea:	0030      	movs	r0, r6
    44ec:	f002 f84c 	bl	6588 <__clzsi2>
    44f0:	3805      	subs	r0, #5
    44f2:	4086      	lsls	r6, r0
    44f4:	4284      	cmp	r4, r0
    44f6:	dd00      	ble.n	44fa <__aeabi_fadd+0x5e>
    44f8:	e09d      	b.n	4636 <__aeabi_fadd+0x19a>
    44fa:	1b04      	subs	r4, r0, r4
    44fc:	0032      	movs	r2, r6
    44fe:	2020      	movs	r0, #32
    4500:	3401      	adds	r4, #1
    4502:	40e2      	lsrs	r2, r4
    4504:	1b04      	subs	r4, r0, r4
    4506:	40a6      	lsls	r6, r4
    4508:	0033      	movs	r3, r6
    450a:	1e5e      	subs	r6, r3, #1
    450c:	41b3      	sbcs	r3, r6
    450e:	2400      	movs	r4, #0
    4510:	4313      	orrs	r3, r2
    4512:	075a      	lsls	r2, r3, #29
    4514:	d004      	beq.n	4520 <__aeabi_fadd+0x84>
    4516:	220f      	movs	r2, #15
    4518:	401a      	ands	r2, r3
    451a:	2a04      	cmp	r2, #4
    451c:	d000      	beq.n	4520 <__aeabi_fadd+0x84>
    451e:	3304      	adds	r3, #4
    4520:	015a      	lsls	r2, r3, #5
    4522:	d529      	bpl.n	4578 <__aeabi_fadd+0xdc>
    4524:	3401      	adds	r4, #1
    4526:	2cff      	cmp	r4, #255	; 0xff
    4528:	d100      	bne.n	452c <__aeabi_fadd+0x90>
    452a:	e081      	b.n	4630 <__aeabi_fadd+0x194>
    452c:	002a      	movs	r2, r5
    452e:	019b      	lsls	r3, r3, #6
    4530:	0a5b      	lsrs	r3, r3, #9
    4532:	b2e4      	uxtb	r4, r4
    4534:	025b      	lsls	r3, r3, #9
    4536:	05e4      	lsls	r4, r4, #23
    4538:	0a58      	lsrs	r0, r3, #9
    453a:	07d2      	lsls	r2, r2, #31
    453c:	4320      	orrs	r0, r4
    453e:	4310      	orrs	r0, r2
    4540:	bc04      	pop	{r2}
    4542:	4690      	mov	r8, r2
    4544:	bdf0      	pop	{r4, r5, r6, r7, pc}
    4546:	2cff      	cmp	r4, #255	; 0xff
    4548:	d0e3      	beq.n	4512 <__aeabi_fadd+0x76>
    454a:	2180      	movs	r1, #128	; 0x80
    454c:	0038      	movs	r0, r7
    454e:	04c9      	lsls	r1, r1, #19
    4550:	4308      	orrs	r0, r1
    4552:	4684      	mov	r12, r0
    4554:	2a1b      	cmp	r2, #27
    4556:	dd00      	ble.n	455a <__aeabi_fadd+0xbe>
    4558:	e082      	b.n	4660 <__aeabi_fadd+0x1c4>
    455a:	2020      	movs	r0, #32
    455c:	4661      	mov	r1, r12
    455e:	40d1      	lsrs	r1, r2
    4560:	1a82      	subs	r2, r0, r2
    4562:	4660      	mov	r0, r12
    4564:	4090      	lsls	r0, r2
    4566:	0002      	movs	r2, r0
    4568:	1e50      	subs	r0, r2, #1
    456a:	4182      	sbcs	r2, r0
    456c:	430a      	orrs	r2, r1
    456e:	1a9b      	subs	r3, r3, r2
    4570:	015a      	lsls	r2, r3, #5
    4572:	d4b8      	bmi.n	44e6 <__aeabi_fadd+0x4a>
    4574:	075a      	lsls	r2, r3, #29
    4576:	d1ce      	bne.n	4516 <__aeabi_fadd+0x7a>
    4578:	08de      	lsrs	r6, r3, #3
    457a:	002a      	movs	r2, r5
    457c:	2cff      	cmp	r4, #255	; 0xff
    457e:	d13a      	bne.n	45f6 <__aeabi_fadd+0x15a>
    4580:	2e00      	cmp	r6, #0
    4582:	d100      	bne.n	4586 <__aeabi_fadd+0xea>
    4584:	e0ae      	b.n	46e4 <__aeabi_fadd+0x248>
    4586:	2380      	movs	r3, #128	; 0x80
    4588:	03db      	lsls	r3, r3, #15
    458a:	4333      	orrs	r3, r6
    458c:	025b      	lsls	r3, r3, #9
    458e:	0a5b      	lsrs	r3, r3, #9
    4590:	24ff      	movs	r4, #255	; 0xff
    4592:	e7cf      	b.n	4534 <__aeabi_fadd+0x98>
    4594:	1a21      	subs	r1, r4, r0
    4596:	2900      	cmp	r1, #0
    4598:	dd52      	ble.n	4640 <__aeabi_fadd+0x1a4>
    459a:	2800      	cmp	r0, #0
    459c:	d031      	beq.n	4602 <__aeabi_fadd+0x166>
    459e:	2cff      	cmp	r4, #255	; 0xff
    45a0:	d0b7      	beq.n	4512 <__aeabi_fadd+0x76>
    45a2:	2080      	movs	r0, #128	; 0x80
    45a4:	003e      	movs	r6, r7
    45a6:	04c0      	lsls	r0, r0, #19
    45a8:	4306      	orrs	r6, r0
    45aa:	46b4      	mov	r12, r6
    45ac:	291b      	cmp	r1, #27
    45ae:	dd00      	ble.n	45b2 <__aeabi_fadd+0x116>
    45b0:	e0aa      	b.n	4708 <__aeabi_fadd+0x26c>
    45b2:	2620      	movs	r6, #32
    45b4:	4660      	mov	r0, r12
    45b6:	40c8      	lsrs	r0, r1
    45b8:	1a71      	subs	r1, r6, r1
    45ba:	4666      	mov	r6, r12
    45bc:	408e      	lsls	r6, r1
    45be:	0031      	movs	r1, r6
    45c0:	1e4e      	subs	r6, r1, #1
    45c2:	41b1      	sbcs	r1, r6
    45c4:	4301      	orrs	r1, r0
    45c6:	185b      	adds	r3, r3, r1
    45c8:	0159      	lsls	r1, r3, #5
    45ca:	d5d3      	bpl.n	4574 <__aeabi_fadd+0xd8>
    45cc:	3401      	adds	r4, #1
    45ce:	2cff      	cmp	r4, #255	; 0xff
    45d0:	d100      	bne.n	45d4 <__aeabi_fadd+0x138>
    45d2:	e087      	b.n	46e4 <__aeabi_fadd+0x248>
    45d4:	2201      	movs	r2, #1
    45d6:	4978      	ldr	r1, [pc, #480]	; (47b8 <__aeabi_fadd+0x31c>)
    45d8:	401a      	ands	r2, r3
    45da:	085b      	lsrs	r3, r3, #1
    45dc:	400b      	ands	r3, r1
    45de:	4313      	orrs	r3, r2
    45e0:	e797      	b.n	4512 <__aeabi_fadd+0x76>
    45e2:	2c00      	cmp	r4, #0
    45e4:	d000      	beq.n	45e8 <__aeabi_fadd+0x14c>
    45e6:	e0a7      	b.n	4738 <__aeabi_fadd+0x29c>
    45e8:	2b00      	cmp	r3, #0
    45ea:	d000      	beq.n	45ee <__aeabi_fadd+0x152>
    45ec:	e0b6      	b.n	475c <__aeabi_fadd+0x2c0>
    45ee:	1e3b      	subs	r3, r7, #0
    45f0:	d162      	bne.n	46b8 <__aeabi_fadd+0x21c>
    45f2:	2600      	movs	r6, #0
    45f4:	2200      	movs	r2, #0
    45f6:	0273      	lsls	r3, r6, #9
    45f8:	0a5b      	lsrs	r3, r3, #9
    45fa:	b2e4      	uxtb	r4, r4
    45fc:	e79a      	b.n	4534 <__aeabi_fadd+0x98>
    45fe:	0014      	movs	r4, r2
    4600:	e787      	b.n	4512 <__aeabi_fadd+0x76>
    4602:	2f00      	cmp	r7, #0
    4604:	d04d      	beq.n	46a2 <__aeabi_fadd+0x206>
    4606:	1e48      	subs	r0, r1, #1
    4608:	2800      	cmp	r0, #0
    460a:	d157      	bne.n	46bc <__aeabi_fadd+0x220>
    460c:	4463      	add	r3, r12
    460e:	2401      	movs	r4, #1
    4610:	015a      	lsls	r2, r3, #5
    4612:	d5af      	bpl.n	4574 <__aeabi_fadd+0xd8>
    4614:	2402      	movs	r4, #2
    4616:	e7dd      	b.n	45d4 <__aeabi_fadd+0x138>
    4618:	2a00      	cmp	r2, #0
    461a:	d124      	bne.n	4666 <__aeabi_fadd+0x1ca>
    461c:	1c62      	adds	r2, r4, #1
    461e:	b2d2      	uxtb	r2, r2
    4620:	2a01      	cmp	r2, #1
    4622:	ddde      	ble.n	45e2 <__aeabi_fadd+0x146>
    4624:	1bde      	subs	r6, r3, r7
    4626:	0172      	lsls	r2, r6, #5
    4628:	d535      	bpl.n	4696 <__aeabi_fadd+0x1fa>
    462a:	1afe      	subs	r6, r7, r3
    462c:	000d      	movs	r5, r1
    462e:	e75c      	b.n	44ea <__aeabi_fadd+0x4e>
    4630:	002a      	movs	r2, r5
    4632:	2300      	movs	r3, #0
    4634:	e77e      	b.n	4534 <__aeabi_fadd+0x98>
    4636:	0033      	movs	r3, r6
    4638:	4a60      	ldr	r2, [pc, #384]	; (47bc <__aeabi_fadd+0x320>)
    463a:	1a24      	subs	r4, r4, r0
    463c:	4013      	ands	r3, r2
    463e:	e768      	b.n	4512 <__aeabi_fadd+0x76>
    4640:	2900      	cmp	r1, #0
    4642:	d163      	bne.n	470c <__aeabi_fadd+0x270>
    4644:	1c61      	adds	r1, r4, #1
    4646:	b2c8      	uxtb	r0, r1
    4648:	2801      	cmp	r0, #1
    464a:	dd4e      	ble.n	46ea <__aeabi_fadd+0x24e>
    464c:	29ff      	cmp	r1, #255	; 0xff
    464e:	d049      	beq.n	46e4 <__aeabi_fadd+0x248>
    4650:	4463      	add	r3, r12
    4652:	085b      	lsrs	r3, r3, #1
    4654:	000c      	movs	r4, r1
    4656:	e75c      	b.n	4512 <__aeabi_fadd+0x76>
    4658:	2aff      	cmp	r2, #255	; 0xff
    465a:	d041      	beq.n	46e0 <__aeabi_fadd+0x244>
    465c:	000a      	movs	r2, r1
    465e:	e779      	b.n	4554 <__aeabi_fadd+0xb8>
    4660:	2201      	movs	r2, #1
    4662:	1a9b      	subs	r3, r3, r2
    4664:	e784      	b.n	4570 <__aeabi_fadd+0xd4>
    4666:	2c00      	cmp	r4, #0
    4668:	d01d      	beq.n	46a6 <__aeabi_fadd+0x20a>
    466a:	28ff      	cmp	r0, #255	; 0xff
    466c:	d022      	beq.n	46b4 <__aeabi_fadd+0x218>
    466e:	2480      	movs	r4, #128	; 0x80
    4670:	04e4      	lsls	r4, r4, #19
    4672:	4252      	negs	r2, r2
    4674:	4323      	orrs	r3, r4
    4676:	2a1b      	cmp	r2, #27
    4678:	dd00      	ble.n	467c <__aeabi_fadd+0x1e0>
    467a:	e08a      	b.n	4792 <__aeabi_fadd+0x2f6>
    467c:	001c      	movs	r4, r3
    467e:	2520      	movs	r5, #32
    4680:	40d4      	lsrs	r4, r2
    4682:	1aaa      	subs	r2, r5, r2
    4684:	4093      	lsls	r3, r2
    4686:	1e5a      	subs	r2, r3, #1
    4688:	4193      	sbcs	r3, r2
    468a:	4323      	orrs	r3, r4
    468c:	4662      	mov	r2, r12
    468e:	0004      	movs	r4, r0
    4690:	1ad3      	subs	r3, r2, r3
    4692:	000d      	movs	r5, r1
    4694:	e725      	b.n	44e2 <__aeabi_fadd+0x46>
    4696:	2e00      	cmp	r6, #0
    4698:	d000      	beq.n	469c <__aeabi_fadd+0x200>
    469a:	e726      	b.n	44ea <__aeabi_fadd+0x4e>
    469c:	2200      	movs	r2, #0
    469e:	2400      	movs	r4, #0
    46a0:	e7a9      	b.n	45f6 <__aeabi_fadd+0x15a>
    46a2:	000c      	movs	r4, r1
    46a4:	e735      	b.n	4512 <__aeabi_fadd+0x76>
    46a6:	2b00      	cmp	r3, #0
    46a8:	d04d      	beq.n	4746 <__aeabi_fadd+0x2aa>
    46aa:	43d2      	mvns	r2, r2
    46ac:	2a00      	cmp	r2, #0
    46ae:	d0ed      	beq.n	468c <__aeabi_fadd+0x1f0>
    46b0:	28ff      	cmp	r0, #255	; 0xff
    46b2:	d1e0      	bne.n	4676 <__aeabi_fadd+0x1da>
    46b4:	4663      	mov	r3, r12
    46b6:	24ff      	movs	r4, #255	; 0xff
    46b8:	000d      	movs	r5, r1
    46ba:	e72a      	b.n	4512 <__aeabi_fadd+0x76>
    46bc:	29ff      	cmp	r1, #255	; 0xff
    46be:	d00f      	beq.n	46e0 <__aeabi_fadd+0x244>
    46c0:	0001      	movs	r1, r0
    46c2:	e773      	b.n	45ac <__aeabi_fadd+0x110>
    46c4:	2b00      	cmp	r3, #0
    46c6:	d061      	beq.n	478c <__aeabi_fadd+0x2f0>
    46c8:	24ff      	movs	r4, #255	; 0xff
    46ca:	2f00      	cmp	r7, #0
    46cc:	d100      	bne.n	46d0 <__aeabi_fadd+0x234>
    46ce:	e720      	b.n	4512 <__aeabi_fadd+0x76>
    46d0:	2280      	movs	r2, #128	; 0x80
    46d2:	4641      	mov	r1, r8
    46d4:	03d2      	lsls	r2, r2, #15
    46d6:	4211      	tst	r1, r2
    46d8:	d002      	beq.n	46e0 <__aeabi_fadd+0x244>
    46da:	4216      	tst	r6, r2
    46dc:	d100      	bne.n	46e0 <__aeabi_fadd+0x244>
    46de:	003b      	movs	r3, r7
    46e0:	24ff      	movs	r4, #255	; 0xff
    46e2:	e716      	b.n	4512 <__aeabi_fadd+0x76>
    46e4:	24ff      	movs	r4, #255	; 0xff
    46e6:	2300      	movs	r3, #0
    46e8:	e724      	b.n	4534 <__aeabi_fadd+0x98>
    46ea:	2c00      	cmp	r4, #0
    46ec:	d1ea      	bne.n	46c4 <__aeabi_fadd+0x228>
    46ee:	2b00      	cmp	r3, #0
    46f0:	d058      	beq.n	47a4 <__aeabi_fadd+0x308>
    46f2:	2f00      	cmp	r7, #0
    46f4:	d100      	bne.n	46f8 <__aeabi_fadd+0x25c>
    46f6:	e70c      	b.n	4512 <__aeabi_fadd+0x76>
    46f8:	4463      	add	r3, r12
    46fa:	015a      	lsls	r2, r3, #5
    46fc:	d400      	bmi.n	4700 <__aeabi_fadd+0x264>
    46fe:	e739      	b.n	4574 <__aeabi_fadd+0xd8>
    4700:	4a2e      	ldr	r2, [pc, #184]	; (47bc <__aeabi_fadd+0x320>)
    4702:	000c      	movs	r4, r1
    4704:	4013      	ands	r3, r2
    4706:	e704      	b.n	4512 <__aeabi_fadd+0x76>
    4708:	2101      	movs	r1, #1
    470a:	e75c      	b.n	45c6 <__aeabi_fadd+0x12a>
    470c:	2c00      	cmp	r4, #0
    470e:	d11e      	bne.n	474e <__aeabi_fadd+0x2b2>
    4710:	2b00      	cmp	r3, #0
    4712:	d040      	beq.n	4796 <__aeabi_fadd+0x2fa>
    4714:	43c9      	mvns	r1, r1
    4716:	2900      	cmp	r1, #0
    4718:	d00b      	beq.n	4732 <__aeabi_fadd+0x296>
    471a:	28ff      	cmp	r0, #255	; 0xff
    471c:	d036      	beq.n	478c <__aeabi_fadd+0x2f0>
    471e:	291b      	cmp	r1, #27
    4720:	dc47      	bgt.n	47b2 <__aeabi_fadd+0x316>
    4722:	001c      	movs	r4, r3
    4724:	2620      	movs	r6, #32
    4726:	40cc      	lsrs	r4, r1
    4728:	1a71      	subs	r1, r6, r1
    472a:	408b      	lsls	r3, r1
    472c:	1e59      	subs	r1, r3, #1
    472e:	418b      	sbcs	r3, r1
    4730:	4323      	orrs	r3, r4
    4732:	4463      	add	r3, r12
    4734:	0004      	movs	r4, r0
    4736:	e747      	b.n	45c8 <__aeabi_fadd+0x12c>
    4738:	2b00      	cmp	r3, #0
    473a:	d118      	bne.n	476e <__aeabi_fadd+0x2d2>
    473c:	1e3b      	subs	r3, r7, #0
    473e:	d02d      	beq.n	479c <__aeabi_fadd+0x300>
    4740:	000d      	movs	r5, r1
    4742:	24ff      	movs	r4, #255	; 0xff
    4744:	e6e5      	b.n	4512 <__aeabi_fadd+0x76>
    4746:	003b      	movs	r3, r7
    4748:	0004      	movs	r4, r0
    474a:	000d      	movs	r5, r1
    474c:	e6e1      	b.n	4512 <__aeabi_fadd+0x76>
    474e:	28ff      	cmp	r0, #255	; 0xff
    4750:	d01c      	beq.n	478c <__aeabi_fadd+0x2f0>
    4752:	2480      	movs	r4, #128	; 0x80
    4754:	04e4      	lsls	r4, r4, #19
    4756:	4249      	negs	r1, r1
    4758:	4323      	orrs	r3, r4
    475a:	e7e0      	b.n	471e <__aeabi_fadd+0x282>
    475c:	2f00      	cmp	r7, #0
    475e:	d100      	bne.n	4762 <__aeabi_fadd+0x2c6>
    4760:	e6d7      	b.n	4512 <__aeabi_fadd+0x76>
    4762:	1bde      	subs	r6, r3, r7
    4764:	0172      	lsls	r2, r6, #5
    4766:	d51f      	bpl.n	47a8 <__aeabi_fadd+0x30c>
    4768:	1afb      	subs	r3, r7, r3
    476a:	000d      	movs	r5, r1
    476c:	e6d1      	b.n	4512 <__aeabi_fadd+0x76>
    476e:	24ff      	movs	r4, #255	; 0xff
    4770:	2f00      	cmp	r7, #0
    4772:	d100      	bne.n	4776 <__aeabi_fadd+0x2da>
    4774:	e6cd      	b.n	4512 <__aeabi_fadd+0x76>
    4776:	2280      	movs	r2, #128	; 0x80
    4778:	4640      	mov	r0, r8
    477a:	03d2      	lsls	r2, r2, #15
    477c:	4210      	tst	r0, r2
    477e:	d0af      	beq.n	46e0 <__aeabi_fadd+0x244>
    4780:	4216      	tst	r6, r2
    4782:	d1ad      	bne.n	46e0 <__aeabi_fadd+0x244>
    4784:	003b      	movs	r3, r7
    4786:	000d      	movs	r5, r1
    4788:	24ff      	movs	r4, #255	; 0xff
    478a:	e6c2      	b.n	4512 <__aeabi_fadd+0x76>
    478c:	4663      	mov	r3, r12
    478e:	24ff      	movs	r4, #255	; 0xff
    4790:	e6bf      	b.n	4512 <__aeabi_fadd+0x76>
    4792:	2301      	movs	r3, #1
    4794:	e77a      	b.n	468c <__aeabi_fadd+0x1f0>
    4796:	003b      	movs	r3, r7
    4798:	0004      	movs	r4, r0
    479a:	e6ba      	b.n	4512 <__aeabi_fadd+0x76>
    479c:	2680      	movs	r6, #128	; 0x80
    479e:	2200      	movs	r2, #0
    47a0:	03f6      	lsls	r6, r6, #15
    47a2:	e6f0      	b.n	4586 <__aeabi_fadd+0xea>
    47a4:	003b      	movs	r3, r7
    47a6:	e6b4      	b.n	4512 <__aeabi_fadd+0x76>
    47a8:	1e33      	subs	r3, r6, #0
    47aa:	d000      	beq.n	47ae <__aeabi_fadd+0x312>
    47ac:	e6e2      	b.n	4574 <__aeabi_fadd+0xd8>
    47ae:	2200      	movs	r2, #0
    47b0:	e721      	b.n	45f6 <__aeabi_fadd+0x15a>
    47b2:	2301      	movs	r3, #1
    47b4:	e7bd      	b.n	4732 <__aeabi_fadd+0x296>
    47b6:	46c0      	nop			; (mov r8, r8)
    47b8:	7dffffff 	.word	0x7dffffff
    47bc:	fbffffff 	.word	0xfbffffff

000047c0 <__aeabi_fdiv>:
    47c0:	b5f0      	push	{r4, r5, r6, r7, lr}
    47c2:	4657      	mov	r7, r10
    47c4:	464e      	mov	r6, r9
    47c6:	46de      	mov	lr, r11
    47c8:	4645      	mov	r5, r8
    47ca:	b5e0      	push	{r5, r6, r7, lr}
    47cc:	0244      	lsls	r4, r0, #9
    47ce:	0043      	lsls	r3, r0, #1
    47d0:	0fc6      	lsrs	r6, r0, #31
    47d2:	b083      	sub	sp, #12
    47d4:	1c0f      	adds	r7, r1, #0
    47d6:	0a64      	lsrs	r4, r4, #9
    47d8:	0e1b      	lsrs	r3, r3, #24
    47da:	46b2      	mov	r10, r6
    47dc:	d053      	beq.n	4886 <__aeabi_fdiv+0xc6>
    47de:	2bff      	cmp	r3, #255	; 0xff
    47e0:	d027      	beq.n	4832 <__aeabi_fdiv+0x72>
    47e2:	2280      	movs	r2, #128	; 0x80
    47e4:	00e4      	lsls	r4, r4, #3
    47e6:	04d2      	lsls	r2, r2, #19
    47e8:	4314      	orrs	r4, r2
    47ea:	227f      	movs	r2, #127	; 0x7f
    47ec:	4252      	negs	r2, r2
    47ee:	4690      	mov	r8, r2
    47f0:	4498      	add	r8, r3
    47f2:	2300      	movs	r3, #0
    47f4:	4699      	mov	r9, r3
    47f6:	469b      	mov	r11, r3
    47f8:	027d      	lsls	r5, r7, #9
    47fa:	0078      	lsls	r0, r7, #1
    47fc:	0ffb      	lsrs	r3, r7, #31
    47fe:	0a6d      	lsrs	r5, r5, #9
    4800:	0e00      	lsrs	r0, r0, #24
    4802:	9300      	str	r3, [sp, #0]
    4804:	d024      	beq.n	4850 <__aeabi_fdiv+0x90>
    4806:	28ff      	cmp	r0, #255	; 0xff
    4808:	d046      	beq.n	4898 <__aeabi_fdiv+0xd8>
    480a:	2380      	movs	r3, #128	; 0x80
    480c:	2100      	movs	r1, #0
    480e:	00ed      	lsls	r5, r5, #3
    4810:	04db      	lsls	r3, r3, #19
    4812:	431d      	orrs	r5, r3
    4814:	387f      	subs	r0, #127	; 0x7f
    4816:	4647      	mov	r7, r8
    4818:	1a38      	subs	r0, r7, r0
    481a:	464f      	mov	r7, r9
    481c:	430f      	orrs	r7, r1
    481e:	00bf      	lsls	r7, r7, #2
    4820:	46b9      	mov	r9, r7
    4822:	0033      	movs	r3, r6
    4824:	9a00      	ldr	r2, [sp, #0]
    4826:	4f87      	ldr	r7, [pc, #540]	; (4a44 <__aeabi_fdiv+0x284>)
    4828:	4053      	eors	r3, r2
    482a:	464a      	mov	r2, r9
    482c:	58ba      	ldr	r2, [r7, r2]
    482e:	9301      	str	r3, [sp, #4]
    4830:	4697      	mov	pc, r2
    4832:	2c00      	cmp	r4, #0
    4834:	d14e      	bne.n	48d4 <__aeabi_fdiv+0x114>
    4836:	2308      	movs	r3, #8
    4838:	4699      	mov	r9, r3
    483a:	33f7      	adds	r3, #247	; 0xf7
    483c:	4698      	mov	r8, r3
    483e:	3bfd      	subs	r3, #253	; 0xfd
    4840:	469b      	mov	r11, r3
    4842:	027d      	lsls	r5, r7, #9
    4844:	0078      	lsls	r0, r7, #1
    4846:	0ffb      	lsrs	r3, r7, #31
    4848:	0a6d      	lsrs	r5, r5, #9
    484a:	0e00      	lsrs	r0, r0, #24
    484c:	9300      	str	r3, [sp, #0]
    484e:	d1da      	bne.n	4806 <__aeabi_fdiv+0x46>
    4850:	2d00      	cmp	r5, #0
    4852:	d126      	bne.n	48a2 <__aeabi_fdiv+0xe2>
    4854:	2000      	movs	r0, #0
    4856:	2101      	movs	r1, #1
    4858:	0033      	movs	r3, r6
    485a:	9a00      	ldr	r2, [sp, #0]
    485c:	4f7a      	ldr	r7, [pc, #488]	; (4a48 <__aeabi_fdiv+0x288>)
    485e:	4053      	eors	r3, r2
    4860:	4642      	mov	r2, r8
    4862:	1a10      	subs	r0, r2, r0
    4864:	464a      	mov	r2, r9
    4866:	430a      	orrs	r2, r1
    4868:	0092      	lsls	r2, r2, #2
    486a:	58ba      	ldr	r2, [r7, r2]
    486c:	001d      	movs	r5, r3
    486e:	4697      	mov	pc, r2
    4870:	9b00      	ldr	r3, [sp, #0]
    4872:	002c      	movs	r4, r5
    4874:	469a      	mov	r10, r3
    4876:	468b      	mov	r11, r1
    4878:	465b      	mov	r3, r11
    487a:	2b02      	cmp	r3, #2
    487c:	d131      	bne.n	48e2 <__aeabi_fdiv+0x122>
    487e:	4653      	mov	r3, r10
    4880:	21ff      	movs	r1, #255	; 0xff
    4882:	2400      	movs	r4, #0
    4884:	e038      	b.n	48f8 <__aeabi_fdiv+0x138>
    4886:	2c00      	cmp	r4, #0
    4888:	d117      	bne.n	48ba <__aeabi_fdiv+0xfa>
    488a:	2304      	movs	r3, #4
    488c:	4699      	mov	r9, r3
    488e:	2300      	movs	r3, #0
    4890:	4698      	mov	r8, r3
    4892:	3301      	adds	r3, #1
    4894:	469b      	mov	r11, r3
    4896:	e7af      	b.n	47f8 <__aeabi_fdiv+0x38>
    4898:	20ff      	movs	r0, #255	; 0xff
    489a:	2d00      	cmp	r5, #0
    489c:	d10b      	bne.n	48b6 <__aeabi_fdiv+0xf6>
    489e:	2102      	movs	r1, #2
    48a0:	e7da      	b.n	4858 <__aeabi_fdiv+0x98>
    48a2:	0028      	movs	r0, r5
    48a4:	f001 fe70 	bl	6588 <__clzsi2>
    48a8:	1f43      	subs	r3, r0, #5
    48aa:	409d      	lsls	r5, r3
    48ac:	2376      	movs	r3, #118	; 0x76
    48ae:	425b      	negs	r3, r3
    48b0:	1a18      	subs	r0, r3, r0
    48b2:	2100      	movs	r1, #0
    48b4:	e7af      	b.n	4816 <__aeabi_fdiv+0x56>
    48b6:	2103      	movs	r1, #3
    48b8:	e7ad      	b.n	4816 <__aeabi_fdiv+0x56>
    48ba:	0020      	movs	r0, r4
    48bc:	f001 fe64 	bl	6588 <__clzsi2>
    48c0:	1f43      	subs	r3, r0, #5
    48c2:	409c      	lsls	r4, r3
    48c4:	2376      	movs	r3, #118	; 0x76
    48c6:	425b      	negs	r3, r3
    48c8:	1a1b      	subs	r3, r3, r0
    48ca:	4698      	mov	r8, r3
    48cc:	2300      	movs	r3, #0
    48ce:	4699      	mov	r9, r3
    48d0:	469b      	mov	r11, r3
    48d2:	e791      	b.n	47f8 <__aeabi_fdiv+0x38>
    48d4:	230c      	movs	r3, #12
    48d6:	4699      	mov	r9, r3
    48d8:	33f3      	adds	r3, #243	; 0xf3
    48da:	4698      	mov	r8, r3
    48dc:	3bfc      	subs	r3, #252	; 0xfc
    48de:	469b      	mov	r11, r3
    48e0:	e78a      	b.n	47f8 <__aeabi_fdiv+0x38>
    48e2:	2b03      	cmp	r3, #3
    48e4:	d100      	bne.n	48e8 <__aeabi_fdiv+0x128>
    48e6:	e0a5      	b.n	4a34 <__aeabi_fdiv+0x274>
    48e8:	4655      	mov	r5, r10
    48ea:	2b01      	cmp	r3, #1
    48ec:	d000      	beq.n	48f0 <__aeabi_fdiv+0x130>
    48ee:	e081      	b.n	49f4 <__aeabi_fdiv+0x234>
    48f0:	2301      	movs	r3, #1
    48f2:	2100      	movs	r1, #0
    48f4:	2400      	movs	r4, #0
    48f6:	402b      	ands	r3, r5
    48f8:	0264      	lsls	r4, r4, #9
    48fa:	05c9      	lsls	r1, r1, #23
    48fc:	0a60      	lsrs	r0, r4, #9
    48fe:	07db      	lsls	r3, r3, #31
    4900:	4308      	orrs	r0, r1
    4902:	4318      	orrs	r0, r3
    4904:	b003      	add	sp, #12
    4906:	bc3c      	pop	{r2, r3, r4, r5}
    4908:	4690      	mov	r8, r2
    490a:	4699      	mov	r9, r3
    490c:	46a2      	mov	r10, r4
    490e:	46ab      	mov	r11, r5
    4910:	bdf0      	pop	{r4, r5, r6, r7, pc}
    4912:	2480      	movs	r4, #128	; 0x80
    4914:	2300      	movs	r3, #0
    4916:	03e4      	lsls	r4, r4, #15
    4918:	21ff      	movs	r1, #255	; 0xff
    491a:	e7ed      	b.n	48f8 <__aeabi_fdiv+0x138>
    491c:	21ff      	movs	r1, #255	; 0xff
    491e:	2400      	movs	r4, #0
    4920:	e7ea      	b.n	48f8 <__aeabi_fdiv+0x138>
    4922:	2301      	movs	r3, #1
    4924:	1a59      	subs	r1, r3, r1
    4926:	291b      	cmp	r1, #27
    4928:	dd66      	ble.n	49f8 <__aeabi_fdiv+0x238>
    492a:	9a01      	ldr	r2, [sp, #4]
    492c:	4013      	ands	r3, r2
    492e:	2100      	movs	r1, #0
    4930:	2400      	movs	r4, #0
    4932:	e7e1      	b.n	48f8 <__aeabi_fdiv+0x138>
    4934:	2380      	movs	r3, #128	; 0x80
    4936:	03db      	lsls	r3, r3, #15
    4938:	421c      	tst	r4, r3
    493a:	d038      	beq.n	49ae <__aeabi_fdiv+0x1ee>
    493c:	421d      	tst	r5, r3
    493e:	d051      	beq.n	49e4 <__aeabi_fdiv+0x224>
    4940:	431c      	orrs	r4, r3
    4942:	0264      	lsls	r4, r4, #9
    4944:	0a64      	lsrs	r4, r4, #9
    4946:	0033      	movs	r3, r6
    4948:	21ff      	movs	r1, #255	; 0xff
    494a:	e7d5      	b.n	48f8 <__aeabi_fdiv+0x138>
    494c:	0163      	lsls	r3, r4, #5
    494e:	016c      	lsls	r4, r5, #5
    4950:	42a3      	cmp	r3, r4
    4952:	d23b      	bcs.n	49cc <__aeabi_fdiv+0x20c>
    4954:	261b      	movs	r6, #27
    4956:	2100      	movs	r1, #0
    4958:	3801      	subs	r0, #1
    495a:	2501      	movs	r5, #1
    495c:	001f      	movs	r7, r3
    495e:	0049      	lsls	r1, r1, #1
    4960:	005b      	lsls	r3, r3, #1
    4962:	2f00      	cmp	r7, #0
    4964:	db01      	blt.n	496a <__aeabi_fdiv+0x1aa>
    4966:	429c      	cmp	r4, r3
    4968:	d801      	bhi.n	496e <__aeabi_fdiv+0x1ae>
    496a:	1b1b      	subs	r3, r3, r4
    496c:	4329      	orrs	r1, r5
    496e:	3e01      	subs	r6, #1
    4970:	2e00      	cmp	r6, #0
    4972:	d1f3      	bne.n	495c <__aeabi_fdiv+0x19c>
    4974:	001c      	movs	r4, r3
    4976:	1e63      	subs	r3, r4, #1
    4978:	419c      	sbcs	r4, r3
    497a:	430c      	orrs	r4, r1
    497c:	0001      	movs	r1, r0
    497e:	317f      	adds	r1, #127	; 0x7f
    4980:	2900      	cmp	r1, #0
    4982:	ddce      	ble.n	4922 <__aeabi_fdiv+0x162>
    4984:	0763      	lsls	r3, r4, #29
    4986:	d004      	beq.n	4992 <__aeabi_fdiv+0x1d2>
    4988:	230f      	movs	r3, #15
    498a:	4023      	ands	r3, r4
    498c:	2b04      	cmp	r3, #4
    498e:	d000      	beq.n	4992 <__aeabi_fdiv+0x1d2>
    4990:	3404      	adds	r4, #4
    4992:	0123      	lsls	r3, r4, #4
    4994:	d503      	bpl.n	499e <__aeabi_fdiv+0x1de>
    4996:	0001      	movs	r1, r0
    4998:	4b2c      	ldr	r3, [pc, #176]	; (4a4c <__aeabi_fdiv+0x28c>)
    499a:	3180      	adds	r1, #128	; 0x80
    499c:	401c      	ands	r4, r3
    499e:	29fe      	cmp	r1, #254	; 0xfe
    49a0:	dd0d      	ble.n	49be <__aeabi_fdiv+0x1fe>
    49a2:	2301      	movs	r3, #1
    49a4:	9a01      	ldr	r2, [sp, #4]
    49a6:	21ff      	movs	r1, #255	; 0xff
    49a8:	4013      	ands	r3, r2
    49aa:	2400      	movs	r4, #0
    49ac:	e7a4      	b.n	48f8 <__aeabi_fdiv+0x138>
    49ae:	2380      	movs	r3, #128	; 0x80
    49b0:	03db      	lsls	r3, r3, #15
    49b2:	431c      	orrs	r4, r3
    49b4:	0264      	lsls	r4, r4, #9
    49b6:	0a64      	lsrs	r4, r4, #9
    49b8:	0033      	movs	r3, r6
    49ba:	21ff      	movs	r1, #255	; 0xff
    49bc:	e79c      	b.n	48f8 <__aeabi_fdiv+0x138>
    49be:	2301      	movs	r3, #1
    49c0:	9a01      	ldr	r2, [sp, #4]
    49c2:	01a4      	lsls	r4, r4, #6
    49c4:	0a64      	lsrs	r4, r4, #9
    49c6:	b2c9      	uxtb	r1, r1
    49c8:	4013      	ands	r3, r2
    49ca:	e795      	b.n	48f8 <__aeabi_fdiv+0x138>
    49cc:	1b1b      	subs	r3, r3, r4
    49ce:	261a      	movs	r6, #26
    49d0:	2101      	movs	r1, #1
    49d2:	e7c2      	b.n	495a <__aeabi_fdiv+0x19a>
    49d4:	9b00      	ldr	r3, [sp, #0]
    49d6:	468b      	mov	r11, r1
    49d8:	469a      	mov	r10, r3
    49da:	2400      	movs	r4, #0
    49dc:	e74c      	b.n	4878 <__aeabi_fdiv+0xb8>
    49de:	0263      	lsls	r3, r4, #9
    49e0:	d5e5      	bpl.n	49ae <__aeabi_fdiv+0x1ee>
    49e2:	2500      	movs	r5, #0
    49e4:	2480      	movs	r4, #128	; 0x80
    49e6:	03e4      	lsls	r4, r4, #15
    49e8:	432c      	orrs	r4, r5
    49ea:	0264      	lsls	r4, r4, #9
    49ec:	0a64      	lsrs	r4, r4, #9
    49ee:	9b00      	ldr	r3, [sp, #0]
    49f0:	21ff      	movs	r1, #255	; 0xff
    49f2:	e781      	b.n	48f8 <__aeabi_fdiv+0x138>
    49f4:	9501      	str	r5, [sp, #4]
    49f6:	e7c1      	b.n	497c <__aeabi_fdiv+0x1bc>
    49f8:	0023      	movs	r3, r4
    49fa:	2020      	movs	r0, #32
    49fc:	40cb      	lsrs	r3, r1
    49fe:	1a41      	subs	r1, r0, r1
    4a00:	408c      	lsls	r4, r1
    4a02:	1e61      	subs	r1, r4, #1
    4a04:	418c      	sbcs	r4, r1
    4a06:	431c      	orrs	r4, r3
    4a08:	0763      	lsls	r3, r4, #29
    4a0a:	d004      	beq.n	4a16 <__aeabi_fdiv+0x256>
    4a0c:	230f      	movs	r3, #15
    4a0e:	4023      	ands	r3, r4
    4a10:	2b04      	cmp	r3, #4
    4a12:	d000      	beq.n	4a16 <__aeabi_fdiv+0x256>
    4a14:	3404      	adds	r4, #4
    4a16:	0163      	lsls	r3, r4, #5
    4a18:	d505      	bpl.n	4a26 <__aeabi_fdiv+0x266>
    4a1a:	2301      	movs	r3, #1
    4a1c:	9a01      	ldr	r2, [sp, #4]
    4a1e:	2101      	movs	r1, #1
    4a20:	4013      	ands	r3, r2
    4a22:	2400      	movs	r4, #0
    4a24:	e768      	b.n	48f8 <__aeabi_fdiv+0x138>
    4a26:	2301      	movs	r3, #1
    4a28:	9a01      	ldr	r2, [sp, #4]
    4a2a:	01a4      	lsls	r4, r4, #6
    4a2c:	0a64      	lsrs	r4, r4, #9
    4a2e:	4013      	ands	r3, r2
    4a30:	2100      	movs	r1, #0
    4a32:	e761      	b.n	48f8 <__aeabi_fdiv+0x138>
    4a34:	2380      	movs	r3, #128	; 0x80
    4a36:	03db      	lsls	r3, r3, #15
    4a38:	431c      	orrs	r4, r3
    4a3a:	0264      	lsls	r4, r4, #9
    4a3c:	0a64      	lsrs	r4, r4, #9
    4a3e:	4653      	mov	r3, r10
    4a40:	21ff      	movs	r1, #255	; 0xff
    4a42:	e759      	b.n	48f8 <__aeabi_fdiv+0x138>
    4a44:	000079b4 	.word	0x000079b4
    4a48:	000079f4 	.word	0x000079f4
    4a4c:	f7ffffff 	.word	0xf7ffffff

00004a50 <__eqsf2>:
    4a50:	b570      	push	{r4, r5, r6, lr}
    4a52:	0042      	lsls	r2, r0, #1
    4a54:	0245      	lsls	r5, r0, #9
    4a56:	024e      	lsls	r6, r1, #9
    4a58:	004c      	lsls	r4, r1, #1
    4a5a:	0fc3      	lsrs	r3, r0, #31
    4a5c:	0a6d      	lsrs	r5, r5, #9
    4a5e:	0e12      	lsrs	r2, r2, #24
    4a60:	0a76      	lsrs	r6, r6, #9
    4a62:	0e24      	lsrs	r4, r4, #24
    4a64:	0fc9      	lsrs	r1, r1, #31
    4a66:	2001      	movs	r0, #1
    4a68:	2aff      	cmp	r2, #255	; 0xff
    4a6a:	d006      	beq.n	4a7a <__eqsf2+0x2a>
    4a6c:	2cff      	cmp	r4, #255	; 0xff
    4a6e:	d003      	beq.n	4a78 <__eqsf2+0x28>
    4a70:	42a2      	cmp	r2, r4
    4a72:	d101      	bne.n	4a78 <__eqsf2+0x28>
    4a74:	42b5      	cmp	r5, r6
    4a76:	d006      	beq.n	4a86 <__eqsf2+0x36>
    4a78:	bd70      	pop	{r4, r5, r6, pc}
    4a7a:	2d00      	cmp	r5, #0
    4a7c:	d1fc      	bne.n	4a78 <__eqsf2+0x28>
    4a7e:	2cff      	cmp	r4, #255	; 0xff
    4a80:	d1fa      	bne.n	4a78 <__eqsf2+0x28>
    4a82:	2e00      	cmp	r6, #0
    4a84:	d1f8      	bne.n	4a78 <__eqsf2+0x28>
    4a86:	428b      	cmp	r3, r1
    4a88:	d006      	beq.n	4a98 <__eqsf2+0x48>
    4a8a:	2001      	movs	r0, #1
    4a8c:	2a00      	cmp	r2, #0
    4a8e:	d1f3      	bne.n	4a78 <__eqsf2+0x28>
    4a90:	0028      	movs	r0, r5
    4a92:	1e45      	subs	r5, r0, #1
    4a94:	41a8      	sbcs	r0, r5
    4a96:	e7ef      	b.n	4a78 <__eqsf2+0x28>
    4a98:	2000      	movs	r0, #0
    4a9a:	e7ed      	b.n	4a78 <__eqsf2+0x28>

00004a9c <__gesf2>:
    4a9c:	b5f0      	push	{r4, r5, r6, r7, lr}
    4a9e:	0042      	lsls	r2, r0, #1
    4aa0:	0245      	lsls	r5, r0, #9
    4aa2:	024c      	lsls	r4, r1, #9
    4aa4:	0fc3      	lsrs	r3, r0, #31
    4aa6:	0048      	lsls	r0, r1, #1
    4aa8:	0a6d      	lsrs	r5, r5, #9
    4aaa:	0e12      	lsrs	r2, r2, #24
    4aac:	0a64      	lsrs	r4, r4, #9
    4aae:	0e00      	lsrs	r0, r0, #24
    4ab0:	0fc9      	lsrs	r1, r1, #31
    4ab2:	2aff      	cmp	r2, #255	; 0xff
    4ab4:	d01e      	beq.n	4af4 <__gesf2+0x58>
    4ab6:	28ff      	cmp	r0, #255	; 0xff
    4ab8:	d021      	beq.n	4afe <__gesf2+0x62>
    4aba:	2a00      	cmp	r2, #0
    4abc:	d10a      	bne.n	4ad4 <__gesf2+0x38>
    4abe:	426e      	negs	r6, r5
    4ac0:	416e      	adcs	r6, r5
    4ac2:	b2f6      	uxtb	r6, r6
    4ac4:	2800      	cmp	r0, #0
    4ac6:	d10f      	bne.n	4ae8 <__gesf2+0x4c>
    4ac8:	2c00      	cmp	r4, #0
    4aca:	d10d      	bne.n	4ae8 <__gesf2+0x4c>
    4acc:	2000      	movs	r0, #0
    4ace:	2d00      	cmp	r5, #0
    4ad0:	d009      	beq.n	4ae6 <__gesf2+0x4a>
    4ad2:	e005      	b.n	4ae0 <__gesf2+0x44>
    4ad4:	2800      	cmp	r0, #0
    4ad6:	d101      	bne.n	4adc <__gesf2+0x40>
    4ad8:	2c00      	cmp	r4, #0
    4ada:	d001      	beq.n	4ae0 <__gesf2+0x44>
    4adc:	428b      	cmp	r3, r1
    4ade:	d011      	beq.n	4b04 <__gesf2+0x68>
    4ae0:	2101      	movs	r1, #1
    4ae2:	4258      	negs	r0, r3
    4ae4:	4308      	orrs	r0, r1
    4ae6:	bdf0      	pop	{r4, r5, r6, r7, pc}
    4ae8:	2e00      	cmp	r6, #0
    4aea:	d0f7      	beq.n	4adc <__gesf2+0x40>
    4aec:	2001      	movs	r0, #1
    4aee:	3901      	subs	r1, #1
    4af0:	4308      	orrs	r0, r1
    4af2:	e7f8      	b.n	4ae6 <__gesf2+0x4a>
    4af4:	2d00      	cmp	r5, #0
    4af6:	d0de      	beq.n	4ab6 <__gesf2+0x1a>
    4af8:	2002      	movs	r0, #2
    4afa:	4240      	negs	r0, r0
    4afc:	e7f3      	b.n	4ae6 <__gesf2+0x4a>
    4afe:	2c00      	cmp	r4, #0
    4b00:	d0db      	beq.n	4aba <__gesf2+0x1e>
    4b02:	e7f9      	b.n	4af8 <__gesf2+0x5c>
    4b04:	4282      	cmp	r2, r0
    4b06:	dceb      	bgt.n	4ae0 <__gesf2+0x44>
    4b08:	db04      	blt.n	4b14 <__gesf2+0x78>
    4b0a:	42a5      	cmp	r5, r4
    4b0c:	d8e8      	bhi.n	4ae0 <__gesf2+0x44>
    4b0e:	2000      	movs	r0, #0
    4b10:	42a5      	cmp	r5, r4
    4b12:	d2e8      	bcs.n	4ae6 <__gesf2+0x4a>
    4b14:	2101      	movs	r1, #1
    4b16:	1e58      	subs	r0, r3, #1
    4b18:	4308      	orrs	r0, r1
    4b1a:	e7e4      	b.n	4ae6 <__gesf2+0x4a>

00004b1c <__lesf2>:
    4b1c:	b5f0      	push	{r4, r5, r6, r7, lr}
    4b1e:	0042      	lsls	r2, r0, #1
    4b20:	024d      	lsls	r5, r1, #9
    4b22:	004c      	lsls	r4, r1, #1
    4b24:	0246      	lsls	r6, r0, #9
    4b26:	0a76      	lsrs	r6, r6, #9
    4b28:	0e12      	lsrs	r2, r2, #24
    4b2a:	0fc3      	lsrs	r3, r0, #31
    4b2c:	0a6d      	lsrs	r5, r5, #9
    4b2e:	0e24      	lsrs	r4, r4, #24
    4b30:	0fc9      	lsrs	r1, r1, #31
    4b32:	2aff      	cmp	r2, #255	; 0xff
    4b34:	d016      	beq.n	4b64 <__lesf2+0x48>
    4b36:	2cff      	cmp	r4, #255	; 0xff
    4b38:	d018      	beq.n	4b6c <__lesf2+0x50>
    4b3a:	2a00      	cmp	r2, #0
    4b3c:	d10a      	bne.n	4b54 <__lesf2+0x38>
    4b3e:	4270      	negs	r0, r6
    4b40:	4170      	adcs	r0, r6
    4b42:	b2c0      	uxtb	r0, r0
    4b44:	2c00      	cmp	r4, #0
    4b46:	d015      	beq.n	4b74 <__lesf2+0x58>
    4b48:	2800      	cmp	r0, #0
    4b4a:	d005      	beq.n	4b58 <__lesf2+0x3c>
    4b4c:	2001      	movs	r0, #1
    4b4e:	3901      	subs	r1, #1
    4b50:	4308      	orrs	r0, r1
    4b52:	bdf0      	pop	{r4, r5, r6, r7, pc}
    4b54:	2c00      	cmp	r4, #0
    4b56:	d013      	beq.n	4b80 <__lesf2+0x64>
    4b58:	4299      	cmp	r1, r3
    4b5a:	d014      	beq.n	4b86 <__lesf2+0x6a>
    4b5c:	2001      	movs	r0, #1
    4b5e:	425b      	negs	r3, r3
    4b60:	4318      	orrs	r0, r3
    4b62:	e7f6      	b.n	4b52 <__lesf2+0x36>
    4b64:	2002      	movs	r0, #2
    4b66:	2e00      	cmp	r6, #0
    4b68:	d1f3      	bne.n	4b52 <__lesf2+0x36>
    4b6a:	e7e4      	b.n	4b36 <__lesf2+0x1a>
    4b6c:	2002      	movs	r0, #2
    4b6e:	2d00      	cmp	r5, #0
    4b70:	d1ef      	bne.n	4b52 <__lesf2+0x36>
    4b72:	e7e2      	b.n	4b3a <__lesf2+0x1e>
    4b74:	2d00      	cmp	r5, #0
    4b76:	d1e7      	bne.n	4b48 <__lesf2+0x2c>
    4b78:	2000      	movs	r0, #0
    4b7a:	2e00      	cmp	r6, #0
    4b7c:	d0e9      	beq.n	4b52 <__lesf2+0x36>
    4b7e:	e7ed      	b.n	4b5c <__lesf2+0x40>
    4b80:	2d00      	cmp	r5, #0
    4b82:	d1e9      	bne.n	4b58 <__lesf2+0x3c>
    4b84:	e7ea      	b.n	4b5c <__lesf2+0x40>
    4b86:	42a2      	cmp	r2, r4
    4b88:	dc06      	bgt.n	4b98 <__lesf2+0x7c>
    4b8a:	dbdf      	blt.n	4b4c <__lesf2+0x30>
    4b8c:	42ae      	cmp	r6, r5
    4b8e:	d803      	bhi.n	4b98 <__lesf2+0x7c>
    4b90:	2000      	movs	r0, #0
    4b92:	42ae      	cmp	r6, r5
    4b94:	d3da      	bcc.n	4b4c <__lesf2+0x30>
    4b96:	e7dc      	b.n	4b52 <__lesf2+0x36>
    4b98:	2001      	movs	r0, #1
    4b9a:	4249      	negs	r1, r1
    4b9c:	4308      	orrs	r0, r1
    4b9e:	e7d8      	b.n	4b52 <__lesf2+0x36>

00004ba0 <__aeabi_fmul>:
    4ba0:	b5f8      	push	{r3, r4, r5, r6, r7, lr}
    4ba2:	4657      	mov	r7, r10
    4ba4:	464e      	mov	r6, r9
    4ba6:	4645      	mov	r5, r8
    4ba8:	46de      	mov	lr, r11
    4baa:	b5e0      	push	{r5, r6, r7, lr}
    4bac:	0247      	lsls	r7, r0, #9
    4bae:	0046      	lsls	r6, r0, #1
    4bb0:	4688      	mov	r8, r1
    4bb2:	0a7f      	lsrs	r7, r7, #9
    4bb4:	0e36      	lsrs	r6, r6, #24
    4bb6:	0fc4      	lsrs	r4, r0, #31
    4bb8:	2e00      	cmp	r6, #0
    4bba:	d047      	beq.n	4c4c <__aeabi_fmul+0xac>
    4bbc:	2eff      	cmp	r6, #255	; 0xff
    4bbe:	d024      	beq.n	4c0a <__aeabi_fmul+0x6a>
    4bc0:	00fb      	lsls	r3, r7, #3
    4bc2:	2780      	movs	r7, #128	; 0x80
    4bc4:	04ff      	lsls	r7, r7, #19
    4bc6:	431f      	orrs	r7, r3
    4bc8:	2300      	movs	r3, #0
    4bca:	4699      	mov	r9, r3
    4bcc:	469a      	mov	r10, r3
    4bce:	3e7f      	subs	r6, #127	; 0x7f
    4bd0:	4643      	mov	r3, r8
    4bd2:	025d      	lsls	r5, r3, #9
    4bd4:	0058      	lsls	r0, r3, #1
    4bd6:	0fdb      	lsrs	r3, r3, #31
    4bd8:	0a6d      	lsrs	r5, r5, #9
    4bda:	0e00      	lsrs	r0, r0, #24
    4bdc:	4698      	mov	r8, r3
    4bde:	d043      	beq.n	4c68 <__aeabi_fmul+0xc8>
    4be0:	28ff      	cmp	r0, #255	; 0xff
    4be2:	d03b      	beq.n	4c5c <__aeabi_fmul+0xbc>
    4be4:	00eb      	lsls	r3, r5, #3
    4be6:	2580      	movs	r5, #128	; 0x80
    4be8:	2200      	movs	r2, #0
    4bea:	04ed      	lsls	r5, r5, #19
    4bec:	431d      	orrs	r5, r3
    4bee:	387f      	subs	r0, #127	; 0x7f
    4bf0:	1836      	adds	r6, r6, r0
    4bf2:	1c73      	adds	r3, r6, #1
    4bf4:	4641      	mov	r1, r8
    4bf6:	469b      	mov	r11, r3
    4bf8:	464b      	mov	r3, r9
    4bfa:	4061      	eors	r1, r4
    4bfc:	4313      	orrs	r3, r2
    4bfe:	2b0f      	cmp	r3, #15
    4c00:	d864      	bhi.n	4ccc <__aeabi_fmul+0x12c>
    4c02:	4875      	ldr	r0, [pc, #468]	; (4dd8 <__aeabi_fmul+0x238>)
    4c04:	009b      	lsls	r3, r3, #2
    4c06:	58c3      	ldr	r3, [r0, r3]
    4c08:	469f      	mov	pc, r3
    4c0a:	2f00      	cmp	r7, #0
    4c0c:	d142      	bne.n	4c94 <__aeabi_fmul+0xf4>
    4c0e:	2308      	movs	r3, #8
    4c10:	4699      	mov	r9, r3
    4c12:	3b06      	subs	r3, #6
    4c14:	26ff      	movs	r6, #255	; 0xff
    4c16:	469a      	mov	r10, r3
    4c18:	e7da      	b.n	4bd0 <__aeabi_fmul+0x30>
    4c1a:	4641      	mov	r1, r8
    4c1c:	2a02      	cmp	r2, #2
    4c1e:	d028      	beq.n	4c72 <__aeabi_fmul+0xd2>
    4c20:	2a03      	cmp	r2, #3
    4c22:	d100      	bne.n	4c26 <__aeabi_fmul+0x86>
    4c24:	e0ce      	b.n	4dc4 <__aeabi_fmul+0x224>
    4c26:	2a01      	cmp	r2, #1
    4c28:	d000      	beq.n	4c2c <__aeabi_fmul+0x8c>
    4c2a:	e0ac      	b.n	4d86 <__aeabi_fmul+0x1e6>
    4c2c:	4011      	ands	r1, r2
    4c2e:	2000      	movs	r0, #0
    4c30:	2200      	movs	r2, #0
    4c32:	b2cc      	uxtb	r4, r1
    4c34:	0240      	lsls	r0, r0, #9
    4c36:	05d2      	lsls	r2, r2, #23
    4c38:	0a40      	lsrs	r0, r0, #9
    4c3a:	07e4      	lsls	r4, r4, #31
    4c3c:	4310      	orrs	r0, r2
    4c3e:	4320      	orrs	r0, r4
    4c40:	bc3c      	pop	{r2, r3, r4, r5}
    4c42:	4690      	mov	r8, r2
    4c44:	4699      	mov	r9, r3
    4c46:	46a2      	mov	r10, r4
    4c48:	46ab      	mov	r11, r5
    4c4a:	bdf8      	pop	{r3, r4, r5, r6, r7, pc}
    4c4c:	2f00      	cmp	r7, #0
    4c4e:	d115      	bne.n	4c7c <__aeabi_fmul+0xdc>
    4c50:	2304      	movs	r3, #4
    4c52:	4699      	mov	r9, r3
    4c54:	3b03      	subs	r3, #3
    4c56:	2600      	movs	r6, #0
    4c58:	469a      	mov	r10, r3
    4c5a:	e7b9      	b.n	4bd0 <__aeabi_fmul+0x30>
    4c5c:	20ff      	movs	r0, #255	; 0xff
    4c5e:	2202      	movs	r2, #2
    4c60:	2d00      	cmp	r5, #0
    4c62:	d0c5      	beq.n	4bf0 <__aeabi_fmul+0x50>
    4c64:	2203      	movs	r2, #3
    4c66:	e7c3      	b.n	4bf0 <__aeabi_fmul+0x50>
    4c68:	2d00      	cmp	r5, #0
    4c6a:	d119      	bne.n	4ca0 <__aeabi_fmul+0x100>
    4c6c:	2000      	movs	r0, #0
    4c6e:	2201      	movs	r2, #1
    4c70:	e7be      	b.n	4bf0 <__aeabi_fmul+0x50>
    4c72:	2401      	movs	r4, #1
    4c74:	22ff      	movs	r2, #255	; 0xff
    4c76:	400c      	ands	r4, r1
    4c78:	2000      	movs	r0, #0
    4c7a:	e7db      	b.n	4c34 <__aeabi_fmul+0x94>
    4c7c:	0038      	movs	r0, r7
    4c7e:	f001 fc83 	bl	6588 <__clzsi2>
    4c82:	2676      	movs	r6, #118	; 0x76
    4c84:	1f43      	subs	r3, r0, #5
    4c86:	409f      	lsls	r7, r3
    4c88:	2300      	movs	r3, #0
    4c8a:	4276      	negs	r6, r6
    4c8c:	1a36      	subs	r6, r6, r0
    4c8e:	4699      	mov	r9, r3
    4c90:	469a      	mov	r10, r3
    4c92:	e79d      	b.n	4bd0 <__aeabi_fmul+0x30>
    4c94:	230c      	movs	r3, #12
    4c96:	4699      	mov	r9, r3
    4c98:	3b09      	subs	r3, #9
    4c9a:	26ff      	movs	r6, #255	; 0xff
    4c9c:	469a      	mov	r10, r3
    4c9e:	e797      	b.n	4bd0 <__aeabi_fmul+0x30>
    4ca0:	0028      	movs	r0, r5
    4ca2:	f001 fc71 	bl	6588 <__clzsi2>
    4ca6:	1f43      	subs	r3, r0, #5
    4ca8:	409d      	lsls	r5, r3
    4caa:	2376      	movs	r3, #118	; 0x76
    4cac:	425b      	negs	r3, r3
    4cae:	1a18      	subs	r0, r3, r0
    4cb0:	2200      	movs	r2, #0
    4cb2:	e79d      	b.n	4bf0 <__aeabi_fmul+0x50>
    4cb4:	2080      	movs	r0, #128	; 0x80
    4cb6:	2400      	movs	r4, #0
    4cb8:	03c0      	lsls	r0, r0, #15
    4cba:	22ff      	movs	r2, #255	; 0xff
    4cbc:	e7ba      	b.n	4c34 <__aeabi_fmul+0x94>
    4cbe:	003d      	movs	r5, r7
    4cc0:	4652      	mov	r2, r10
    4cc2:	e7ab      	b.n	4c1c <__aeabi_fmul+0x7c>
    4cc4:	003d      	movs	r5, r7
    4cc6:	0021      	movs	r1, r4
    4cc8:	4652      	mov	r2, r10
    4cca:	e7a7      	b.n	4c1c <__aeabi_fmul+0x7c>
    4ccc:	0c3b      	lsrs	r3, r7, #16
    4cce:	469c      	mov	r12, r3
    4cd0:	042a      	lsls	r2, r5, #16
    4cd2:	0c12      	lsrs	r2, r2, #16
    4cd4:	0c2b      	lsrs	r3, r5, #16
    4cd6:	0014      	movs	r4, r2
    4cd8:	4660      	mov	r0, r12
    4cda:	4665      	mov	r5, r12
    4cdc:	043f      	lsls	r7, r7, #16
    4cde:	0c3f      	lsrs	r7, r7, #16
    4ce0:	437c      	muls	r4, r7
    4ce2:	4342      	muls	r2, r0
    4ce4:	435d      	muls	r5, r3
    4ce6:	437b      	muls	r3, r7
    4ce8:	0c27      	lsrs	r7, r4, #16
    4cea:	189b      	adds	r3, r3, r2
    4cec:	18ff      	adds	r7, r7, r3
    4cee:	42ba      	cmp	r2, r7
    4cf0:	d903      	bls.n	4cfa <__aeabi_fmul+0x15a>
    4cf2:	2380      	movs	r3, #128	; 0x80
    4cf4:	025b      	lsls	r3, r3, #9
    4cf6:	469c      	mov	r12, r3
    4cf8:	4465      	add	r5, r12
    4cfa:	0424      	lsls	r4, r4, #16
    4cfc:	043a      	lsls	r2, r7, #16
    4cfe:	0c24      	lsrs	r4, r4, #16
    4d00:	1912      	adds	r2, r2, r4
    4d02:	0193      	lsls	r3, r2, #6
    4d04:	1e5c      	subs	r4, r3, #1
    4d06:	41a3      	sbcs	r3, r4
    4d08:	0c3f      	lsrs	r7, r7, #16
    4d0a:	0e92      	lsrs	r2, r2, #26
    4d0c:	197d      	adds	r5, r7, r5
    4d0e:	431a      	orrs	r2, r3
    4d10:	01ad      	lsls	r5, r5, #6
    4d12:	4315      	orrs	r5, r2
    4d14:	012b      	lsls	r3, r5, #4
    4d16:	d504      	bpl.n	4d22 <__aeabi_fmul+0x182>
    4d18:	2301      	movs	r3, #1
    4d1a:	465e      	mov	r6, r11
    4d1c:	086a      	lsrs	r2, r5, #1
    4d1e:	401d      	ands	r5, r3
    4d20:	4315      	orrs	r5, r2
    4d22:	0032      	movs	r2, r6
    4d24:	327f      	adds	r2, #127	; 0x7f
    4d26:	2a00      	cmp	r2, #0
    4d28:	dd25      	ble.n	4d76 <__aeabi_fmul+0x1d6>
    4d2a:	076b      	lsls	r3, r5, #29
    4d2c:	d004      	beq.n	4d38 <__aeabi_fmul+0x198>
    4d2e:	230f      	movs	r3, #15
    4d30:	402b      	ands	r3, r5
    4d32:	2b04      	cmp	r3, #4
    4d34:	d000      	beq.n	4d38 <__aeabi_fmul+0x198>
    4d36:	3504      	adds	r5, #4
    4d38:	012b      	lsls	r3, r5, #4
    4d3a:	d503      	bpl.n	4d44 <__aeabi_fmul+0x1a4>
    4d3c:	0032      	movs	r2, r6
    4d3e:	4b27      	ldr	r3, [pc, #156]	; (4ddc <__aeabi_fmul+0x23c>)
    4d40:	3280      	adds	r2, #128	; 0x80
    4d42:	401d      	ands	r5, r3
    4d44:	2afe      	cmp	r2, #254	; 0xfe
    4d46:	dc94      	bgt.n	4c72 <__aeabi_fmul+0xd2>
    4d48:	2401      	movs	r4, #1
    4d4a:	01a8      	lsls	r0, r5, #6
    4d4c:	0a40      	lsrs	r0, r0, #9
    4d4e:	b2d2      	uxtb	r2, r2
    4d50:	400c      	ands	r4, r1
    4d52:	e76f      	b.n	4c34 <__aeabi_fmul+0x94>
    4d54:	2080      	movs	r0, #128	; 0x80
    4d56:	03c0      	lsls	r0, r0, #15
    4d58:	4207      	tst	r7, r0
    4d5a:	d007      	beq.n	4d6c <__aeabi_fmul+0x1cc>
    4d5c:	4205      	tst	r5, r0
    4d5e:	d105      	bne.n	4d6c <__aeabi_fmul+0x1cc>
    4d60:	4328      	orrs	r0, r5
    4d62:	0240      	lsls	r0, r0, #9
    4d64:	0a40      	lsrs	r0, r0, #9
    4d66:	4644      	mov	r4, r8
    4d68:	22ff      	movs	r2, #255	; 0xff
    4d6a:	e763      	b.n	4c34 <__aeabi_fmul+0x94>
    4d6c:	4338      	orrs	r0, r7
    4d6e:	0240      	lsls	r0, r0, #9
    4d70:	0a40      	lsrs	r0, r0, #9
    4d72:	22ff      	movs	r2, #255	; 0xff
    4d74:	e75e      	b.n	4c34 <__aeabi_fmul+0x94>
    4d76:	2401      	movs	r4, #1
    4d78:	1aa3      	subs	r3, r4, r2
    4d7a:	2b1b      	cmp	r3, #27
    4d7c:	dd05      	ble.n	4d8a <__aeabi_fmul+0x1ea>
    4d7e:	400c      	ands	r4, r1
    4d80:	2200      	movs	r2, #0
    4d82:	2000      	movs	r0, #0
    4d84:	e756      	b.n	4c34 <__aeabi_fmul+0x94>
    4d86:	465e      	mov	r6, r11
    4d88:	e7cb      	b.n	4d22 <__aeabi_fmul+0x182>
    4d8a:	002a      	movs	r2, r5
    4d8c:	2020      	movs	r0, #32
    4d8e:	40da      	lsrs	r2, r3
    4d90:	1ac3      	subs	r3, r0, r3
    4d92:	409d      	lsls	r5, r3
    4d94:	002b      	movs	r3, r5
    4d96:	1e5d      	subs	r5, r3, #1
    4d98:	41ab      	sbcs	r3, r5
    4d9a:	4313      	orrs	r3, r2
    4d9c:	075a      	lsls	r2, r3, #29
    4d9e:	d004      	beq.n	4daa <__aeabi_fmul+0x20a>
    4da0:	220f      	movs	r2, #15
    4da2:	401a      	ands	r2, r3
    4da4:	2a04      	cmp	r2, #4
    4da6:	d000      	beq.n	4daa <__aeabi_fmul+0x20a>
    4da8:	3304      	adds	r3, #4
    4daa:	015a      	lsls	r2, r3, #5
    4dac:	d504      	bpl.n	4db8 <__aeabi_fmul+0x218>
    4dae:	2401      	movs	r4, #1
    4db0:	2201      	movs	r2, #1
    4db2:	400c      	ands	r4, r1
    4db4:	2000      	movs	r0, #0
    4db6:	e73d      	b.n	4c34 <__aeabi_fmul+0x94>
    4db8:	2401      	movs	r4, #1
    4dba:	019b      	lsls	r3, r3, #6
    4dbc:	0a58      	lsrs	r0, r3, #9
    4dbe:	400c      	ands	r4, r1
    4dc0:	2200      	movs	r2, #0
    4dc2:	e737      	b.n	4c34 <__aeabi_fmul+0x94>
    4dc4:	2080      	movs	r0, #128	; 0x80
    4dc6:	2401      	movs	r4, #1
    4dc8:	03c0      	lsls	r0, r0, #15
    4dca:	4328      	orrs	r0, r5
    4dcc:	0240      	lsls	r0, r0, #9
    4dce:	0a40      	lsrs	r0, r0, #9
    4dd0:	400c      	ands	r4, r1
    4dd2:	22ff      	movs	r2, #255	; 0xff
    4dd4:	e72e      	b.n	4c34 <__aeabi_fmul+0x94>
    4dd6:	46c0      	nop			; (mov r8, r8)
    4dd8:	00007a34 	.word	0x00007a34
    4ddc:	f7ffffff 	.word	0xf7ffffff

00004de0 <__aeabi_fsub>:
    4de0:	b5f0      	push	{r4, r5, r6, r7, lr}
    4de2:	464f      	mov	r7, r9
    4de4:	46d6      	mov	lr, r10
    4de6:	4646      	mov	r6, r8
    4de8:	0044      	lsls	r4, r0, #1
    4dea:	b5c0      	push	{r6, r7, lr}
    4dec:	0fc2      	lsrs	r2, r0, #31
    4dee:	0247      	lsls	r7, r0, #9
    4df0:	0248      	lsls	r0, r1, #9
    4df2:	0a40      	lsrs	r0, r0, #9
    4df4:	4684      	mov	r12, r0
    4df6:	4666      	mov	r6, r12
    4df8:	0a7b      	lsrs	r3, r7, #9
    4dfa:	0048      	lsls	r0, r1, #1
    4dfc:	0fc9      	lsrs	r1, r1, #31
    4dfe:	469a      	mov	r10, r3
    4e00:	0e24      	lsrs	r4, r4, #24
    4e02:	0015      	movs	r5, r2
    4e04:	00db      	lsls	r3, r3, #3
    4e06:	0e00      	lsrs	r0, r0, #24
    4e08:	4689      	mov	r9, r1
    4e0a:	00f6      	lsls	r6, r6, #3
    4e0c:	28ff      	cmp	r0, #255	; 0xff
    4e0e:	d100      	bne.n	4e12 <__aeabi_fsub+0x32>
    4e10:	e08f      	b.n	4f32 <__aeabi_fsub+0x152>
    4e12:	2101      	movs	r1, #1
    4e14:	464f      	mov	r7, r9
    4e16:	404f      	eors	r7, r1
    4e18:	0039      	movs	r1, r7
    4e1a:	4291      	cmp	r1, r2
    4e1c:	d066      	beq.n	4eec <__aeabi_fsub+0x10c>
    4e1e:	1a22      	subs	r2, r4, r0
    4e20:	2a00      	cmp	r2, #0
    4e22:	dc00      	bgt.n	4e26 <__aeabi_fsub+0x46>
    4e24:	e09d      	b.n	4f62 <__aeabi_fsub+0x182>
    4e26:	2800      	cmp	r0, #0
    4e28:	d13d      	bne.n	4ea6 <__aeabi_fsub+0xc6>
    4e2a:	2e00      	cmp	r6, #0
    4e2c:	d100      	bne.n	4e30 <__aeabi_fsub+0x50>
    4e2e:	e08b      	b.n	4f48 <__aeabi_fsub+0x168>
    4e30:	1e51      	subs	r1, r2, #1
    4e32:	2900      	cmp	r1, #0
    4e34:	d000      	beq.n	4e38 <__aeabi_fsub+0x58>
    4e36:	e0b5      	b.n	4fa4 <__aeabi_fsub+0x1c4>
    4e38:	2401      	movs	r4, #1
    4e3a:	1b9b      	subs	r3, r3, r6
    4e3c:	015a      	lsls	r2, r3, #5
    4e3e:	d544      	bpl.n	4eca <__aeabi_fsub+0xea>
    4e40:	019b      	lsls	r3, r3, #6
    4e42:	099f      	lsrs	r7, r3, #6
    4e44:	0038      	movs	r0, r7
    4e46:	f001 fb9f 	bl	6588 <__clzsi2>
    4e4a:	3805      	subs	r0, #5
    4e4c:	4087      	lsls	r7, r0
    4e4e:	4284      	cmp	r4, r0
    4e50:	dd00      	ble.n	4e54 <__aeabi_fsub+0x74>
    4e52:	e096      	b.n	4f82 <__aeabi_fsub+0x1a2>
    4e54:	1b04      	subs	r4, r0, r4
    4e56:	003a      	movs	r2, r7
    4e58:	2020      	movs	r0, #32
    4e5a:	3401      	adds	r4, #1
    4e5c:	40e2      	lsrs	r2, r4
    4e5e:	1b04      	subs	r4, r0, r4
    4e60:	40a7      	lsls	r7, r4
    4e62:	003b      	movs	r3, r7
    4e64:	1e5f      	subs	r7, r3, #1
    4e66:	41bb      	sbcs	r3, r7
    4e68:	2400      	movs	r4, #0
    4e6a:	4313      	orrs	r3, r2
    4e6c:	075a      	lsls	r2, r3, #29
    4e6e:	d004      	beq.n	4e7a <__aeabi_fsub+0x9a>
    4e70:	220f      	movs	r2, #15
    4e72:	401a      	ands	r2, r3
    4e74:	2a04      	cmp	r2, #4
    4e76:	d000      	beq.n	4e7a <__aeabi_fsub+0x9a>
    4e78:	3304      	adds	r3, #4
    4e7a:	015a      	lsls	r2, r3, #5
    4e7c:	d527      	bpl.n	4ece <__aeabi_fsub+0xee>
    4e7e:	3401      	adds	r4, #1
    4e80:	2cff      	cmp	r4, #255	; 0xff
    4e82:	d100      	bne.n	4e86 <__aeabi_fsub+0xa6>
    4e84:	e079      	b.n	4f7a <__aeabi_fsub+0x19a>
    4e86:	2201      	movs	r2, #1
    4e88:	019b      	lsls	r3, r3, #6
    4e8a:	0a5b      	lsrs	r3, r3, #9
    4e8c:	b2e4      	uxtb	r4, r4
    4e8e:	402a      	ands	r2, r5
    4e90:	025b      	lsls	r3, r3, #9
    4e92:	05e4      	lsls	r4, r4, #23
    4e94:	0a58      	lsrs	r0, r3, #9
    4e96:	07d2      	lsls	r2, r2, #31
    4e98:	4320      	orrs	r0, r4
    4e9a:	4310      	orrs	r0, r2
    4e9c:	bc1c      	pop	{r2, r3, r4}
    4e9e:	4690      	mov	r8, r2
    4ea0:	4699      	mov	r9, r3
    4ea2:	46a2      	mov	r10, r4
    4ea4:	bdf0      	pop	{r4, r5, r6, r7, pc}
    4ea6:	2cff      	cmp	r4, #255	; 0xff
    4ea8:	d0e0      	beq.n	4e6c <__aeabi_fsub+0x8c>
    4eaa:	2180      	movs	r1, #128	; 0x80
    4eac:	04c9      	lsls	r1, r1, #19
    4eae:	430e      	orrs	r6, r1
    4eb0:	2a1b      	cmp	r2, #27
    4eb2:	dc7b      	bgt.n	4fac <__aeabi_fsub+0x1cc>
    4eb4:	0031      	movs	r1, r6
    4eb6:	2020      	movs	r0, #32
    4eb8:	40d1      	lsrs	r1, r2
    4eba:	1a82      	subs	r2, r0, r2
    4ebc:	4096      	lsls	r6, r2
    4ebe:	1e72      	subs	r2, r6, #1
    4ec0:	4196      	sbcs	r6, r2
    4ec2:	430e      	orrs	r6, r1
    4ec4:	1b9b      	subs	r3, r3, r6
    4ec6:	015a      	lsls	r2, r3, #5
    4ec8:	d4ba      	bmi.n	4e40 <__aeabi_fsub+0x60>
    4eca:	075a      	lsls	r2, r3, #29
    4ecc:	d1d0      	bne.n	4e70 <__aeabi_fsub+0x90>
    4ece:	2201      	movs	r2, #1
    4ed0:	08df      	lsrs	r7, r3, #3
    4ed2:	402a      	ands	r2, r5
    4ed4:	2cff      	cmp	r4, #255	; 0xff
    4ed6:	d133      	bne.n	4f40 <__aeabi_fsub+0x160>
    4ed8:	2f00      	cmp	r7, #0
    4eda:	d100      	bne.n	4ede <__aeabi_fsub+0xfe>
    4edc:	e0a8      	b.n	5030 <__aeabi_fsub+0x250>
    4ede:	2380      	movs	r3, #128	; 0x80
    4ee0:	03db      	lsls	r3, r3, #15
    4ee2:	433b      	orrs	r3, r7
    4ee4:	025b      	lsls	r3, r3, #9
    4ee6:	0a5b      	lsrs	r3, r3, #9
    4ee8:	24ff      	movs	r4, #255	; 0xff
    4eea:	e7d1      	b.n	4e90 <__aeabi_fsub+0xb0>
    4eec:	1a21      	subs	r1, r4, r0
    4eee:	2900      	cmp	r1, #0
    4ef0:	dd4c      	ble.n	4f8c <__aeabi_fsub+0x1ac>
    4ef2:	2800      	cmp	r0, #0
    4ef4:	d02a      	beq.n	4f4c <__aeabi_fsub+0x16c>
    4ef6:	2cff      	cmp	r4, #255	; 0xff
    4ef8:	d0b8      	beq.n	4e6c <__aeabi_fsub+0x8c>
    4efa:	2080      	movs	r0, #128	; 0x80
    4efc:	04c0      	lsls	r0, r0, #19
    4efe:	4306      	orrs	r6, r0
    4f00:	291b      	cmp	r1, #27
    4f02:	dd00      	ble.n	4f06 <__aeabi_fsub+0x126>
    4f04:	e0af      	b.n	5066 <__aeabi_fsub+0x286>
    4f06:	0030      	movs	r0, r6
    4f08:	2720      	movs	r7, #32
    4f0a:	40c8      	lsrs	r0, r1
    4f0c:	1a79      	subs	r1, r7, r1
    4f0e:	408e      	lsls	r6, r1
    4f10:	1e71      	subs	r1, r6, #1
    4f12:	418e      	sbcs	r6, r1
    4f14:	4306      	orrs	r6, r0
    4f16:	199b      	adds	r3, r3, r6
    4f18:	0159      	lsls	r1, r3, #5
    4f1a:	d5d6      	bpl.n	4eca <__aeabi_fsub+0xea>
    4f1c:	3401      	adds	r4, #1
    4f1e:	2cff      	cmp	r4, #255	; 0xff
    4f20:	d100      	bne.n	4f24 <__aeabi_fsub+0x144>
    4f22:	e085      	b.n	5030 <__aeabi_fsub+0x250>
    4f24:	2201      	movs	r2, #1
    4f26:	497a      	ldr	r1, [pc, #488]	; (5110 <__aeabi_fsub+0x330>)
    4f28:	401a      	ands	r2, r3
    4f2a:	085b      	lsrs	r3, r3, #1
    4f2c:	400b      	ands	r3, r1
    4f2e:	4313      	orrs	r3, r2
    4f30:	e79c      	b.n	4e6c <__aeabi_fsub+0x8c>
    4f32:	2e00      	cmp	r6, #0
    4f34:	d000      	beq.n	4f38 <__aeabi_fsub+0x158>
    4f36:	e770      	b.n	4e1a <__aeabi_fsub+0x3a>
    4f38:	e76b      	b.n	4e12 <__aeabi_fsub+0x32>
    4f3a:	1e3b      	subs	r3, r7, #0
    4f3c:	d1c5      	bne.n	4eca <__aeabi_fsub+0xea>
    4f3e:	2200      	movs	r2, #0
    4f40:	027b      	lsls	r3, r7, #9
    4f42:	0a5b      	lsrs	r3, r3, #9
    4f44:	b2e4      	uxtb	r4, r4
    4f46:	e7a3      	b.n	4e90 <__aeabi_fsub+0xb0>
    4f48:	0014      	movs	r4, r2
    4f4a:	e78f      	b.n	4e6c <__aeabi_fsub+0x8c>
    4f4c:	2e00      	cmp	r6, #0
    4f4e:	d04d      	beq.n	4fec <__aeabi_fsub+0x20c>
    4f50:	1e48      	subs	r0, r1, #1
    4f52:	2800      	cmp	r0, #0
    4f54:	d157      	bne.n	5006 <__aeabi_fsub+0x226>
    4f56:	199b      	adds	r3, r3, r6
    4f58:	2401      	movs	r4, #1
    4f5a:	015a      	lsls	r2, r3, #5
    4f5c:	d5b5      	bpl.n	4eca <__aeabi_fsub+0xea>
    4f5e:	2402      	movs	r4, #2
    4f60:	e7e0      	b.n	4f24 <__aeabi_fsub+0x144>
    4f62:	2a00      	cmp	r2, #0
    4f64:	d125      	bne.n	4fb2 <__aeabi_fsub+0x1d2>
    4f66:	1c62      	adds	r2, r4, #1
    4f68:	b2d2      	uxtb	r2, r2
    4f6a:	2a01      	cmp	r2, #1
    4f6c:	dd72      	ble.n	5054 <__aeabi_fsub+0x274>
    4f6e:	1b9f      	subs	r7, r3, r6
    4f70:	017a      	lsls	r2, r7, #5
    4f72:	d535      	bpl.n	4fe0 <__aeabi_fsub+0x200>
    4f74:	1af7      	subs	r7, r6, r3
    4f76:	000d      	movs	r5, r1
    4f78:	e764      	b.n	4e44 <__aeabi_fsub+0x64>
    4f7a:	2201      	movs	r2, #1
    4f7c:	2300      	movs	r3, #0
    4f7e:	402a      	ands	r2, r5
    4f80:	e786      	b.n	4e90 <__aeabi_fsub+0xb0>
    4f82:	003b      	movs	r3, r7
    4f84:	4a63      	ldr	r2, [pc, #396]	; (5114 <__aeabi_fsub+0x334>)
    4f86:	1a24      	subs	r4, r4, r0
    4f88:	4013      	ands	r3, r2
    4f8a:	e76f      	b.n	4e6c <__aeabi_fsub+0x8c>
    4f8c:	2900      	cmp	r1, #0
    4f8e:	d16c      	bne.n	506a <__aeabi_fsub+0x28a>
    4f90:	1c61      	adds	r1, r4, #1
    4f92:	b2c8      	uxtb	r0, r1
    4f94:	2801      	cmp	r0, #1
    4f96:	dd4e      	ble.n	5036 <__aeabi_fsub+0x256>
    4f98:	29ff      	cmp	r1, #255	; 0xff
    4f9a:	d049      	beq.n	5030 <__aeabi_fsub+0x250>
    4f9c:	199b      	adds	r3, r3, r6
    4f9e:	085b      	lsrs	r3, r3, #1
    4fa0:	000c      	movs	r4, r1
    4fa2:	e763      	b.n	4e6c <__aeabi_fsub+0x8c>
    4fa4:	2aff      	cmp	r2, #255	; 0xff
    4fa6:	d041      	beq.n	502c <__aeabi_fsub+0x24c>
    4fa8:	000a      	movs	r2, r1
    4faa:	e781      	b.n	4eb0 <__aeabi_fsub+0xd0>
    4fac:	2601      	movs	r6, #1
    4fae:	1b9b      	subs	r3, r3, r6
    4fb0:	e789      	b.n	4ec6 <__aeabi_fsub+0xe6>
    4fb2:	2c00      	cmp	r4, #0
    4fb4:	d01c      	beq.n	4ff0 <__aeabi_fsub+0x210>
    4fb6:	28ff      	cmp	r0, #255	; 0xff
    4fb8:	d021      	beq.n	4ffe <__aeabi_fsub+0x21e>
    4fba:	2480      	movs	r4, #128	; 0x80
    4fbc:	04e4      	lsls	r4, r4, #19
    4fbe:	4252      	negs	r2, r2
    4fc0:	4323      	orrs	r3, r4
    4fc2:	2a1b      	cmp	r2, #27
    4fc4:	dd00      	ble.n	4fc8 <__aeabi_fsub+0x1e8>
    4fc6:	e096      	b.n	50f6 <__aeabi_fsub+0x316>
    4fc8:	001c      	movs	r4, r3
    4fca:	2520      	movs	r5, #32
    4fcc:	40d4      	lsrs	r4, r2
    4fce:	1aaa      	subs	r2, r5, r2
    4fd0:	4093      	lsls	r3, r2
    4fd2:	1e5a      	subs	r2, r3, #1
    4fd4:	4193      	sbcs	r3, r2
    4fd6:	4323      	orrs	r3, r4
    4fd8:	1af3      	subs	r3, r6, r3
    4fda:	0004      	movs	r4, r0
    4fdc:	000d      	movs	r5, r1
    4fde:	e72d      	b.n	4e3c <__aeabi_fsub+0x5c>
    4fe0:	2f00      	cmp	r7, #0
    4fe2:	d000      	beq.n	4fe6 <__aeabi_fsub+0x206>
    4fe4:	e72e      	b.n	4e44 <__aeabi_fsub+0x64>
    4fe6:	2200      	movs	r2, #0
    4fe8:	2400      	movs	r4, #0
    4fea:	e7a9      	b.n	4f40 <__aeabi_fsub+0x160>
    4fec:	000c      	movs	r4, r1
    4fee:	e73d      	b.n	4e6c <__aeabi_fsub+0x8c>
    4ff0:	2b00      	cmp	r3, #0
    4ff2:	d058      	beq.n	50a6 <__aeabi_fsub+0x2c6>
    4ff4:	43d2      	mvns	r2, r2
    4ff6:	2a00      	cmp	r2, #0
    4ff8:	d0ee      	beq.n	4fd8 <__aeabi_fsub+0x1f8>
    4ffa:	28ff      	cmp	r0, #255	; 0xff
    4ffc:	d1e1      	bne.n	4fc2 <__aeabi_fsub+0x1e2>
    4ffe:	0033      	movs	r3, r6
    5000:	24ff      	movs	r4, #255	; 0xff
    5002:	000d      	movs	r5, r1
    5004:	e732      	b.n	4e6c <__aeabi_fsub+0x8c>
    5006:	29ff      	cmp	r1, #255	; 0xff
    5008:	d010      	beq.n	502c <__aeabi_fsub+0x24c>
    500a:	0001      	movs	r1, r0
    500c:	e778      	b.n	4f00 <__aeabi_fsub+0x120>
    500e:	2b00      	cmp	r3, #0
    5010:	d06e      	beq.n	50f0 <__aeabi_fsub+0x310>
    5012:	24ff      	movs	r4, #255	; 0xff
    5014:	2e00      	cmp	r6, #0
    5016:	d100      	bne.n	501a <__aeabi_fsub+0x23a>
    5018:	e728      	b.n	4e6c <__aeabi_fsub+0x8c>
    501a:	2280      	movs	r2, #128	; 0x80
    501c:	4651      	mov	r1, r10
    501e:	03d2      	lsls	r2, r2, #15
    5020:	4211      	tst	r1, r2
    5022:	d003      	beq.n	502c <__aeabi_fsub+0x24c>
    5024:	4661      	mov	r1, r12
    5026:	4211      	tst	r1, r2
    5028:	d100      	bne.n	502c <__aeabi_fsub+0x24c>
    502a:	0033      	movs	r3, r6
    502c:	24ff      	movs	r4, #255	; 0xff
    502e:	e71d      	b.n	4e6c <__aeabi_fsub+0x8c>
    5030:	24ff      	movs	r4, #255	; 0xff
    5032:	2300      	movs	r3, #0
    5034:	e72c      	b.n	4e90 <__aeabi_fsub+0xb0>
    5036:	2c00      	cmp	r4, #0
    5038:	d1e9      	bne.n	500e <__aeabi_fsub+0x22e>
    503a:	2b00      	cmp	r3, #0
    503c:	d063      	beq.n	5106 <__aeabi_fsub+0x326>
    503e:	2e00      	cmp	r6, #0
    5040:	d100      	bne.n	5044 <__aeabi_fsub+0x264>
    5042:	e713      	b.n	4e6c <__aeabi_fsub+0x8c>
    5044:	199b      	adds	r3, r3, r6
    5046:	015a      	lsls	r2, r3, #5
    5048:	d400      	bmi.n	504c <__aeabi_fsub+0x26c>
    504a:	e73e      	b.n	4eca <__aeabi_fsub+0xea>
    504c:	4a31      	ldr	r2, [pc, #196]	; (5114 <__aeabi_fsub+0x334>)
    504e:	000c      	movs	r4, r1
    5050:	4013      	ands	r3, r2
    5052:	e70b      	b.n	4e6c <__aeabi_fsub+0x8c>
    5054:	2c00      	cmp	r4, #0
    5056:	d11e      	bne.n	5096 <__aeabi_fsub+0x2b6>
    5058:	2b00      	cmp	r3, #0
    505a:	d12f      	bne.n	50bc <__aeabi_fsub+0x2dc>
    505c:	2e00      	cmp	r6, #0
    505e:	d04f      	beq.n	5100 <__aeabi_fsub+0x320>
    5060:	0033      	movs	r3, r6
    5062:	000d      	movs	r5, r1
    5064:	e702      	b.n	4e6c <__aeabi_fsub+0x8c>
    5066:	2601      	movs	r6, #1
    5068:	e755      	b.n	4f16 <__aeabi_fsub+0x136>
    506a:	2c00      	cmp	r4, #0
    506c:	d11f      	bne.n	50ae <__aeabi_fsub+0x2ce>
    506e:	2b00      	cmp	r3, #0
    5070:	d043      	beq.n	50fa <__aeabi_fsub+0x31a>
    5072:	43c9      	mvns	r1, r1
    5074:	2900      	cmp	r1, #0
    5076:	d00b      	beq.n	5090 <__aeabi_fsub+0x2b0>
    5078:	28ff      	cmp	r0, #255	; 0xff
    507a:	d039      	beq.n	50f0 <__aeabi_fsub+0x310>
    507c:	291b      	cmp	r1, #27
    507e:	dc44      	bgt.n	510a <__aeabi_fsub+0x32a>
    5080:	001c      	movs	r4, r3
    5082:	2720      	movs	r7, #32
    5084:	40cc      	lsrs	r4, r1
    5086:	1a79      	subs	r1, r7, r1
    5088:	408b      	lsls	r3, r1
    508a:	1e59      	subs	r1, r3, #1
    508c:	418b      	sbcs	r3, r1
    508e:	4323      	orrs	r3, r4
    5090:	199b      	adds	r3, r3, r6
    5092:	0004      	movs	r4, r0
    5094:	e740      	b.n	4f18 <__aeabi_fsub+0x138>
    5096:	2b00      	cmp	r3, #0
    5098:	d11a      	bne.n	50d0 <__aeabi_fsub+0x2f0>
    509a:	2e00      	cmp	r6, #0
    509c:	d124      	bne.n	50e8 <__aeabi_fsub+0x308>
    509e:	2780      	movs	r7, #128	; 0x80
    50a0:	2200      	movs	r2, #0
    50a2:	03ff      	lsls	r7, r7, #15
    50a4:	e71b      	b.n	4ede <__aeabi_fsub+0xfe>
    50a6:	0033      	movs	r3, r6
    50a8:	0004      	movs	r4, r0
    50aa:	000d      	movs	r5, r1
    50ac:	e6de      	b.n	4e6c <__aeabi_fsub+0x8c>
    50ae:	28ff      	cmp	r0, #255	; 0xff
    50b0:	d01e      	beq.n	50f0 <__aeabi_fsub+0x310>
    50b2:	2480      	movs	r4, #128	; 0x80
    50b4:	04e4      	lsls	r4, r4, #19
    50b6:	4249      	negs	r1, r1
    50b8:	4323      	orrs	r3, r4
    50ba:	e7df      	b.n	507c <__aeabi_fsub+0x29c>
    50bc:	2e00      	cmp	r6, #0
    50be:	d100      	bne.n	50c2 <__aeabi_fsub+0x2e2>
    50c0:	e6d4      	b.n	4e6c <__aeabi_fsub+0x8c>
    50c2:	1b9f      	subs	r7, r3, r6
    50c4:	017a      	lsls	r2, r7, #5
    50c6:	d400      	bmi.n	50ca <__aeabi_fsub+0x2ea>
    50c8:	e737      	b.n	4f3a <__aeabi_fsub+0x15a>
    50ca:	1af3      	subs	r3, r6, r3
    50cc:	000d      	movs	r5, r1
    50ce:	e6cd      	b.n	4e6c <__aeabi_fsub+0x8c>
    50d0:	24ff      	movs	r4, #255	; 0xff
    50d2:	2e00      	cmp	r6, #0
    50d4:	d100      	bne.n	50d8 <__aeabi_fsub+0x2f8>
    50d6:	e6c9      	b.n	4e6c <__aeabi_fsub+0x8c>
    50d8:	2280      	movs	r2, #128	; 0x80
    50da:	4650      	mov	r0, r10
    50dc:	03d2      	lsls	r2, r2, #15
    50de:	4210      	tst	r0, r2
    50e0:	d0a4      	beq.n	502c <__aeabi_fsub+0x24c>
    50e2:	4660      	mov	r0, r12
    50e4:	4210      	tst	r0, r2
    50e6:	d1a1      	bne.n	502c <__aeabi_fsub+0x24c>
    50e8:	0033      	movs	r3, r6
    50ea:	000d      	movs	r5, r1
    50ec:	24ff      	movs	r4, #255	; 0xff
    50ee:	e6bd      	b.n	4e6c <__aeabi_fsub+0x8c>
    50f0:	0033      	movs	r3, r6
    50f2:	24ff      	movs	r4, #255	; 0xff
    50f4:	e6ba      	b.n	4e6c <__aeabi_fsub+0x8c>
    50f6:	2301      	movs	r3, #1
    50f8:	e76e      	b.n	4fd8 <__aeabi_fsub+0x1f8>
    50fa:	0033      	movs	r3, r6
    50fc:	0004      	movs	r4, r0
    50fe:	e6b5      	b.n	4e6c <__aeabi_fsub+0x8c>
    5100:	2700      	movs	r7, #0
    5102:	2200      	movs	r2, #0
    5104:	e71c      	b.n	4f40 <__aeabi_fsub+0x160>
    5106:	0033      	movs	r3, r6
    5108:	e6b0      	b.n	4e6c <__aeabi_fsub+0x8c>
    510a:	2301      	movs	r3, #1
    510c:	e7c0      	b.n	5090 <__aeabi_fsub+0x2b0>
    510e:	46c0      	nop			; (mov r8, r8)
    5110:	7dffffff 	.word	0x7dffffff
    5114:	fbffffff 	.word	0xfbffffff

00005118 <__aeabi_f2iz>:
    5118:	0241      	lsls	r1, r0, #9
    511a:	0043      	lsls	r3, r0, #1
    511c:	0fc2      	lsrs	r2, r0, #31
    511e:	0a49      	lsrs	r1, r1, #9
    5120:	0e1b      	lsrs	r3, r3, #24
    5122:	2000      	movs	r0, #0
    5124:	2b7e      	cmp	r3, #126	; 0x7e
    5126:	dd0d      	ble.n	5144 <__aeabi_f2iz+0x2c>
    5128:	2b9d      	cmp	r3, #157	; 0x9d
    512a:	dc0c      	bgt.n	5146 <__aeabi_f2iz+0x2e>
    512c:	2080      	movs	r0, #128	; 0x80
    512e:	0400      	lsls	r0, r0, #16
    5130:	4301      	orrs	r1, r0
    5132:	2b95      	cmp	r3, #149	; 0x95
    5134:	dc0a      	bgt.n	514c <__aeabi_f2iz+0x34>
    5136:	2096      	movs	r0, #150	; 0x96
    5138:	1ac3      	subs	r3, r0, r3
    513a:	40d9      	lsrs	r1, r3
    513c:	4248      	negs	r0, r1
    513e:	2a00      	cmp	r2, #0
    5140:	d100      	bne.n	5144 <__aeabi_f2iz+0x2c>
    5142:	0008      	movs	r0, r1
    5144:	4770      	bx	lr
    5146:	4b03      	ldr	r3, [pc, #12]	; (5154 <__aeabi_f2iz+0x3c>)
    5148:	18d0      	adds	r0, r2, r3
    514a:	e7fb      	b.n	5144 <__aeabi_f2iz+0x2c>
    514c:	3b96      	subs	r3, #150	; 0x96
    514e:	4099      	lsls	r1, r3
    5150:	e7f4      	b.n	513c <__aeabi_f2iz+0x24>
    5152:	46c0      	nop			; (mov r8, r8)
    5154:	7fffffff 	.word	0x7fffffff

00005158 <__aeabi_i2f>:
    5158:	b570      	push	{r4, r5, r6, lr}
    515a:	2800      	cmp	r0, #0
    515c:	d030      	beq.n	51c0 <__aeabi_i2f+0x68>
    515e:	17c3      	asrs	r3, r0, #31
    5160:	18c4      	adds	r4, r0, r3
    5162:	405c      	eors	r4, r3
    5164:	0fc5      	lsrs	r5, r0, #31
    5166:	0020      	movs	r0, r4
    5168:	f001 fa0e 	bl	6588 <__clzsi2>
    516c:	239e      	movs	r3, #158	; 0x9e
    516e:	1a1b      	subs	r3, r3, r0
    5170:	2b96      	cmp	r3, #150	; 0x96
    5172:	dc0d      	bgt.n	5190 <__aeabi_i2f+0x38>
    5174:	2296      	movs	r2, #150	; 0x96
    5176:	1ad2      	subs	r2, r2, r3
    5178:	4094      	lsls	r4, r2
    517a:	002a      	movs	r2, r5
    517c:	0264      	lsls	r4, r4, #9
    517e:	0a64      	lsrs	r4, r4, #9
    5180:	b2db      	uxtb	r3, r3
    5182:	0264      	lsls	r4, r4, #9
    5184:	05db      	lsls	r3, r3, #23
    5186:	0a60      	lsrs	r0, r4, #9
    5188:	07d2      	lsls	r2, r2, #31
    518a:	4318      	orrs	r0, r3
    518c:	4310      	orrs	r0, r2
    518e:	bd70      	pop	{r4, r5, r6, pc}
    5190:	2b99      	cmp	r3, #153	; 0x99
    5192:	dc19      	bgt.n	51c8 <__aeabi_i2f+0x70>
    5194:	2299      	movs	r2, #153	; 0x99
    5196:	1ad2      	subs	r2, r2, r3
    5198:	2a00      	cmp	r2, #0
    519a:	dd29      	ble.n	51f0 <__aeabi_i2f+0x98>
    519c:	4094      	lsls	r4, r2
    519e:	0022      	movs	r2, r4
    51a0:	4c14      	ldr	r4, [pc, #80]	; (51f4 <__aeabi_i2f+0x9c>)
    51a2:	4014      	ands	r4, r2
    51a4:	0751      	lsls	r1, r2, #29
    51a6:	d004      	beq.n	51b2 <__aeabi_i2f+0x5a>
    51a8:	210f      	movs	r1, #15
    51aa:	400a      	ands	r2, r1
    51ac:	2a04      	cmp	r2, #4
    51ae:	d000      	beq.n	51b2 <__aeabi_i2f+0x5a>
    51b0:	3404      	adds	r4, #4
    51b2:	0162      	lsls	r2, r4, #5
    51b4:	d413      	bmi.n	51de <__aeabi_i2f+0x86>
    51b6:	01a4      	lsls	r4, r4, #6
    51b8:	0a64      	lsrs	r4, r4, #9
    51ba:	b2db      	uxtb	r3, r3
    51bc:	002a      	movs	r2, r5
    51be:	e7e0      	b.n	5182 <__aeabi_i2f+0x2a>
    51c0:	2200      	movs	r2, #0
    51c2:	2300      	movs	r3, #0
    51c4:	2400      	movs	r4, #0
    51c6:	e7dc      	b.n	5182 <__aeabi_i2f+0x2a>
    51c8:	2205      	movs	r2, #5
    51ca:	0021      	movs	r1, r4
    51cc:	1a12      	subs	r2, r2, r0
    51ce:	40d1      	lsrs	r1, r2
    51d0:	22b9      	movs	r2, #185	; 0xb9
    51d2:	1ad2      	subs	r2, r2, r3
    51d4:	4094      	lsls	r4, r2
    51d6:	1e62      	subs	r2, r4, #1
    51d8:	4194      	sbcs	r4, r2
    51da:	430c      	orrs	r4, r1
    51dc:	e7da      	b.n	5194 <__aeabi_i2f+0x3c>
    51de:	4b05      	ldr	r3, [pc, #20]	; (51f4 <__aeabi_i2f+0x9c>)
    51e0:	002a      	movs	r2, r5
    51e2:	401c      	ands	r4, r3
    51e4:	239f      	movs	r3, #159	; 0x9f
    51e6:	01a4      	lsls	r4, r4, #6
    51e8:	1a1b      	subs	r3, r3, r0
    51ea:	0a64      	lsrs	r4, r4, #9
    51ec:	b2db      	uxtb	r3, r3
    51ee:	e7c8      	b.n	5182 <__aeabi_i2f+0x2a>
    51f0:	0022      	movs	r2, r4
    51f2:	e7d5      	b.n	51a0 <__aeabi_i2f+0x48>
    51f4:	fbffffff 	.word	0xfbffffff

000051f8 <__aeabi_ui2f>:
    51f8:	b510      	push	{r4, lr}
    51fa:	1e04      	subs	r4, r0, #0
    51fc:	d027      	beq.n	524e <__aeabi_ui2f+0x56>
    51fe:	f001 f9c3 	bl	6588 <__clzsi2>
    5202:	239e      	movs	r3, #158	; 0x9e
    5204:	1a1b      	subs	r3, r3, r0
    5206:	2b96      	cmp	r3, #150	; 0x96
    5208:	dc0a      	bgt.n	5220 <__aeabi_ui2f+0x28>
    520a:	2296      	movs	r2, #150	; 0x96
    520c:	1ad2      	subs	r2, r2, r3
    520e:	4094      	lsls	r4, r2
    5210:	0264      	lsls	r4, r4, #9
    5212:	0a64      	lsrs	r4, r4, #9
    5214:	b2db      	uxtb	r3, r3
    5216:	0264      	lsls	r4, r4, #9
    5218:	05db      	lsls	r3, r3, #23
    521a:	0a60      	lsrs	r0, r4, #9
    521c:	4318      	orrs	r0, r3
    521e:	bd10      	pop	{r4, pc}
    5220:	2b99      	cmp	r3, #153	; 0x99
    5222:	dc17      	bgt.n	5254 <__aeabi_ui2f+0x5c>
    5224:	2299      	movs	r2, #153	; 0x99
    5226:	1ad2      	subs	r2, r2, r3
    5228:	2a00      	cmp	r2, #0
    522a:	dd27      	ble.n	527c <__aeabi_ui2f+0x84>
    522c:	4094      	lsls	r4, r2
    522e:	0022      	movs	r2, r4
    5230:	4c13      	ldr	r4, [pc, #76]	; (5280 <__aeabi_ui2f+0x88>)
    5232:	4014      	ands	r4, r2
    5234:	0751      	lsls	r1, r2, #29
    5236:	d004      	beq.n	5242 <__aeabi_ui2f+0x4a>
    5238:	210f      	movs	r1, #15
    523a:	400a      	ands	r2, r1
    523c:	2a04      	cmp	r2, #4
    523e:	d000      	beq.n	5242 <__aeabi_ui2f+0x4a>
    5240:	3404      	adds	r4, #4
    5242:	0162      	lsls	r2, r4, #5
    5244:	d412      	bmi.n	526c <__aeabi_ui2f+0x74>
    5246:	01a4      	lsls	r4, r4, #6
    5248:	0a64      	lsrs	r4, r4, #9
    524a:	b2db      	uxtb	r3, r3
    524c:	e7e3      	b.n	5216 <__aeabi_ui2f+0x1e>
    524e:	2300      	movs	r3, #0
    5250:	2400      	movs	r4, #0
    5252:	e7e0      	b.n	5216 <__aeabi_ui2f+0x1e>
    5254:	22b9      	movs	r2, #185	; 0xb9
    5256:	0021      	movs	r1, r4
    5258:	1ad2      	subs	r2, r2, r3
    525a:	4091      	lsls	r1, r2
    525c:	000a      	movs	r2, r1
    525e:	1e51      	subs	r1, r2, #1
    5260:	418a      	sbcs	r2, r1
    5262:	2105      	movs	r1, #5
    5264:	1a09      	subs	r1, r1, r0
    5266:	40cc      	lsrs	r4, r1
    5268:	4314      	orrs	r4, r2
    526a:	e7db      	b.n	5224 <__aeabi_ui2f+0x2c>
    526c:	4b04      	ldr	r3, [pc, #16]	; (5280 <__aeabi_ui2f+0x88>)
    526e:	401c      	ands	r4, r3
    5270:	239f      	movs	r3, #159	; 0x9f
    5272:	01a4      	lsls	r4, r4, #6
    5274:	1a1b      	subs	r3, r3, r0
    5276:	0a64      	lsrs	r4, r4, #9
    5278:	b2db      	uxtb	r3, r3
    527a:	e7cc      	b.n	5216 <__aeabi_ui2f+0x1e>
    527c:	0022      	movs	r2, r4
    527e:	e7d7      	b.n	5230 <__aeabi_ui2f+0x38>
    5280:	fbffffff 	.word	0xfbffffff

00005284 <__aeabi_dadd>:
    5284:	b5f8      	push	{r3, r4, r5, r6, r7, lr}
    5286:	4645      	mov	r5, r8
    5288:	46de      	mov	lr, r11
    528a:	4657      	mov	r7, r10
    528c:	464e      	mov	r6, r9
    528e:	030c      	lsls	r4, r1, #12
    5290:	b5e0      	push	{r5, r6, r7, lr}
    5292:	004e      	lsls	r6, r1, #1
    5294:	0fc9      	lsrs	r1, r1, #31
    5296:	4688      	mov	r8, r1
    5298:	000d      	movs	r5, r1
    529a:	0a61      	lsrs	r1, r4, #9
    529c:	0f44      	lsrs	r4, r0, #29
    529e:	430c      	orrs	r4, r1
    52a0:	00c7      	lsls	r7, r0, #3
    52a2:	0319      	lsls	r1, r3, #12
    52a4:	0058      	lsls	r0, r3, #1
    52a6:	0fdb      	lsrs	r3, r3, #31
    52a8:	469b      	mov	r11, r3
    52aa:	0a4b      	lsrs	r3, r1, #9
    52ac:	0f51      	lsrs	r1, r2, #29
    52ae:	430b      	orrs	r3, r1
    52b0:	0d76      	lsrs	r6, r6, #21
    52b2:	0d40      	lsrs	r0, r0, #21
    52b4:	0019      	movs	r1, r3
    52b6:	00d2      	lsls	r2, r2, #3
    52b8:	45d8      	cmp	r8, r11
    52ba:	d100      	bne.n	52be <__aeabi_dadd+0x3a>
    52bc:	e0ae      	b.n	541c <__aeabi_dadd+0x198>
    52be:	1a35      	subs	r5, r6, r0
    52c0:	2d00      	cmp	r5, #0
    52c2:	dc00      	bgt.n	52c6 <__aeabi_dadd+0x42>
    52c4:	e0f6      	b.n	54b4 <__aeabi_dadd+0x230>
    52c6:	2800      	cmp	r0, #0
    52c8:	d10f      	bne.n	52ea <__aeabi_dadd+0x66>
    52ca:	4313      	orrs	r3, r2
    52cc:	d100      	bne.n	52d0 <__aeabi_dadd+0x4c>
    52ce:	e0db      	b.n	5488 <__aeabi_dadd+0x204>
    52d0:	1e6b      	subs	r3, r5, #1
    52d2:	2b00      	cmp	r3, #0
    52d4:	d000      	beq.n	52d8 <__aeabi_dadd+0x54>
    52d6:	e137      	b.n	5548 <__aeabi_dadd+0x2c4>
    52d8:	1aba      	subs	r2, r7, r2
    52da:	4297      	cmp	r7, r2
    52dc:	41bf      	sbcs	r7, r7
    52de:	1a64      	subs	r4, r4, r1
    52e0:	427f      	negs	r7, r7
    52e2:	1be4      	subs	r4, r4, r7
    52e4:	2601      	movs	r6, #1
    52e6:	0017      	movs	r7, r2
    52e8:	e024      	b.n	5334 <__aeabi_dadd+0xb0>
    52ea:	4bc6      	ldr	r3, [pc, #792]	; (5604 <__aeabi_dadd+0x380>)
    52ec:	429e      	cmp	r6, r3
    52ee:	d04d      	beq.n	538c <__aeabi_dadd+0x108>
    52f0:	2380      	movs	r3, #128	; 0x80
    52f2:	041b      	lsls	r3, r3, #16
    52f4:	4319      	orrs	r1, r3
    52f6:	2d38      	cmp	r5, #56	; 0x38
    52f8:	dd00      	ble.n	52fc <__aeabi_dadd+0x78>
    52fa:	e107      	b.n	550c <__aeabi_dadd+0x288>
    52fc:	2d1f      	cmp	r5, #31
    52fe:	dd00      	ble.n	5302 <__aeabi_dadd+0x7e>
    5300:	e138      	b.n	5574 <__aeabi_dadd+0x2f0>
    5302:	2020      	movs	r0, #32
    5304:	1b43      	subs	r3, r0, r5
    5306:	469a      	mov	r10, r3
    5308:	000b      	movs	r3, r1
    530a:	4650      	mov	r0, r10
    530c:	4083      	lsls	r3, r0
    530e:	4699      	mov	r9, r3
    5310:	0013      	movs	r3, r2
    5312:	4648      	mov	r0, r9
    5314:	40eb      	lsrs	r3, r5
    5316:	4318      	orrs	r0, r3
    5318:	0003      	movs	r3, r0
    531a:	4650      	mov	r0, r10
    531c:	4082      	lsls	r2, r0
    531e:	1e50      	subs	r0, r2, #1
    5320:	4182      	sbcs	r2, r0
    5322:	40e9      	lsrs	r1, r5
    5324:	431a      	orrs	r2, r3
    5326:	1aba      	subs	r2, r7, r2
    5328:	1a61      	subs	r1, r4, r1
    532a:	4297      	cmp	r7, r2
    532c:	41a4      	sbcs	r4, r4
    532e:	0017      	movs	r7, r2
    5330:	4264      	negs	r4, r4
    5332:	1b0c      	subs	r4, r1, r4
    5334:	0223      	lsls	r3, r4, #8
    5336:	d562      	bpl.n	53fe <__aeabi_dadd+0x17a>
    5338:	0264      	lsls	r4, r4, #9
    533a:	0a65      	lsrs	r5, r4, #9
    533c:	2d00      	cmp	r5, #0
    533e:	d100      	bne.n	5342 <__aeabi_dadd+0xbe>
    5340:	e0df      	b.n	5502 <__aeabi_dadd+0x27e>
    5342:	0028      	movs	r0, r5
    5344:	f001 f920 	bl	6588 <__clzsi2>
    5348:	0003      	movs	r3, r0
    534a:	3b08      	subs	r3, #8
    534c:	2b1f      	cmp	r3, #31
    534e:	dd00      	ble.n	5352 <__aeabi_dadd+0xce>
    5350:	e0d2      	b.n	54f8 <__aeabi_dadd+0x274>
    5352:	2220      	movs	r2, #32
    5354:	003c      	movs	r4, r7
    5356:	1ad2      	subs	r2, r2, r3
    5358:	409d      	lsls	r5, r3
    535a:	40d4      	lsrs	r4, r2
    535c:	409f      	lsls	r7, r3
    535e:	4325      	orrs	r5, r4
    5360:	429e      	cmp	r6, r3
    5362:	dd00      	ble.n	5366 <__aeabi_dadd+0xe2>
    5364:	e0c4      	b.n	54f0 <__aeabi_dadd+0x26c>
    5366:	1b9e      	subs	r6, r3, r6
    5368:	1c73      	adds	r3, r6, #1
    536a:	2b1f      	cmp	r3, #31
    536c:	dd00      	ble.n	5370 <__aeabi_dadd+0xec>
    536e:	e0f1      	b.n	5554 <__aeabi_dadd+0x2d0>
    5370:	2220      	movs	r2, #32
    5372:	0038      	movs	r0, r7
    5374:	0029      	movs	r1, r5
    5376:	1ad2      	subs	r2, r2, r3
    5378:	40d8      	lsrs	r0, r3
    537a:	4091      	lsls	r1, r2
    537c:	4097      	lsls	r7, r2
    537e:	002c      	movs	r4, r5
    5380:	4301      	orrs	r1, r0
    5382:	1e78      	subs	r0, r7, #1
    5384:	4187      	sbcs	r7, r0
    5386:	40dc      	lsrs	r4, r3
    5388:	2600      	movs	r6, #0
    538a:	430f      	orrs	r7, r1
    538c:	077b      	lsls	r3, r7, #29
    538e:	d009      	beq.n	53a4 <__aeabi_dadd+0x120>
    5390:	230f      	movs	r3, #15
    5392:	403b      	ands	r3, r7
    5394:	2b04      	cmp	r3, #4
    5396:	d005      	beq.n	53a4 <__aeabi_dadd+0x120>
    5398:	1d3b      	adds	r3, r7, #4
    539a:	42bb      	cmp	r3, r7
    539c:	41bf      	sbcs	r7, r7
    539e:	427f      	negs	r7, r7
    53a0:	19e4      	adds	r4, r4, r7
    53a2:	001f      	movs	r7, r3
    53a4:	0223      	lsls	r3, r4, #8
    53a6:	d52c      	bpl.n	5402 <__aeabi_dadd+0x17e>
    53a8:	4b96      	ldr	r3, [pc, #600]	; (5604 <__aeabi_dadd+0x380>)
    53aa:	3601      	adds	r6, #1
    53ac:	429e      	cmp	r6, r3
    53ae:	d100      	bne.n	53b2 <__aeabi_dadd+0x12e>
    53b0:	e09a      	b.n	54e8 <__aeabi_dadd+0x264>
    53b2:	4645      	mov	r5, r8
    53b4:	4b94      	ldr	r3, [pc, #592]	; (5608 <__aeabi_dadd+0x384>)
    53b6:	08ff      	lsrs	r7, r7, #3
    53b8:	401c      	ands	r4, r3
    53ba:	0760      	lsls	r0, r4, #29
    53bc:	0576      	lsls	r6, r6, #21
    53be:	0264      	lsls	r4, r4, #9
    53c0:	4307      	orrs	r7, r0
    53c2:	0b24      	lsrs	r4, r4, #12
    53c4:	0d76      	lsrs	r6, r6, #21
    53c6:	2100      	movs	r1, #0
    53c8:	0324      	lsls	r4, r4, #12
    53ca:	0b23      	lsrs	r3, r4, #12
    53cc:	0d0c      	lsrs	r4, r1, #20
    53ce:	4a8f      	ldr	r2, [pc, #572]	; (560c <__aeabi_dadd+0x388>)
    53d0:	0524      	lsls	r4, r4, #20
    53d2:	431c      	orrs	r4, r3
    53d4:	4014      	ands	r4, r2
    53d6:	0533      	lsls	r3, r6, #20
    53d8:	4323      	orrs	r3, r4
    53da:	005b      	lsls	r3, r3, #1
    53dc:	07ed      	lsls	r5, r5, #31
    53de:	085b      	lsrs	r3, r3, #1
    53e0:	432b      	orrs	r3, r5
    53e2:	0038      	movs	r0, r7
    53e4:	0019      	movs	r1, r3
    53e6:	bc3c      	pop	{r2, r3, r4, r5}
    53e8:	4690      	mov	r8, r2
    53ea:	4699      	mov	r9, r3
    53ec:	46a2      	mov	r10, r4
    53ee:	46ab      	mov	r11, r5
    53f0:	bdf8      	pop	{r3, r4, r5, r6, r7, pc}
    53f2:	4664      	mov	r4, r12
    53f4:	4304      	orrs	r4, r0
    53f6:	d100      	bne.n	53fa <__aeabi_dadd+0x176>
    53f8:	e211      	b.n	581e <__aeabi_dadd+0x59a>
    53fa:	0004      	movs	r4, r0
    53fc:	4667      	mov	r7, r12
    53fe:	077b      	lsls	r3, r7, #29
    5400:	d1c6      	bne.n	5390 <__aeabi_dadd+0x10c>
    5402:	4645      	mov	r5, r8
    5404:	0760      	lsls	r0, r4, #29
    5406:	08ff      	lsrs	r7, r7, #3
    5408:	4307      	orrs	r7, r0
    540a:	08e4      	lsrs	r4, r4, #3
    540c:	4b7d      	ldr	r3, [pc, #500]	; (5604 <__aeabi_dadd+0x380>)
    540e:	429e      	cmp	r6, r3
    5410:	d030      	beq.n	5474 <__aeabi_dadd+0x1f0>
    5412:	0324      	lsls	r4, r4, #12
    5414:	0576      	lsls	r6, r6, #21
    5416:	0b24      	lsrs	r4, r4, #12
    5418:	0d76      	lsrs	r6, r6, #21
    541a:	e7d4      	b.n	53c6 <__aeabi_dadd+0x142>
    541c:	1a33      	subs	r3, r6, r0
    541e:	469a      	mov	r10, r3
    5420:	2b00      	cmp	r3, #0
    5422:	dd78      	ble.n	5516 <__aeabi_dadd+0x292>
    5424:	2800      	cmp	r0, #0
    5426:	d031      	beq.n	548c <__aeabi_dadd+0x208>
    5428:	4876      	ldr	r0, [pc, #472]	; (5604 <__aeabi_dadd+0x380>)
    542a:	4286      	cmp	r6, r0
    542c:	d0ae      	beq.n	538c <__aeabi_dadd+0x108>
    542e:	2080      	movs	r0, #128	; 0x80
    5430:	0400      	lsls	r0, r0, #16
    5432:	4301      	orrs	r1, r0
    5434:	4653      	mov	r3, r10
    5436:	2b38      	cmp	r3, #56	; 0x38
    5438:	dc00      	bgt.n	543c <__aeabi_dadd+0x1b8>
    543a:	e0e9      	b.n	5610 <__aeabi_dadd+0x38c>
    543c:	430a      	orrs	r2, r1
    543e:	1e51      	subs	r1, r2, #1
    5440:	418a      	sbcs	r2, r1
    5442:	2100      	movs	r1, #0
    5444:	19d2      	adds	r2, r2, r7
    5446:	42ba      	cmp	r2, r7
    5448:	41bf      	sbcs	r7, r7
    544a:	1909      	adds	r1, r1, r4
    544c:	427c      	negs	r4, r7
    544e:	0017      	movs	r7, r2
    5450:	190c      	adds	r4, r1, r4
    5452:	0223      	lsls	r3, r4, #8
    5454:	d5d3      	bpl.n	53fe <__aeabi_dadd+0x17a>
    5456:	4b6b      	ldr	r3, [pc, #428]	; (5604 <__aeabi_dadd+0x380>)
    5458:	3601      	adds	r6, #1
    545a:	429e      	cmp	r6, r3
    545c:	d100      	bne.n	5460 <__aeabi_dadd+0x1dc>
    545e:	e13a      	b.n	56d6 <__aeabi_dadd+0x452>
    5460:	2001      	movs	r0, #1
    5462:	4b69      	ldr	r3, [pc, #420]	; (5608 <__aeabi_dadd+0x384>)
    5464:	401c      	ands	r4, r3
    5466:	087b      	lsrs	r3, r7, #1
    5468:	4007      	ands	r7, r0
    546a:	431f      	orrs	r7, r3
    546c:	07e0      	lsls	r0, r4, #31
    546e:	4307      	orrs	r7, r0
    5470:	0864      	lsrs	r4, r4, #1
    5472:	e78b      	b.n	538c <__aeabi_dadd+0x108>
    5474:	0023      	movs	r3, r4
    5476:	433b      	orrs	r3, r7
    5478:	d100      	bne.n	547c <__aeabi_dadd+0x1f8>
    547a:	e1cb      	b.n	5814 <__aeabi_dadd+0x590>
    547c:	2280      	movs	r2, #128	; 0x80
    547e:	0312      	lsls	r2, r2, #12
    5480:	4314      	orrs	r4, r2
    5482:	0324      	lsls	r4, r4, #12
    5484:	0b24      	lsrs	r4, r4, #12
    5486:	e79e      	b.n	53c6 <__aeabi_dadd+0x142>
    5488:	002e      	movs	r6, r5
    548a:	e77f      	b.n	538c <__aeabi_dadd+0x108>
    548c:	0008      	movs	r0, r1
    548e:	4310      	orrs	r0, r2
    5490:	d100      	bne.n	5494 <__aeabi_dadd+0x210>
    5492:	e0b4      	b.n	55fe <__aeabi_dadd+0x37a>
    5494:	1e58      	subs	r0, r3, #1
    5496:	2800      	cmp	r0, #0
    5498:	d000      	beq.n	549c <__aeabi_dadd+0x218>
    549a:	e0de      	b.n	565a <__aeabi_dadd+0x3d6>
    549c:	18ba      	adds	r2, r7, r2
    549e:	42ba      	cmp	r2, r7
    54a0:	419b      	sbcs	r3, r3
    54a2:	1864      	adds	r4, r4, r1
    54a4:	425b      	negs	r3, r3
    54a6:	18e4      	adds	r4, r4, r3
    54a8:	0017      	movs	r7, r2
    54aa:	2601      	movs	r6, #1
    54ac:	0223      	lsls	r3, r4, #8
    54ae:	d5a6      	bpl.n	53fe <__aeabi_dadd+0x17a>
    54b0:	2602      	movs	r6, #2
    54b2:	e7d5      	b.n	5460 <__aeabi_dadd+0x1dc>
    54b4:	2d00      	cmp	r5, #0
    54b6:	d16e      	bne.n	5596 <__aeabi_dadd+0x312>
    54b8:	1c70      	adds	r0, r6, #1
    54ba:	0540      	lsls	r0, r0, #21
    54bc:	0d40      	lsrs	r0, r0, #21
    54be:	2801      	cmp	r0, #1
    54c0:	dc00      	bgt.n	54c4 <__aeabi_dadd+0x240>
    54c2:	e0f9      	b.n	56b8 <__aeabi_dadd+0x434>
    54c4:	1ab8      	subs	r0, r7, r2
    54c6:	4684      	mov	r12, r0
    54c8:	4287      	cmp	r7, r0
    54ca:	4180      	sbcs	r0, r0
    54cc:	1ae5      	subs	r5, r4, r3
    54ce:	4240      	negs	r0, r0
    54d0:	1a2d      	subs	r5, r5, r0
    54d2:	0228      	lsls	r0, r5, #8
    54d4:	d400      	bmi.n	54d8 <__aeabi_dadd+0x254>
    54d6:	e089      	b.n	55ec <__aeabi_dadd+0x368>
    54d8:	1bd7      	subs	r7, r2, r7
    54da:	42ba      	cmp	r2, r7
    54dc:	4192      	sbcs	r2, r2
    54de:	1b1c      	subs	r4, r3, r4
    54e0:	4252      	negs	r2, r2
    54e2:	1aa5      	subs	r5, r4, r2
    54e4:	46d8      	mov	r8, r11
    54e6:	e729      	b.n	533c <__aeabi_dadd+0xb8>
    54e8:	4645      	mov	r5, r8
    54ea:	2400      	movs	r4, #0
    54ec:	2700      	movs	r7, #0
    54ee:	e76a      	b.n	53c6 <__aeabi_dadd+0x142>
    54f0:	4c45      	ldr	r4, [pc, #276]	; (5608 <__aeabi_dadd+0x384>)
    54f2:	1af6      	subs	r6, r6, r3
    54f4:	402c      	ands	r4, r5
    54f6:	e749      	b.n	538c <__aeabi_dadd+0x108>
    54f8:	003d      	movs	r5, r7
    54fa:	3828      	subs	r0, #40	; 0x28
    54fc:	4085      	lsls	r5, r0
    54fe:	2700      	movs	r7, #0
    5500:	e72e      	b.n	5360 <__aeabi_dadd+0xdc>
    5502:	0038      	movs	r0, r7
    5504:	f001 f840 	bl	6588 <__clzsi2>
    5508:	3020      	adds	r0, #32
    550a:	e71d      	b.n	5348 <__aeabi_dadd+0xc4>
    550c:	430a      	orrs	r2, r1
    550e:	1e51      	subs	r1, r2, #1
    5510:	418a      	sbcs	r2, r1
    5512:	2100      	movs	r1, #0
    5514:	e707      	b.n	5326 <__aeabi_dadd+0xa2>
    5516:	2b00      	cmp	r3, #0
    5518:	d000      	beq.n	551c <__aeabi_dadd+0x298>
    551a:	e0f3      	b.n	5704 <__aeabi_dadd+0x480>
    551c:	1c70      	adds	r0, r6, #1
    551e:	0543      	lsls	r3, r0, #21
    5520:	0d5b      	lsrs	r3, r3, #21
    5522:	2b01      	cmp	r3, #1
    5524:	dc00      	bgt.n	5528 <__aeabi_dadd+0x2a4>
    5526:	e0ad      	b.n	5684 <__aeabi_dadd+0x400>
    5528:	4b36      	ldr	r3, [pc, #216]	; (5604 <__aeabi_dadd+0x380>)
    552a:	4298      	cmp	r0, r3
    552c:	d100      	bne.n	5530 <__aeabi_dadd+0x2ac>
    552e:	e0d1      	b.n	56d4 <__aeabi_dadd+0x450>
    5530:	18ba      	adds	r2, r7, r2
    5532:	42ba      	cmp	r2, r7
    5534:	41bf      	sbcs	r7, r7
    5536:	1864      	adds	r4, r4, r1
    5538:	427f      	negs	r7, r7
    553a:	19e4      	adds	r4, r4, r7
    553c:	07e7      	lsls	r7, r4, #31
    553e:	0852      	lsrs	r2, r2, #1
    5540:	4317      	orrs	r7, r2
    5542:	0864      	lsrs	r4, r4, #1
    5544:	0006      	movs	r6, r0
    5546:	e721      	b.n	538c <__aeabi_dadd+0x108>
    5548:	482e      	ldr	r0, [pc, #184]	; (5604 <__aeabi_dadd+0x380>)
    554a:	4285      	cmp	r5, r0
    554c:	d100      	bne.n	5550 <__aeabi_dadd+0x2cc>
    554e:	e093      	b.n	5678 <__aeabi_dadd+0x3f4>
    5550:	001d      	movs	r5, r3
    5552:	e6d0      	b.n	52f6 <__aeabi_dadd+0x72>
    5554:	0029      	movs	r1, r5
    5556:	3e1f      	subs	r6, #31
    5558:	40f1      	lsrs	r1, r6
    555a:	2b20      	cmp	r3, #32
    555c:	d100      	bne.n	5560 <__aeabi_dadd+0x2dc>
    555e:	e08d      	b.n	567c <__aeabi_dadd+0x3f8>
    5560:	2240      	movs	r2, #64	; 0x40
    5562:	1ad3      	subs	r3, r2, r3
    5564:	409d      	lsls	r5, r3
    5566:	432f      	orrs	r7, r5
    5568:	1e7d      	subs	r5, r7, #1
    556a:	41af      	sbcs	r7, r5
    556c:	2400      	movs	r4, #0
    556e:	430f      	orrs	r7, r1
    5570:	2600      	movs	r6, #0
    5572:	e744      	b.n	53fe <__aeabi_dadd+0x17a>
    5574:	002b      	movs	r3, r5
    5576:	0008      	movs	r0, r1
    5578:	3b20      	subs	r3, #32
    557a:	40d8      	lsrs	r0, r3
    557c:	0003      	movs	r3, r0
    557e:	2d20      	cmp	r5, #32
    5580:	d100      	bne.n	5584 <__aeabi_dadd+0x300>
    5582:	e07d      	b.n	5680 <__aeabi_dadd+0x3fc>
    5584:	2040      	movs	r0, #64	; 0x40
    5586:	1b45      	subs	r5, r0, r5
    5588:	40a9      	lsls	r1, r5
    558a:	430a      	orrs	r2, r1
    558c:	1e51      	subs	r1, r2, #1
    558e:	418a      	sbcs	r2, r1
    5590:	2100      	movs	r1, #0
    5592:	431a      	orrs	r2, r3
    5594:	e6c7      	b.n	5326 <__aeabi_dadd+0xa2>
    5596:	2e00      	cmp	r6, #0
    5598:	d050      	beq.n	563c <__aeabi_dadd+0x3b8>
    559a:	4e1a      	ldr	r6, [pc, #104]	; (5604 <__aeabi_dadd+0x380>)
    559c:	42b0      	cmp	r0, r6
    559e:	d057      	beq.n	5650 <__aeabi_dadd+0x3cc>
    55a0:	2680      	movs	r6, #128	; 0x80
    55a2:	426b      	negs	r3, r5
    55a4:	4699      	mov	r9, r3
    55a6:	0436      	lsls	r6, r6, #16
    55a8:	4334      	orrs	r4, r6
    55aa:	464b      	mov	r3, r9
    55ac:	2b38      	cmp	r3, #56	; 0x38
    55ae:	dd00      	ble.n	55b2 <__aeabi_dadd+0x32e>
    55b0:	e0d6      	b.n	5760 <__aeabi_dadd+0x4dc>
    55b2:	2b1f      	cmp	r3, #31
    55b4:	dd00      	ble.n	55b8 <__aeabi_dadd+0x334>
    55b6:	e135      	b.n	5824 <__aeabi_dadd+0x5a0>
    55b8:	2620      	movs	r6, #32
    55ba:	1af5      	subs	r5, r6, r3
    55bc:	0026      	movs	r6, r4
    55be:	40ae      	lsls	r6, r5
    55c0:	46b2      	mov	r10, r6
    55c2:	003e      	movs	r6, r7
    55c4:	40de      	lsrs	r6, r3
    55c6:	46ac      	mov	r12, r5
    55c8:	0035      	movs	r5, r6
    55ca:	4656      	mov	r6, r10
    55cc:	432e      	orrs	r6, r5
    55ce:	4665      	mov	r5, r12
    55d0:	40af      	lsls	r7, r5
    55d2:	1e7d      	subs	r5, r7, #1
    55d4:	41af      	sbcs	r7, r5
    55d6:	40dc      	lsrs	r4, r3
    55d8:	4337      	orrs	r7, r6
    55da:	1bd7      	subs	r7, r2, r7
    55dc:	42ba      	cmp	r2, r7
    55de:	4192      	sbcs	r2, r2
    55e0:	1b0c      	subs	r4, r1, r4
    55e2:	4252      	negs	r2, r2
    55e4:	1aa4      	subs	r4, r4, r2
    55e6:	0006      	movs	r6, r0
    55e8:	46d8      	mov	r8, r11
    55ea:	e6a3      	b.n	5334 <__aeabi_dadd+0xb0>
    55ec:	4664      	mov	r4, r12
    55ee:	4667      	mov	r7, r12
    55f0:	432c      	orrs	r4, r5
    55f2:	d000      	beq.n	55f6 <__aeabi_dadd+0x372>
    55f4:	e6a2      	b.n	533c <__aeabi_dadd+0xb8>
    55f6:	2500      	movs	r5, #0
    55f8:	2600      	movs	r6, #0
    55fa:	2700      	movs	r7, #0
    55fc:	e706      	b.n	540c <__aeabi_dadd+0x188>
    55fe:	001e      	movs	r6, r3
    5600:	e6c4      	b.n	538c <__aeabi_dadd+0x108>
    5602:	46c0      	nop			; (mov r8, r8)
    5604:	000007ff 	.word	0x000007ff
    5608:	ff7fffff 	.word	0xff7fffff
    560c:	800fffff 	.word	0x800fffff
    5610:	2b1f      	cmp	r3, #31
    5612:	dc63      	bgt.n	56dc <__aeabi_dadd+0x458>
    5614:	2020      	movs	r0, #32
    5616:	1ac3      	subs	r3, r0, r3
    5618:	0008      	movs	r0, r1
    561a:	4098      	lsls	r0, r3
    561c:	469c      	mov	r12, r3
    561e:	4683      	mov	r11, r0
    5620:	4653      	mov	r3, r10
    5622:	0010      	movs	r0, r2
    5624:	40d8      	lsrs	r0, r3
    5626:	0003      	movs	r3, r0
    5628:	4658      	mov	r0, r11
    562a:	4318      	orrs	r0, r3
    562c:	4663      	mov	r3, r12
    562e:	409a      	lsls	r2, r3
    5630:	1e53      	subs	r3, r2, #1
    5632:	419a      	sbcs	r2, r3
    5634:	4653      	mov	r3, r10
    5636:	4302      	orrs	r2, r0
    5638:	40d9      	lsrs	r1, r3
    563a:	e703      	b.n	5444 <__aeabi_dadd+0x1c0>
    563c:	0026      	movs	r6, r4
    563e:	433e      	orrs	r6, r7
    5640:	d006      	beq.n	5650 <__aeabi_dadd+0x3cc>
    5642:	43eb      	mvns	r3, r5
    5644:	4699      	mov	r9, r3
    5646:	2b00      	cmp	r3, #0
    5648:	d0c7      	beq.n	55da <__aeabi_dadd+0x356>
    564a:	4e94      	ldr	r6, [pc, #592]	; (589c <__aeabi_dadd+0x618>)
    564c:	42b0      	cmp	r0, r6
    564e:	d1ac      	bne.n	55aa <__aeabi_dadd+0x326>
    5650:	000c      	movs	r4, r1
    5652:	0017      	movs	r7, r2
    5654:	0006      	movs	r6, r0
    5656:	46d8      	mov	r8, r11
    5658:	e698      	b.n	538c <__aeabi_dadd+0x108>
    565a:	4b90      	ldr	r3, [pc, #576]	; (589c <__aeabi_dadd+0x618>)
    565c:	459a      	cmp	r10, r3
    565e:	d00b      	beq.n	5678 <__aeabi_dadd+0x3f4>
    5660:	4682      	mov	r10, r0
    5662:	e6e7      	b.n	5434 <__aeabi_dadd+0x1b0>
    5664:	2800      	cmp	r0, #0
    5666:	d000      	beq.n	566a <__aeabi_dadd+0x3e6>
    5668:	e09e      	b.n	57a8 <__aeabi_dadd+0x524>
    566a:	0018      	movs	r0, r3
    566c:	4310      	orrs	r0, r2
    566e:	d100      	bne.n	5672 <__aeabi_dadd+0x3ee>
    5670:	e0e9      	b.n	5846 <__aeabi_dadd+0x5c2>
    5672:	001c      	movs	r4, r3
    5674:	0017      	movs	r7, r2
    5676:	46d8      	mov	r8, r11
    5678:	4e88      	ldr	r6, [pc, #544]	; (589c <__aeabi_dadd+0x618>)
    567a:	e687      	b.n	538c <__aeabi_dadd+0x108>
    567c:	2500      	movs	r5, #0
    567e:	e772      	b.n	5566 <__aeabi_dadd+0x2e2>
    5680:	2100      	movs	r1, #0
    5682:	e782      	b.n	558a <__aeabi_dadd+0x306>
    5684:	0023      	movs	r3, r4
    5686:	433b      	orrs	r3, r7
    5688:	2e00      	cmp	r6, #0
    568a:	d000      	beq.n	568e <__aeabi_dadd+0x40a>
    568c:	e0ab      	b.n	57e6 <__aeabi_dadd+0x562>
    568e:	2b00      	cmp	r3, #0
    5690:	d100      	bne.n	5694 <__aeabi_dadd+0x410>
    5692:	e0e7      	b.n	5864 <__aeabi_dadd+0x5e0>
    5694:	000b      	movs	r3, r1
    5696:	4313      	orrs	r3, r2
    5698:	d100      	bne.n	569c <__aeabi_dadd+0x418>
    569a:	e677      	b.n	538c <__aeabi_dadd+0x108>
    569c:	18ba      	adds	r2, r7, r2
    569e:	42ba      	cmp	r2, r7
    56a0:	41bf      	sbcs	r7, r7
    56a2:	1864      	adds	r4, r4, r1
    56a4:	427f      	negs	r7, r7
    56a6:	19e4      	adds	r4, r4, r7
    56a8:	0223      	lsls	r3, r4, #8
    56aa:	d400      	bmi.n	56ae <__aeabi_dadd+0x42a>
    56ac:	e0f2      	b.n	5894 <__aeabi_dadd+0x610>
    56ae:	4b7c      	ldr	r3, [pc, #496]	; (58a0 <__aeabi_dadd+0x61c>)
    56b0:	0017      	movs	r7, r2
    56b2:	401c      	ands	r4, r3
    56b4:	0006      	movs	r6, r0
    56b6:	e669      	b.n	538c <__aeabi_dadd+0x108>
    56b8:	0020      	movs	r0, r4
    56ba:	4338      	orrs	r0, r7
    56bc:	2e00      	cmp	r6, #0
    56be:	d1d1      	bne.n	5664 <__aeabi_dadd+0x3e0>
    56c0:	2800      	cmp	r0, #0
    56c2:	d15b      	bne.n	577c <__aeabi_dadd+0x4f8>
    56c4:	001c      	movs	r4, r3
    56c6:	4314      	orrs	r4, r2
    56c8:	d100      	bne.n	56cc <__aeabi_dadd+0x448>
    56ca:	e0a8      	b.n	581e <__aeabi_dadd+0x59a>
    56cc:	001c      	movs	r4, r3
    56ce:	0017      	movs	r7, r2
    56d0:	46d8      	mov	r8, r11
    56d2:	e65b      	b.n	538c <__aeabi_dadd+0x108>
    56d4:	0006      	movs	r6, r0
    56d6:	2400      	movs	r4, #0
    56d8:	2700      	movs	r7, #0
    56da:	e697      	b.n	540c <__aeabi_dadd+0x188>
    56dc:	4650      	mov	r0, r10
    56de:	000b      	movs	r3, r1
    56e0:	3820      	subs	r0, #32
    56e2:	40c3      	lsrs	r3, r0
    56e4:	4699      	mov	r9, r3
    56e6:	4653      	mov	r3, r10
    56e8:	2b20      	cmp	r3, #32
    56ea:	d100      	bne.n	56ee <__aeabi_dadd+0x46a>
    56ec:	e095      	b.n	581a <__aeabi_dadd+0x596>
    56ee:	2340      	movs	r3, #64	; 0x40
    56f0:	4650      	mov	r0, r10
    56f2:	1a1b      	subs	r3, r3, r0
    56f4:	4099      	lsls	r1, r3
    56f6:	430a      	orrs	r2, r1
    56f8:	1e51      	subs	r1, r2, #1
    56fa:	418a      	sbcs	r2, r1
    56fc:	464b      	mov	r3, r9
    56fe:	2100      	movs	r1, #0
    5700:	431a      	orrs	r2, r3
    5702:	e69f      	b.n	5444 <__aeabi_dadd+0x1c0>
    5704:	2e00      	cmp	r6, #0
    5706:	d130      	bne.n	576a <__aeabi_dadd+0x4e6>
    5708:	0026      	movs	r6, r4
    570a:	433e      	orrs	r6, r7
    570c:	d067      	beq.n	57de <__aeabi_dadd+0x55a>
    570e:	43db      	mvns	r3, r3
    5710:	469a      	mov	r10, r3
    5712:	2b00      	cmp	r3, #0
    5714:	d01c      	beq.n	5750 <__aeabi_dadd+0x4cc>
    5716:	4e61      	ldr	r6, [pc, #388]	; (589c <__aeabi_dadd+0x618>)
    5718:	42b0      	cmp	r0, r6
    571a:	d060      	beq.n	57de <__aeabi_dadd+0x55a>
    571c:	4653      	mov	r3, r10
    571e:	2b38      	cmp	r3, #56	; 0x38
    5720:	dd00      	ble.n	5724 <__aeabi_dadd+0x4a0>
    5722:	e096      	b.n	5852 <__aeabi_dadd+0x5ce>
    5724:	2b1f      	cmp	r3, #31
    5726:	dd00      	ble.n	572a <__aeabi_dadd+0x4a6>
    5728:	e09f      	b.n	586a <__aeabi_dadd+0x5e6>
    572a:	2620      	movs	r6, #32
    572c:	1af3      	subs	r3, r6, r3
    572e:	0026      	movs	r6, r4
    5730:	409e      	lsls	r6, r3
    5732:	469c      	mov	r12, r3
    5734:	46b3      	mov	r11, r6
    5736:	4653      	mov	r3, r10
    5738:	003e      	movs	r6, r7
    573a:	40de      	lsrs	r6, r3
    573c:	0033      	movs	r3, r6
    573e:	465e      	mov	r6, r11
    5740:	431e      	orrs	r6, r3
    5742:	4663      	mov	r3, r12
    5744:	409f      	lsls	r7, r3
    5746:	1e7b      	subs	r3, r7, #1
    5748:	419f      	sbcs	r7, r3
    574a:	4653      	mov	r3, r10
    574c:	40dc      	lsrs	r4, r3
    574e:	4337      	orrs	r7, r6
    5750:	18bf      	adds	r7, r7, r2
    5752:	4297      	cmp	r7, r2
    5754:	4192      	sbcs	r2, r2
    5756:	1864      	adds	r4, r4, r1
    5758:	4252      	negs	r2, r2
    575a:	18a4      	adds	r4, r4, r2
    575c:	0006      	movs	r6, r0
    575e:	e678      	b.n	5452 <__aeabi_dadd+0x1ce>
    5760:	4327      	orrs	r7, r4
    5762:	1e7c      	subs	r4, r7, #1
    5764:	41a7      	sbcs	r7, r4
    5766:	2400      	movs	r4, #0
    5768:	e737      	b.n	55da <__aeabi_dadd+0x356>
    576a:	4e4c      	ldr	r6, [pc, #304]	; (589c <__aeabi_dadd+0x618>)
    576c:	42b0      	cmp	r0, r6
    576e:	d036      	beq.n	57de <__aeabi_dadd+0x55a>
    5770:	2680      	movs	r6, #128	; 0x80
    5772:	425b      	negs	r3, r3
    5774:	0436      	lsls	r6, r6, #16
    5776:	469a      	mov	r10, r3
    5778:	4334      	orrs	r4, r6
    577a:	e7cf      	b.n	571c <__aeabi_dadd+0x498>
    577c:	0018      	movs	r0, r3
    577e:	4310      	orrs	r0, r2
    5780:	d100      	bne.n	5784 <__aeabi_dadd+0x500>
    5782:	e603      	b.n	538c <__aeabi_dadd+0x108>
    5784:	1ab8      	subs	r0, r7, r2
    5786:	4684      	mov	r12, r0
    5788:	4567      	cmp	r7, r12
    578a:	41ad      	sbcs	r5, r5
    578c:	1ae0      	subs	r0, r4, r3
    578e:	426d      	negs	r5, r5
    5790:	1b40      	subs	r0, r0, r5
    5792:	0205      	lsls	r5, r0, #8
    5794:	d400      	bmi.n	5798 <__aeabi_dadd+0x514>
    5796:	e62c      	b.n	53f2 <__aeabi_dadd+0x16e>
    5798:	1bd7      	subs	r7, r2, r7
    579a:	42ba      	cmp	r2, r7
    579c:	4192      	sbcs	r2, r2
    579e:	1b1c      	subs	r4, r3, r4
    57a0:	4252      	negs	r2, r2
    57a2:	1aa4      	subs	r4, r4, r2
    57a4:	46d8      	mov	r8, r11
    57a6:	e5f1      	b.n	538c <__aeabi_dadd+0x108>
    57a8:	0018      	movs	r0, r3
    57aa:	4310      	orrs	r0, r2
    57ac:	d100      	bne.n	57b0 <__aeabi_dadd+0x52c>
    57ae:	e763      	b.n	5678 <__aeabi_dadd+0x3f4>
    57b0:	08f8      	lsrs	r0, r7, #3
    57b2:	0767      	lsls	r7, r4, #29
    57b4:	4307      	orrs	r7, r0
    57b6:	2080      	movs	r0, #128	; 0x80
    57b8:	08e4      	lsrs	r4, r4, #3
    57ba:	0300      	lsls	r0, r0, #12
    57bc:	4204      	tst	r4, r0
    57be:	d008      	beq.n	57d2 <__aeabi_dadd+0x54e>
    57c0:	08dd      	lsrs	r5, r3, #3
    57c2:	4205      	tst	r5, r0
    57c4:	d105      	bne.n	57d2 <__aeabi_dadd+0x54e>
    57c6:	08d2      	lsrs	r2, r2, #3
    57c8:	0759      	lsls	r1, r3, #29
    57ca:	4311      	orrs	r1, r2
    57cc:	000f      	movs	r7, r1
    57ce:	002c      	movs	r4, r5
    57d0:	46d8      	mov	r8, r11
    57d2:	0f7b      	lsrs	r3, r7, #29
    57d4:	00e4      	lsls	r4, r4, #3
    57d6:	431c      	orrs	r4, r3
    57d8:	00ff      	lsls	r7, r7, #3
    57da:	4e30      	ldr	r6, [pc, #192]	; (589c <__aeabi_dadd+0x618>)
    57dc:	e5d6      	b.n	538c <__aeabi_dadd+0x108>
    57de:	000c      	movs	r4, r1
    57e0:	0017      	movs	r7, r2
    57e2:	0006      	movs	r6, r0
    57e4:	e5d2      	b.n	538c <__aeabi_dadd+0x108>
    57e6:	2b00      	cmp	r3, #0
    57e8:	d038      	beq.n	585c <__aeabi_dadd+0x5d8>
    57ea:	000b      	movs	r3, r1
    57ec:	4313      	orrs	r3, r2
    57ee:	d100      	bne.n	57f2 <__aeabi_dadd+0x56e>
    57f0:	e742      	b.n	5678 <__aeabi_dadd+0x3f4>
    57f2:	08f8      	lsrs	r0, r7, #3
    57f4:	0767      	lsls	r7, r4, #29
    57f6:	4307      	orrs	r7, r0
    57f8:	2080      	movs	r0, #128	; 0x80
    57fa:	08e4      	lsrs	r4, r4, #3
    57fc:	0300      	lsls	r0, r0, #12
    57fe:	4204      	tst	r4, r0
    5800:	d0e7      	beq.n	57d2 <__aeabi_dadd+0x54e>
    5802:	08cb      	lsrs	r3, r1, #3
    5804:	4203      	tst	r3, r0
    5806:	d1e4      	bne.n	57d2 <__aeabi_dadd+0x54e>
    5808:	08d2      	lsrs	r2, r2, #3
    580a:	0749      	lsls	r1, r1, #29
    580c:	4311      	orrs	r1, r2
    580e:	000f      	movs	r7, r1
    5810:	001c      	movs	r4, r3
    5812:	e7de      	b.n	57d2 <__aeabi_dadd+0x54e>
    5814:	2700      	movs	r7, #0
    5816:	2400      	movs	r4, #0
    5818:	e5d5      	b.n	53c6 <__aeabi_dadd+0x142>
    581a:	2100      	movs	r1, #0
    581c:	e76b      	b.n	56f6 <__aeabi_dadd+0x472>
    581e:	2500      	movs	r5, #0
    5820:	2700      	movs	r7, #0
    5822:	e5f3      	b.n	540c <__aeabi_dadd+0x188>
    5824:	464e      	mov	r6, r9
    5826:	0025      	movs	r5, r4
    5828:	3e20      	subs	r6, #32
    582a:	40f5      	lsrs	r5, r6
    582c:	464b      	mov	r3, r9
    582e:	002e      	movs	r6, r5
    5830:	2b20      	cmp	r3, #32
    5832:	d02d      	beq.n	5890 <__aeabi_dadd+0x60c>
    5834:	2540      	movs	r5, #64	; 0x40
    5836:	1aed      	subs	r5, r5, r3
    5838:	40ac      	lsls	r4, r5
    583a:	4327      	orrs	r7, r4
    583c:	1e7c      	subs	r4, r7, #1
    583e:	41a7      	sbcs	r7, r4
    5840:	2400      	movs	r4, #0
    5842:	4337      	orrs	r7, r6
    5844:	e6c9      	b.n	55da <__aeabi_dadd+0x356>
    5846:	2480      	movs	r4, #128	; 0x80
    5848:	2500      	movs	r5, #0
    584a:	0324      	lsls	r4, r4, #12
    584c:	4e13      	ldr	r6, [pc, #76]	; (589c <__aeabi_dadd+0x618>)
    584e:	2700      	movs	r7, #0
    5850:	e5dc      	b.n	540c <__aeabi_dadd+0x188>
    5852:	4327      	orrs	r7, r4
    5854:	1e7c      	subs	r4, r7, #1
    5856:	41a7      	sbcs	r7, r4
    5858:	2400      	movs	r4, #0
    585a:	e779      	b.n	5750 <__aeabi_dadd+0x4cc>
    585c:	000c      	movs	r4, r1
    585e:	0017      	movs	r7, r2
    5860:	4e0e      	ldr	r6, [pc, #56]	; (589c <__aeabi_dadd+0x618>)
    5862:	e593      	b.n	538c <__aeabi_dadd+0x108>
    5864:	000c      	movs	r4, r1
    5866:	0017      	movs	r7, r2
    5868:	e590      	b.n	538c <__aeabi_dadd+0x108>
    586a:	4656      	mov	r6, r10
    586c:	0023      	movs	r3, r4
    586e:	3e20      	subs	r6, #32
    5870:	40f3      	lsrs	r3, r6
    5872:	4699      	mov	r9, r3
    5874:	4653      	mov	r3, r10
    5876:	2b20      	cmp	r3, #32
    5878:	d00e      	beq.n	5898 <__aeabi_dadd+0x614>
    587a:	2340      	movs	r3, #64	; 0x40
    587c:	4656      	mov	r6, r10
    587e:	1b9b      	subs	r3, r3, r6
    5880:	409c      	lsls	r4, r3
    5882:	4327      	orrs	r7, r4
    5884:	1e7c      	subs	r4, r7, #1
    5886:	41a7      	sbcs	r7, r4
    5888:	464b      	mov	r3, r9
    588a:	2400      	movs	r4, #0
    588c:	431f      	orrs	r7, r3
    588e:	e75f      	b.n	5750 <__aeabi_dadd+0x4cc>
    5890:	2400      	movs	r4, #0
    5892:	e7d2      	b.n	583a <__aeabi_dadd+0x5b6>
    5894:	0017      	movs	r7, r2
    5896:	e5b2      	b.n	53fe <__aeabi_dadd+0x17a>
    5898:	2400      	movs	r4, #0
    589a:	e7f2      	b.n	5882 <__aeabi_dadd+0x5fe>
    589c:	000007ff 	.word	0x000007ff
    58a0:	ff7fffff 	.word	0xff7fffff

000058a4 <__aeabi_dmul>:
    58a4:	b5f0      	push	{r4, r5, r6, r7, lr}
    58a6:	4657      	mov	r7, r10
    58a8:	4645      	mov	r5, r8
    58aa:	46de      	mov	lr, r11
    58ac:	464e      	mov	r6, r9
    58ae:	b5e0      	push	{r5, r6, r7, lr}
    58b0:	030c      	lsls	r4, r1, #12
    58b2:	4698      	mov	r8, r3
    58b4:	004e      	lsls	r6, r1, #1
    58b6:	0b23      	lsrs	r3, r4, #12
    58b8:	b087      	sub	sp, #28
    58ba:	0007      	movs	r7, r0
    58bc:	4692      	mov	r10, r2
    58be:	469b      	mov	r11, r3
    58c0:	0d76      	lsrs	r6, r6, #21
    58c2:	0fcd      	lsrs	r5, r1, #31
    58c4:	2e00      	cmp	r6, #0
    58c6:	d06b      	beq.n	59a0 <__aeabi_dmul+0xfc>
    58c8:	4b6d      	ldr	r3, [pc, #436]	; (5a80 <__aeabi_dmul+0x1dc>)
    58ca:	429e      	cmp	r6, r3
    58cc:	d035      	beq.n	593a <__aeabi_dmul+0x96>
    58ce:	2480      	movs	r4, #128	; 0x80
    58d0:	465b      	mov	r3, r11
    58d2:	0f42      	lsrs	r2, r0, #29
    58d4:	0424      	lsls	r4, r4, #16
    58d6:	00db      	lsls	r3, r3, #3
    58d8:	4314      	orrs	r4, r2
    58da:	431c      	orrs	r4, r3
    58dc:	00c3      	lsls	r3, r0, #3
    58de:	4699      	mov	r9, r3
    58e0:	4b68      	ldr	r3, [pc, #416]	; (5a84 <__aeabi_dmul+0x1e0>)
    58e2:	46a3      	mov	r11, r4
    58e4:	469c      	mov	r12, r3
    58e6:	2300      	movs	r3, #0
    58e8:	2700      	movs	r7, #0
    58ea:	4466      	add	r6, r12
    58ec:	9302      	str	r3, [sp, #8]
    58ee:	4643      	mov	r3, r8
    58f0:	031c      	lsls	r4, r3, #12
    58f2:	005a      	lsls	r2, r3, #1
    58f4:	0fdb      	lsrs	r3, r3, #31
    58f6:	4650      	mov	r0, r10
    58f8:	0b24      	lsrs	r4, r4, #12
    58fa:	0d52      	lsrs	r2, r2, #21
    58fc:	4698      	mov	r8, r3
    58fe:	d100      	bne.n	5902 <__aeabi_dmul+0x5e>
    5900:	e076      	b.n	59f0 <__aeabi_dmul+0x14c>
    5902:	4b5f      	ldr	r3, [pc, #380]	; (5a80 <__aeabi_dmul+0x1dc>)
    5904:	429a      	cmp	r2, r3
    5906:	d06d      	beq.n	59e4 <__aeabi_dmul+0x140>
    5908:	2380      	movs	r3, #128	; 0x80
    590a:	0f41      	lsrs	r1, r0, #29
    590c:	041b      	lsls	r3, r3, #16
    590e:	430b      	orrs	r3, r1
    5910:	495c      	ldr	r1, [pc, #368]	; (5a84 <__aeabi_dmul+0x1e0>)
    5912:	00e4      	lsls	r4, r4, #3
    5914:	468c      	mov	r12, r1
    5916:	431c      	orrs	r4, r3
    5918:	00c3      	lsls	r3, r0, #3
    591a:	2000      	movs	r0, #0
    591c:	4462      	add	r2, r12
    591e:	4641      	mov	r1, r8
    5920:	18b6      	adds	r6, r6, r2
    5922:	4069      	eors	r1, r5
    5924:	1c72      	adds	r2, r6, #1
    5926:	9101      	str	r1, [sp, #4]
    5928:	4694      	mov	r12, r2
    592a:	4307      	orrs	r7, r0
    592c:	2f0f      	cmp	r7, #15
    592e:	d900      	bls.n	5932 <__aeabi_dmul+0x8e>
    5930:	e0b0      	b.n	5a94 <__aeabi_dmul+0x1f0>
    5932:	4a55      	ldr	r2, [pc, #340]	; (5a88 <__aeabi_dmul+0x1e4>)
    5934:	00bf      	lsls	r7, r7, #2
    5936:	59d2      	ldr	r2, [r2, r7]
    5938:	4697      	mov	pc, r2
    593a:	465b      	mov	r3, r11
    593c:	4303      	orrs	r3, r0
    593e:	4699      	mov	r9, r3
    5940:	d000      	beq.n	5944 <__aeabi_dmul+0xa0>
    5942:	e087      	b.n	5a54 <__aeabi_dmul+0x1b0>
    5944:	2300      	movs	r3, #0
    5946:	469b      	mov	r11, r3
    5948:	3302      	adds	r3, #2
    594a:	2708      	movs	r7, #8
    594c:	9302      	str	r3, [sp, #8]
    594e:	e7ce      	b.n	58ee <__aeabi_dmul+0x4a>
    5950:	4642      	mov	r2, r8
    5952:	9201      	str	r2, [sp, #4]
    5954:	2802      	cmp	r0, #2
    5956:	d067      	beq.n	5a28 <__aeabi_dmul+0x184>
    5958:	2803      	cmp	r0, #3
    595a:	d100      	bne.n	595e <__aeabi_dmul+0xba>
    595c:	e20e      	b.n	5d7c <__aeabi_dmul+0x4d8>
    595e:	2801      	cmp	r0, #1
    5960:	d000      	beq.n	5964 <__aeabi_dmul+0xc0>
    5962:	e162      	b.n	5c2a <__aeabi_dmul+0x386>
    5964:	2300      	movs	r3, #0
    5966:	2400      	movs	r4, #0
    5968:	2200      	movs	r2, #0
    596a:	4699      	mov	r9, r3
    596c:	9901      	ldr	r1, [sp, #4]
    596e:	4001      	ands	r1, r0
    5970:	b2cd      	uxtb	r5, r1
    5972:	2100      	movs	r1, #0
    5974:	0312      	lsls	r2, r2, #12
    5976:	0d0b      	lsrs	r3, r1, #20
    5978:	0b12      	lsrs	r2, r2, #12
    597a:	051b      	lsls	r3, r3, #20
    597c:	4313      	orrs	r3, r2
    597e:	4a43      	ldr	r2, [pc, #268]	; (5a8c <__aeabi_dmul+0x1e8>)
    5980:	0524      	lsls	r4, r4, #20
    5982:	4013      	ands	r3, r2
    5984:	431c      	orrs	r4, r3
    5986:	0064      	lsls	r4, r4, #1
    5988:	07ed      	lsls	r5, r5, #31
    598a:	0864      	lsrs	r4, r4, #1
    598c:	432c      	orrs	r4, r5
    598e:	4648      	mov	r0, r9
    5990:	0021      	movs	r1, r4
    5992:	b007      	add	sp, #28
    5994:	bc3c      	pop	{r2, r3, r4, r5}
    5996:	4690      	mov	r8, r2
    5998:	4699      	mov	r9, r3
    599a:	46a2      	mov	r10, r4
    599c:	46ab      	mov	r11, r5
    599e:	bdf0      	pop	{r4, r5, r6, r7, pc}
    59a0:	4303      	orrs	r3, r0
    59a2:	4699      	mov	r9, r3
    59a4:	d04f      	beq.n	5a46 <__aeabi_dmul+0x1a2>
    59a6:	465b      	mov	r3, r11
    59a8:	2b00      	cmp	r3, #0
    59aa:	d100      	bne.n	59ae <__aeabi_dmul+0x10a>
    59ac:	e189      	b.n	5cc2 <__aeabi_dmul+0x41e>
    59ae:	4658      	mov	r0, r11
    59b0:	f000 fdea 	bl	6588 <__clzsi2>
    59b4:	0003      	movs	r3, r0
    59b6:	3b0b      	subs	r3, #11
    59b8:	2b1c      	cmp	r3, #28
    59ba:	dd00      	ble.n	59be <__aeabi_dmul+0x11a>
    59bc:	e17a      	b.n	5cb4 <__aeabi_dmul+0x410>
    59be:	221d      	movs	r2, #29
    59c0:	1ad3      	subs	r3, r2, r3
    59c2:	003a      	movs	r2, r7
    59c4:	0001      	movs	r1, r0
    59c6:	465c      	mov	r4, r11
    59c8:	40da      	lsrs	r2, r3
    59ca:	3908      	subs	r1, #8
    59cc:	408c      	lsls	r4, r1
    59ce:	0013      	movs	r3, r2
    59d0:	408f      	lsls	r7, r1
    59d2:	4323      	orrs	r3, r4
    59d4:	469b      	mov	r11, r3
    59d6:	46b9      	mov	r9, r7
    59d8:	2300      	movs	r3, #0
    59da:	4e2d      	ldr	r6, [pc, #180]	; (5a90 <__aeabi_dmul+0x1ec>)
    59dc:	2700      	movs	r7, #0
    59de:	1a36      	subs	r6, r6, r0
    59e0:	9302      	str	r3, [sp, #8]
    59e2:	e784      	b.n	58ee <__aeabi_dmul+0x4a>
    59e4:	4653      	mov	r3, r10
    59e6:	4323      	orrs	r3, r4
    59e8:	d12a      	bne.n	5a40 <__aeabi_dmul+0x19c>
    59ea:	2400      	movs	r4, #0
    59ec:	2002      	movs	r0, #2
    59ee:	e796      	b.n	591e <__aeabi_dmul+0x7a>
    59f0:	4653      	mov	r3, r10
    59f2:	4323      	orrs	r3, r4
    59f4:	d020      	beq.n	5a38 <__aeabi_dmul+0x194>
    59f6:	2c00      	cmp	r4, #0
    59f8:	d100      	bne.n	59fc <__aeabi_dmul+0x158>
    59fa:	e157      	b.n	5cac <__aeabi_dmul+0x408>
    59fc:	0020      	movs	r0, r4
    59fe:	f000 fdc3 	bl	6588 <__clzsi2>
    5a02:	0003      	movs	r3, r0
    5a04:	3b0b      	subs	r3, #11
    5a06:	2b1c      	cmp	r3, #28
    5a08:	dd00      	ble.n	5a0c <__aeabi_dmul+0x168>
    5a0a:	e149      	b.n	5ca0 <__aeabi_dmul+0x3fc>
    5a0c:	211d      	movs	r1, #29
    5a0e:	1acb      	subs	r3, r1, r3
    5a10:	4651      	mov	r1, r10
    5a12:	0002      	movs	r2, r0
    5a14:	40d9      	lsrs	r1, r3
    5a16:	4653      	mov	r3, r10
    5a18:	3a08      	subs	r2, #8
    5a1a:	4094      	lsls	r4, r2
    5a1c:	4093      	lsls	r3, r2
    5a1e:	430c      	orrs	r4, r1
    5a20:	4a1b      	ldr	r2, [pc, #108]	; (5a90 <__aeabi_dmul+0x1ec>)
    5a22:	1a12      	subs	r2, r2, r0
    5a24:	2000      	movs	r0, #0
    5a26:	e77a      	b.n	591e <__aeabi_dmul+0x7a>
    5a28:	2501      	movs	r5, #1
    5a2a:	9b01      	ldr	r3, [sp, #4]
    5a2c:	4c14      	ldr	r4, [pc, #80]	; (5a80 <__aeabi_dmul+0x1dc>)
    5a2e:	401d      	ands	r5, r3
    5a30:	2300      	movs	r3, #0
    5a32:	2200      	movs	r2, #0
    5a34:	4699      	mov	r9, r3
    5a36:	e79c      	b.n	5972 <__aeabi_dmul+0xce>
    5a38:	2400      	movs	r4, #0
    5a3a:	2200      	movs	r2, #0
    5a3c:	2001      	movs	r0, #1
    5a3e:	e76e      	b.n	591e <__aeabi_dmul+0x7a>
    5a40:	4653      	mov	r3, r10
    5a42:	2003      	movs	r0, #3
    5a44:	e76b      	b.n	591e <__aeabi_dmul+0x7a>
    5a46:	2300      	movs	r3, #0
    5a48:	469b      	mov	r11, r3
    5a4a:	3301      	adds	r3, #1
    5a4c:	2704      	movs	r7, #4
    5a4e:	2600      	movs	r6, #0
    5a50:	9302      	str	r3, [sp, #8]
    5a52:	e74c      	b.n	58ee <__aeabi_dmul+0x4a>
    5a54:	2303      	movs	r3, #3
    5a56:	4681      	mov	r9, r0
    5a58:	270c      	movs	r7, #12
    5a5a:	9302      	str	r3, [sp, #8]
    5a5c:	e747      	b.n	58ee <__aeabi_dmul+0x4a>
    5a5e:	2280      	movs	r2, #128	; 0x80
    5a60:	2300      	movs	r3, #0
    5a62:	2500      	movs	r5, #0
    5a64:	0312      	lsls	r2, r2, #12
    5a66:	4699      	mov	r9, r3
    5a68:	4c05      	ldr	r4, [pc, #20]	; (5a80 <__aeabi_dmul+0x1dc>)
    5a6a:	e782      	b.n	5972 <__aeabi_dmul+0xce>
    5a6c:	465c      	mov	r4, r11
    5a6e:	464b      	mov	r3, r9
    5a70:	9802      	ldr	r0, [sp, #8]
    5a72:	e76f      	b.n	5954 <__aeabi_dmul+0xb0>
    5a74:	465c      	mov	r4, r11
    5a76:	464b      	mov	r3, r9
    5a78:	9501      	str	r5, [sp, #4]
    5a7a:	9802      	ldr	r0, [sp, #8]
    5a7c:	e76a      	b.n	5954 <__aeabi_dmul+0xb0>
    5a7e:	46c0      	nop			; (mov r8, r8)
    5a80:	000007ff 	.word	0x000007ff
    5a84:	fffffc01 	.word	0xfffffc01
    5a88:	00007a74 	.word	0x00007a74
    5a8c:	800fffff 	.word	0x800fffff
    5a90:	fffffc0d 	.word	0xfffffc0d
    5a94:	464a      	mov	r2, r9
    5a96:	4649      	mov	r1, r9
    5a98:	0c17      	lsrs	r7, r2, #16
    5a9a:	0c1a      	lsrs	r2, r3, #16
    5a9c:	041b      	lsls	r3, r3, #16
    5a9e:	0c1b      	lsrs	r3, r3, #16
    5aa0:	0408      	lsls	r0, r1, #16
    5aa2:	0019      	movs	r1, r3
    5aa4:	0c00      	lsrs	r0, r0, #16
    5aa6:	4341      	muls	r1, r0
    5aa8:	0015      	movs	r5, r2
    5aaa:	4688      	mov	r8, r1
    5aac:	0019      	movs	r1, r3
    5aae:	437d      	muls	r5, r7
    5ab0:	4379      	muls	r1, r7
    5ab2:	9503      	str	r5, [sp, #12]
    5ab4:	4689      	mov	r9, r1
    5ab6:	0029      	movs	r1, r5
    5ab8:	0015      	movs	r5, r2
    5aba:	4345      	muls	r5, r0
    5abc:	444d      	add	r5, r9
    5abe:	9502      	str	r5, [sp, #8]
    5ac0:	4645      	mov	r5, r8
    5ac2:	0c2d      	lsrs	r5, r5, #16
    5ac4:	46aa      	mov	r10, r5
    5ac6:	9d02      	ldr	r5, [sp, #8]
    5ac8:	4455      	add	r5, r10
    5aca:	45a9      	cmp	r9, r5
    5acc:	d906      	bls.n	5adc <__aeabi_dmul+0x238>
    5ace:	468a      	mov	r10, r1
    5ad0:	2180      	movs	r1, #128	; 0x80
    5ad2:	0249      	lsls	r1, r1, #9
    5ad4:	4689      	mov	r9, r1
    5ad6:	44ca      	add	r10, r9
    5ad8:	4651      	mov	r1, r10
    5ada:	9103      	str	r1, [sp, #12]
    5adc:	0c29      	lsrs	r1, r5, #16
    5ade:	9104      	str	r1, [sp, #16]
    5ae0:	4641      	mov	r1, r8
    5ae2:	0409      	lsls	r1, r1, #16
    5ae4:	042d      	lsls	r5, r5, #16
    5ae6:	0c09      	lsrs	r1, r1, #16
    5ae8:	4688      	mov	r8, r1
    5aea:	0029      	movs	r1, r5
    5aec:	0c25      	lsrs	r5, r4, #16
    5aee:	0424      	lsls	r4, r4, #16
    5af0:	4441      	add	r1, r8
    5af2:	0c24      	lsrs	r4, r4, #16
    5af4:	9105      	str	r1, [sp, #20]
    5af6:	0021      	movs	r1, r4
    5af8:	4341      	muls	r1, r0
    5afa:	4688      	mov	r8, r1
    5afc:	0021      	movs	r1, r4
    5afe:	4379      	muls	r1, r7
    5b00:	468a      	mov	r10, r1
    5b02:	4368      	muls	r0, r5
    5b04:	4641      	mov	r1, r8
    5b06:	4450      	add	r0, r10
    5b08:	4681      	mov	r9, r0
    5b0a:	0c08      	lsrs	r0, r1, #16
    5b0c:	4448      	add	r0, r9
    5b0e:	436f      	muls	r7, r5
    5b10:	4582      	cmp	r10, r0
    5b12:	d903      	bls.n	5b1c <__aeabi_dmul+0x278>
    5b14:	2180      	movs	r1, #128	; 0x80
    5b16:	0249      	lsls	r1, r1, #9
    5b18:	4689      	mov	r9, r1
    5b1a:	444f      	add	r7, r9
    5b1c:	0c01      	lsrs	r1, r0, #16
    5b1e:	4689      	mov	r9, r1
    5b20:	0039      	movs	r1, r7
    5b22:	4449      	add	r1, r9
    5b24:	9102      	str	r1, [sp, #8]
    5b26:	4641      	mov	r1, r8
    5b28:	040f      	lsls	r7, r1, #16
    5b2a:	9904      	ldr	r1, [sp, #16]
    5b2c:	0c3f      	lsrs	r7, r7, #16
    5b2e:	4688      	mov	r8, r1
    5b30:	0400      	lsls	r0, r0, #16
    5b32:	19c0      	adds	r0, r0, r7
    5b34:	4480      	add	r8, r0
    5b36:	4641      	mov	r1, r8
    5b38:	9104      	str	r1, [sp, #16]
    5b3a:	4659      	mov	r1, r11
    5b3c:	0c0f      	lsrs	r7, r1, #16
    5b3e:	0409      	lsls	r1, r1, #16
    5b40:	0c09      	lsrs	r1, r1, #16
    5b42:	4688      	mov	r8, r1
    5b44:	4359      	muls	r1, r3
    5b46:	468a      	mov	r10, r1
    5b48:	0039      	movs	r1, r7
    5b4a:	4351      	muls	r1, r2
    5b4c:	4689      	mov	r9, r1
    5b4e:	4641      	mov	r1, r8
    5b50:	434a      	muls	r2, r1
    5b52:	4651      	mov	r1, r10
    5b54:	0c09      	lsrs	r1, r1, #16
    5b56:	468b      	mov	r11, r1
    5b58:	437b      	muls	r3, r7
    5b5a:	18d2      	adds	r2, r2, r3
    5b5c:	445a      	add	r2, r11
    5b5e:	4293      	cmp	r3, r2
    5b60:	d903      	bls.n	5b6a <__aeabi_dmul+0x2c6>
    5b62:	2380      	movs	r3, #128	; 0x80
    5b64:	025b      	lsls	r3, r3, #9
    5b66:	469b      	mov	r11, r3
    5b68:	44d9      	add	r9, r11
    5b6a:	4651      	mov	r1, r10
    5b6c:	0409      	lsls	r1, r1, #16
    5b6e:	0c09      	lsrs	r1, r1, #16
    5b70:	468a      	mov	r10, r1
    5b72:	4641      	mov	r1, r8
    5b74:	4361      	muls	r1, r4
    5b76:	437c      	muls	r4, r7
    5b78:	0c13      	lsrs	r3, r2, #16
    5b7a:	0412      	lsls	r2, r2, #16
    5b7c:	444b      	add	r3, r9
    5b7e:	4452      	add	r2, r10
    5b80:	46a1      	mov	r9, r4
    5b82:	468a      	mov	r10, r1
    5b84:	003c      	movs	r4, r7
    5b86:	4641      	mov	r1, r8
    5b88:	436c      	muls	r4, r5
    5b8a:	434d      	muls	r5, r1
    5b8c:	4651      	mov	r1, r10
    5b8e:	444d      	add	r5, r9
    5b90:	0c0f      	lsrs	r7, r1, #16
    5b92:	197d      	adds	r5, r7, r5
    5b94:	45a9      	cmp	r9, r5
    5b96:	d903      	bls.n	5ba0 <__aeabi_dmul+0x2fc>
    5b98:	2180      	movs	r1, #128	; 0x80
    5b9a:	0249      	lsls	r1, r1, #9
    5b9c:	4688      	mov	r8, r1
    5b9e:	4444      	add	r4, r8
    5ba0:	9f04      	ldr	r7, [sp, #16]
    5ba2:	9903      	ldr	r1, [sp, #12]
    5ba4:	46b8      	mov	r8, r7
    5ba6:	4441      	add	r1, r8
    5ba8:	468b      	mov	r11, r1
    5baa:	4583      	cmp	r11, r0
    5bac:	4180      	sbcs	r0, r0
    5bae:	4241      	negs	r1, r0
    5bb0:	4688      	mov	r8, r1
    5bb2:	4651      	mov	r1, r10
    5bb4:	0408      	lsls	r0, r1, #16
    5bb6:	042f      	lsls	r7, r5, #16
    5bb8:	0c00      	lsrs	r0, r0, #16
    5bba:	183f      	adds	r7, r7, r0
    5bbc:	4658      	mov	r0, r11
    5bbe:	9902      	ldr	r1, [sp, #8]
    5bc0:	1810      	adds	r0, r2, r0
    5bc2:	4689      	mov	r9, r1
    5bc4:	4290      	cmp	r0, r2
    5bc6:	4192      	sbcs	r2, r2
    5bc8:	444f      	add	r7, r9
    5bca:	46ba      	mov	r10, r7
    5bcc:	4252      	negs	r2, r2
    5bce:	4699      	mov	r9, r3
    5bd0:	4693      	mov	r11, r2
    5bd2:	44c2      	add	r10, r8
    5bd4:	44d1      	add	r9, r10
    5bd6:	44cb      	add	r11, r9
    5bd8:	428f      	cmp	r7, r1
    5bda:	41bf      	sbcs	r7, r7
    5bdc:	45c2      	cmp	r10, r8
    5bde:	4189      	sbcs	r1, r1
    5be0:	4599      	cmp	r9, r3
    5be2:	419b      	sbcs	r3, r3
    5be4:	4593      	cmp	r11, r2
    5be6:	4192      	sbcs	r2, r2
    5be8:	427f      	negs	r7, r7
    5bea:	4249      	negs	r1, r1
    5bec:	0c2d      	lsrs	r5, r5, #16
    5bee:	4252      	negs	r2, r2
    5bf0:	430f      	orrs	r7, r1
    5bf2:	425b      	negs	r3, r3
    5bf4:	4313      	orrs	r3, r2
    5bf6:	197f      	adds	r7, r7, r5
    5bf8:	18ff      	adds	r7, r7, r3
    5bfa:	465b      	mov	r3, r11
    5bfc:	193c      	adds	r4, r7, r4
    5bfe:	0ddb      	lsrs	r3, r3, #23
    5c00:	9a05      	ldr	r2, [sp, #20]
    5c02:	0264      	lsls	r4, r4, #9
    5c04:	431c      	orrs	r4, r3
    5c06:	0243      	lsls	r3, r0, #9
    5c08:	4313      	orrs	r3, r2
    5c0a:	1e5d      	subs	r5, r3, #1
    5c0c:	41ab      	sbcs	r3, r5
    5c0e:	465a      	mov	r2, r11
    5c10:	0dc0      	lsrs	r0, r0, #23
    5c12:	4303      	orrs	r3, r0
    5c14:	0252      	lsls	r2, r2, #9
    5c16:	4313      	orrs	r3, r2
    5c18:	01e2      	lsls	r2, r4, #7
    5c1a:	d556      	bpl.n	5cca <__aeabi_dmul+0x426>
    5c1c:	2001      	movs	r0, #1
    5c1e:	085a      	lsrs	r2, r3, #1
    5c20:	4003      	ands	r3, r0
    5c22:	4313      	orrs	r3, r2
    5c24:	07e2      	lsls	r2, r4, #31
    5c26:	4313      	orrs	r3, r2
    5c28:	0864      	lsrs	r4, r4, #1
    5c2a:	485a      	ldr	r0, [pc, #360]	; (5d94 <__aeabi_dmul+0x4f0>)
    5c2c:	4460      	add	r0, r12
    5c2e:	2800      	cmp	r0, #0
    5c30:	dd4d      	ble.n	5cce <__aeabi_dmul+0x42a>
    5c32:	075a      	lsls	r2, r3, #29
    5c34:	d009      	beq.n	5c4a <__aeabi_dmul+0x3a6>
    5c36:	220f      	movs	r2, #15
    5c38:	401a      	ands	r2, r3
    5c3a:	2a04      	cmp	r2, #4
    5c3c:	d005      	beq.n	5c4a <__aeabi_dmul+0x3a6>
    5c3e:	1d1a      	adds	r2, r3, #4
    5c40:	429a      	cmp	r2, r3
    5c42:	419b      	sbcs	r3, r3
    5c44:	425b      	negs	r3, r3
    5c46:	18e4      	adds	r4, r4, r3
    5c48:	0013      	movs	r3, r2
    5c4a:	01e2      	lsls	r2, r4, #7
    5c4c:	d504      	bpl.n	5c58 <__aeabi_dmul+0x3b4>
    5c4e:	2080      	movs	r0, #128	; 0x80
    5c50:	4a51      	ldr	r2, [pc, #324]	; (5d98 <__aeabi_dmul+0x4f4>)
    5c52:	00c0      	lsls	r0, r0, #3
    5c54:	4014      	ands	r4, r2
    5c56:	4460      	add	r0, r12
    5c58:	4a50      	ldr	r2, [pc, #320]	; (5d9c <__aeabi_dmul+0x4f8>)
    5c5a:	4290      	cmp	r0, r2
    5c5c:	dd00      	ble.n	5c60 <__aeabi_dmul+0x3bc>
    5c5e:	e6e3      	b.n	5a28 <__aeabi_dmul+0x184>
    5c60:	2501      	movs	r5, #1
    5c62:	08db      	lsrs	r3, r3, #3
    5c64:	0762      	lsls	r2, r4, #29
    5c66:	431a      	orrs	r2, r3
    5c68:	0264      	lsls	r4, r4, #9
    5c6a:	9b01      	ldr	r3, [sp, #4]
    5c6c:	4691      	mov	r9, r2
    5c6e:	0b22      	lsrs	r2, r4, #12
    5c70:	0544      	lsls	r4, r0, #21
    5c72:	0d64      	lsrs	r4, r4, #21
    5c74:	401d      	ands	r5, r3
    5c76:	e67c      	b.n	5972 <__aeabi_dmul+0xce>
    5c78:	2280      	movs	r2, #128	; 0x80
    5c7a:	4659      	mov	r1, r11
    5c7c:	0312      	lsls	r2, r2, #12
    5c7e:	4211      	tst	r1, r2
    5c80:	d008      	beq.n	5c94 <__aeabi_dmul+0x3f0>
    5c82:	4214      	tst	r4, r2
    5c84:	d106      	bne.n	5c94 <__aeabi_dmul+0x3f0>
    5c86:	4322      	orrs	r2, r4
    5c88:	0312      	lsls	r2, r2, #12
    5c8a:	0b12      	lsrs	r2, r2, #12
    5c8c:	4645      	mov	r5, r8
    5c8e:	4699      	mov	r9, r3
    5c90:	4c43      	ldr	r4, [pc, #268]	; (5da0 <__aeabi_dmul+0x4fc>)
    5c92:	e66e      	b.n	5972 <__aeabi_dmul+0xce>
    5c94:	465b      	mov	r3, r11
    5c96:	431a      	orrs	r2, r3
    5c98:	0312      	lsls	r2, r2, #12
    5c9a:	0b12      	lsrs	r2, r2, #12
    5c9c:	4c40      	ldr	r4, [pc, #256]	; (5da0 <__aeabi_dmul+0x4fc>)
    5c9e:	e668      	b.n	5972 <__aeabi_dmul+0xce>
    5ca0:	0003      	movs	r3, r0
    5ca2:	4654      	mov	r4, r10
    5ca4:	3b28      	subs	r3, #40	; 0x28
    5ca6:	409c      	lsls	r4, r3
    5ca8:	2300      	movs	r3, #0
    5caa:	e6b9      	b.n	5a20 <__aeabi_dmul+0x17c>
    5cac:	f000 fc6c 	bl	6588 <__clzsi2>
    5cb0:	3020      	adds	r0, #32
    5cb2:	e6a6      	b.n	5a02 <__aeabi_dmul+0x15e>
    5cb4:	0003      	movs	r3, r0
    5cb6:	3b28      	subs	r3, #40	; 0x28
    5cb8:	409f      	lsls	r7, r3
    5cba:	2300      	movs	r3, #0
    5cbc:	46bb      	mov	r11, r7
    5cbe:	4699      	mov	r9, r3
    5cc0:	e68a      	b.n	59d8 <__aeabi_dmul+0x134>
    5cc2:	f000 fc61 	bl	6588 <__clzsi2>
    5cc6:	3020      	adds	r0, #32
    5cc8:	e674      	b.n	59b4 <__aeabi_dmul+0x110>
    5cca:	46b4      	mov	r12, r6
    5ccc:	e7ad      	b.n	5c2a <__aeabi_dmul+0x386>
    5cce:	2501      	movs	r5, #1
    5cd0:	1a2a      	subs	r2, r5, r0
    5cd2:	2a38      	cmp	r2, #56	; 0x38
    5cd4:	dd06      	ble.n	5ce4 <__aeabi_dmul+0x440>
    5cd6:	9b01      	ldr	r3, [sp, #4]
    5cd8:	2400      	movs	r4, #0
    5cda:	401d      	ands	r5, r3
    5cdc:	2300      	movs	r3, #0
    5cde:	2200      	movs	r2, #0
    5ce0:	4699      	mov	r9, r3
    5ce2:	e646      	b.n	5972 <__aeabi_dmul+0xce>
    5ce4:	2a1f      	cmp	r2, #31
    5ce6:	dc21      	bgt.n	5d2c <__aeabi_dmul+0x488>
    5ce8:	2520      	movs	r5, #32
    5cea:	0020      	movs	r0, r4
    5cec:	1aad      	subs	r5, r5, r2
    5cee:	001e      	movs	r6, r3
    5cf0:	40ab      	lsls	r3, r5
    5cf2:	40a8      	lsls	r0, r5
    5cf4:	40d6      	lsrs	r6, r2
    5cf6:	1e5d      	subs	r5, r3, #1
    5cf8:	41ab      	sbcs	r3, r5
    5cfa:	4330      	orrs	r0, r6
    5cfc:	4318      	orrs	r0, r3
    5cfe:	40d4      	lsrs	r4, r2
    5d00:	0743      	lsls	r3, r0, #29
    5d02:	d009      	beq.n	5d18 <__aeabi_dmul+0x474>
    5d04:	230f      	movs	r3, #15
    5d06:	4003      	ands	r3, r0
    5d08:	2b04      	cmp	r3, #4
    5d0a:	d005      	beq.n	5d18 <__aeabi_dmul+0x474>
    5d0c:	0003      	movs	r3, r0
    5d0e:	1d18      	adds	r0, r3, #4
    5d10:	4298      	cmp	r0, r3
    5d12:	419b      	sbcs	r3, r3
    5d14:	425b      	negs	r3, r3
    5d16:	18e4      	adds	r4, r4, r3
    5d18:	0223      	lsls	r3, r4, #8
    5d1a:	d521      	bpl.n	5d60 <__aeabi_dmul+0x4bc>
    5d1c:	2501      	movs	r5, #1
    5d1e:	9b01      	ldr	r3, [sp, #4]
    5d20:	2401      	movs	r4, #1
    5d22:	401d      	ands	r5, r3
    5d24:	2300      	movs	r3, #0
    5d26:	2200      	movs	r2, #0
    5d28:	4699      	mov	r9, r3
    5d2a:	e622      	b.n	5972 <__aeabi_dmul+0xce>
    5d2c:	251f      	movs	r5, #31
    5d2e:	0021      	movs	r1, r4
    5d30:	426d      	negs	r5, r5
    5d32:	1a28      	subs	r0, r5, r0
    5d34:	40c1      	lsrs	r1, r0
    5d36:	0008      	movs	r0, r1
    5d38:	2a20      	cmp	r2, #32
    5d3a:	d01d      	beq.n	5d78 <__aeabi_dmul+0x4d4>
    5d3c:	355f      	adds	r5, #95	; 0x5f
    5d3e:	1aaa      	subs	r2, r5, r2
    5d40:	4094      	lsls	r4, r2
    5d42:	4323      	orrs	r3, r4
    5d44:	1e5c      	subs	r4, r3, #1
    5d46:	41a3      	sbcs	r3, r4
    5d48:	2507      	movs	r5, #7
    5d4a:	4303      	orrs	r3, r0
    5d4c:	401d      	ands	r5, r3
    5d4e:	2200      	movs	r2, #0
    5d50:	2d00      	cmp	r5, #0
    5d52:	d009      	beq.n	5d68 <__aeabi_dmul+0x4c4>
    5d54:	220f      	movs	r2, #15
    5d56:	2400      	movs	r4, #0
    5d58:	401a      	ands	r2, r3
    5d5a:	0018      	movs	r0, r3
    5d5c:	2a04      	cmp	r2, #4
    5d5e:	d1d6      	bne.n	5d0e <__aeabi_dmul+0x46a>
    5d60:	0003      	movs	r3, r0
    5d62:	0765      	lsls	r5, r4, #29
    5d64:	0264      	lsls	r4, r4, #9
    5d66:	0b22      	lsrs	r2, r4, #12
    5d68:	08db      	lsrs	r3, r3, #3
    5d6a:	432b      	orrs	r3, r5
    5d6c:	2501      	movs	r5, #1
    5d6e:	4699      	mov	r9, r3
    5d70:	9b01      	ldr	r3, [sp, #4]
    5d72:	2400      	movs	r4, #0
    5d74:	401d      	ands	r5, r3
    5d76:	e5fc      	b.n	5972 <__aeabi_dmul+0xce>
    5d78:	2400      	movs	r4, #0
    5d7a:	e7e2      	b.n	5d42 <__aeabi_dmul+0x49e>
    5d7c:	2280      	movs	r2, #128	; 0x80
    5d7e:	2501      	movs	r5, #1
    5d80:	0312      	lsls	r2, r2, #12
    5d82:	4322      	orrs	r2, r4
    5d84:	9901      	ldr	r1, [sp, #4]
    5d86:	0312      	lsls	r2, r2, #12
    5d88:	0b12      	lsrs	r2, r2, #12
    5d8a:	400d      	ands	r5, r1
    5d8c:	4699      	mov	r9, r3
    5d8e:	4c04      	ldr	r4, [pc, #16]	; (5da0 <__aeabi_dmul+0x4fc>)
    5d90:	e5ef      	b.n	5972 <__aeabi_dmul+0xce>
    5d92:	46c0      	nop			; (mov r8, r8)
    5d94:	000003ff 	.word	0x000003ff
    5d98:	feffffff 	.word	0xfeffffff
    5d9c:	000007fe 	.word	0x000007fe
    5da0:	000007ff 	.word	0x000007ff

00005da4 <__aeabi_dsub>:
    5da4:	b5f0      	push	{r4, r5, r6, r7, lr}
    5da6:	4646      	mov	r6, r8
    5da8:	46d6      	mov	lr, r10
    5daa:	464f      	mov	r7, r9
    5dac:	030c      	lsls	r4, r1, #12
    5dae:	b5c0      	push	{r6, r7, lr}
    5db0:	0fcd      	lsrs	r5, r1, #31
    5db2:	004e      	lsls	r6, r1, #1
    5db4:	0a61      	lsrs	r1, r4, #9
    5db6:	0f44      	lsrs	r4, r0, #29
    5db8:	430c      	orrs	r4, r1
    5dba:	00c1      	lsls	r1, r0, #3
    5dbc:	0058      	lsls	r0, r3, #1
    5dbe:	0d40      	lsrs	r0, r0, #21
    5dc0:	4684      	mov	r12, r0
    5dc2:	468a      	mov	r10, r1
    5dc4:	000f      	movs	r7, r1
    5dc6:	0319      	lsls	r1, r3, #12
    5dc8:	0f50      	lsrs	r0, r2, #29
    5dca:	0a49      	lsrs	r1, r1, #9
    5dcc:	4301      	orrs	r1, r0
    5dce:	48c6      	ldr	r0, [pc, #792]	; (60e8 <__aeabi_dsub+0x344>)
    5dd0:	0d76      	lsrs	r6, r6, #21
    5dd2:	46a8      	mov	r8, r5
    5dd4:	0fdb      	lsrs	r3, r3, #31
    5dd6:	00d2      	lsls	r2, r2, #3
    5dd8:	4584      	cmp	r12, r0
    5dda:	d100      	bne.n	5dde <__aeabi_dsub+0x3a>
    5ddc:	e0d8      	b.n	5f90 <__aeabi_dsub+0x1ec>
    5dde:	2001      	movs	r0, #1
    5de0:	4043      	eors	r3, r0
    5de2:	42ab      	cmp	r3, r5
    5de4:	d100      	bne.n	5de8 <__aeabi_dsub+0x44>
    5de6:	e0a6      	b.n	5f36 <__aeabi_dsub+0x192>
    5de8:	4660      	mov	r0, r12
    5dea:	1a35      	subs	r5, r6, r0
    5dec:	2d00      	cmp	r5, #0
    5dee:	dc00      	bgt.n	5df2 <__aeabi_dsub+0x4e>
    5df0:	e105      	b.n	5ffe <__aeabi_dsub+0x25a>
    5df2:	2800      	cmp	r0, #0
    5df4:	d110      	bne.n	5e18 <__aeabi_dsub+0x74>
    5df6:	000b      	movs	r3, r1
    5df8:	4313      	orrs	r3, r2
    5dfa:	d100      	bne.n	5dfe <__aeabi_dsub+0x5a>
    5dfc:	e0d7      	b.n	5fae <__aeabi_dsub+0x20a>
    5dfe:	1e6b      	subs	r3, r5, #1
    5e00:	2b00      	cmp	r3, #0
    5e02:	d000      	beq.n	5e06 <__aeabi_dsub+0x62>
    5e04:	e14b      	b.n	609e <__aeabi_dsub+0x2fa>
    5e06:	4653      	mov	r3, r10
    5e08:	1a9f      	subs	r7, r3, r2
    5e0a:	45ba      	cmp	r10, r7
    5e0c:	4180      	sbcs	r0, r0
    5e0e:	1a64      	subs	r4, r4, r1
    5e10:	4240      	negs	r0, r0
    5e12:	1a24      	subs	r4, r4, r0
    5e14:	2601      	movs	r6, #1
    5e16:	e01e      	b.n	5e56 <__aeabi_dsub+0xb2>
    5e18:	4bb3      	ldr	r3, [pc, #716]	; (60e8 <__aeabi_dsub+0x344>)
    5e1a:	429e      	cmp	r6, r3
    5e1c:	d048      	beq.n	5eb0 <__aeabi_dsub+0x10c>
    5e1e:	2380      	movs	r3, #128	; 0x80
    5e20:	041b      	lsls	r3, r3, #16
    5e22:	4319      	orrs	r1, r3
    5e24:	2d38      	cmp	r5, #56	; 0x38
    5e26:	dd00      	ble.n	5e2a <__aeabi_dsub+0x86>
    5e28:	e119      	b.n	605e <__aeabi_dsub+0x2ba>
    5e2a:	2d1f      	cmp	r5, #31
    5e2c:	dd00      	ble.n	5e30 <__aeabi_dsub+0x8c>
    5e2e:	e14c      	b.n	60ca <__aeabi_dsub+0x326>
    5e30:	2320      	movs	r3, #32
    5e32:	000f      	movs	r7, r1
    5e34:	1b5b      	subs	r3, r3, r5
    5e36:	0010      	movs	r0, r2
    5e38:	409a      	lsls	r2, r3
    5e3a:	409f      	lsls	r7, r3
    5e3c:	40e8      	lsrs	r0, r5
    5e3e:	1e53      	subs	r3, r2, #1
    5e40:	419a      	sbcs	r2, r3
    5e42:	40e9      	lsrs	r1, r5
    5e44:	4307      	orrs	r7, r0
    5e46:	4317      	orrs	r7, r2
    5e48:	4653      	mov	r3, r10
    5e4a:	1bdf      	subs	r7, r3, r7
    5e4c:	1a61      	subs	r1, r4, r1
    5e4e:	45ba      	cmp	r10, r7
    5e50:	41a4      	sbcs	r4, r4
    5e52:	4264      	negs	r4, r4
    5e54:	1b0c      	subs	r4, r1, r4
    5e56:	0223      	lsls	r3, r4, #8
    5e58:	d400      	bmi.n	5e5c <__aeabi_dsub+0xb8>
    5e5a:	e0c5      	b.n	5fe8 <__aeabi_dsub+0x244>
    5e5c:	0264      	lsls	r4, r4, #9
    5e5e:	0a65      	lsrs	r5, r4, #9
    5e60:	2d00      	cmp	r5, #0
    5e62:	d100      	bne.n	5e66 <__aeabi_dsub+0xc2>
    5e64:	e0f6      	b.n	6054 <__aeabi_dsub+0x2b0>
    5e66:	0028      	movs	r0, r5
    5e68:	f000 fb8e 	bl	6588 <__clzsi2>
    5e6c:	0003      	movs	r3, r0
    5e6e:	3b08      	subs	r3, #8
    5e70:	2b1f      	cmp	r3, #31
    5e72:	dd00      	ble.n	5e76 <__aeabi_dsub+0xd2>
    5e74:	e0e9      	b.n	604a <__aeabi_dsub+0x2a6>
    5e76:	2220      	movs	r2, #32
    5e78:	003c      	movs	r4, r7
    5e7a:	1ad2      	subs	r2, r2, r3
    5e7c:	409d      	lsls	r5, r3
    5e7e:	40d4      	lsrs	r4, r2
    5e80:	409f      	lsls	r7, r3
    5e82:	4325      	orrs	r5, r4
    5e84:	429e      	cmp	r6, r3
    5e86:	dd00      	ble.n	5e8a <__aeabi_dsub+0xe6>
    5e88:	e0db      	b.n	6042 <__aeabi_dsub+0x29e>
    5e8a:	1b9e      	subs	r6, r3, r6
    5e8c:	1c73      	adds	r3, r6, #1
    5e8e:	2b1f      	cmp	r3, #31
    5e90:	dd00      	ble.n	5e94 <__aeabi_dsub+0xf0>
    5e92:	e10a      	b.n	60aa <__aeabi_dsub+0x306>
    5e94:	2220      	movs	r2, #32
    5e96:	0038      	movs	r0, r7
    5e98:	1ad2      	subs	r2, r2, r3
    5e9a:	0029      	movs	r1, r5
    5e9c:	4097      	lsls	r7, r2
    5e9e:	002c      	movs	r4, r5
    5ea0:	4091      	lsls	r1, r2
    5ea2:	40d8      	lsrs	r0, r3
    5ea4:	1e7a      	subs	r2, r7, #1
    5ea6:	4197      	sbcs	r7, r2
    5ea8:	40dc      	lsrs	r4, r3
    5eaa:	2600      	movs	r6, #0
    5eac:	4301      	orrs	r1, r0
    5eae:	430f      	orrs	r7, r1
    5eb0:	077b      	lsls	r3, r7, #29
    5eb2:	d009      	beq.n	5ec8 <__aeabi_dsub+0x124>
    5eb4:	230f      	movs	r3, #15
    5eb6:	403b      	ands	r3, r7
    5eb8:	2b04      	cmp	r3, #4
    5eba:	d005      	beq.n	5ec8 <__aeabi_dsub+0x124>
    5ebc:	1d3b      	adds	r3, r7, #4
    5ebe:	42bb      	cmp	r3, r7
    5ec0:	41bf      	sbcs	r7, r7
    5ec2:	427f      	negs	r7, r7
    5ec4:	19e4      	adds	r4, r4, r7
    5ec6:	001f      	movs	r7, r3
    5ec8:	0223      	lsls	r3, r4, #8
    5eca:	d525      	bpl.n	5f18 <__aeabi_dsub+0x174>
    5ecc:	4b86      	ldr	r3, [pc, #536]	; (60e8 <__aeabi_dsub+0x344>)
    5ece:	3601      	adds	r6, #1
    5ed0:	429e      	cmp	r6, r3
    5ed2:	d100      	bne.n	5ed6 <__aeabi_dsub+0x132>
    5ed4:	e0af      	b.n	6036 <__aeabi_dsub+0x292>
    5ed6:	4b85      	ldr	r3, [pc, #532]	; (60ec <__aeabi_dsub+0x348>)
    5ed8:	2501      	movs	r5, #1
    5eda:	401c      	ands	r4, r3
    5edc:	4643      	mov	r3, r8
    5ede:	0762      	lsls	r2, r4, #29
    5ee0:	08ff      	lsrs	r7, r7, #3
    5ee2:	0264      	lsls	r4, r4, #9
    5ee4:	0576      	lsls	r6, r6, #21
    5ee6:	4317      	orrs	r7, r2
    5ee8:	0b24      	lsrs	r4, r4, #12
    5eea:	0d76      	lsrs	r6, r6, #21
    5eec:	401d      	ands	r5, r3
    5eee:	2100      	movs	r1, #0
    5ef0:	0324      	lsls	r4, r4, #12
    5ef2:	0b23      	lsrs	r3, r4, #12
    5ef4:	0d0c      	lsrs	r4, r1, #20
    5ef6:	4a7e      	ldr	r2, [pc, #504]	; (60f0 <__aeabi_dsub+0x34c>)
    5ef8:	0524      	lsls	r4, r4, #20
    5efa:	431c      	orrs	r4, r3
    5efc:	4014      	ands	r4, r2
    5efe:	0533      	lsls	r3, r6, #20
    5f00:	4323      	orrs	r3, r4
    5f02:	005b      	lsls	r3, r3, #1
    5f04:	07ed      	lsls	r5, r5, #31
    5f06:	085b      	lsrs	r3, r3, #1
    5f08:	432b      	orrs	r3, r5
    5f0a:	0038      	movs	r0, r7
    5f0c:	0019      	movs	r1, r3
    5f0e:	bc1c      	pop	{r2, r3, r4}
    5f10:	4690      	mov	r8, r2
    5f12:	4699      	mov	r9, r3
    5f14:	46a2      	mov	r10, r4
    5f16:	bdf0      	pop	{r4, r5, r6, r7, pc}
    5f18:	2501      	movs	r5, #1
    5f1a:	4643      	mov	r3, r8
    5f1c:	0762      	lsls	r2, r4, #29
    5f1e:	08ff      	lsrs	r7, r7, #3
    5f20:	4317      	orrs	r7, r2
    5f22:	08e4      	lsrs	r4, r4, #3
    5f24:	401d      	ands	r5, r3
    5f26:	4b70      	ldr	r3, [pc, #448]	; (60e8 <__aeabi_dsub+0x344>)
    5f28:	429e      	cmp	r6, r3
    5f2a:	d036      	beq.n	5f9a <__aeabi_dsub+0x1f6>
    5f2c:	0324      	lsls	r4, r4, #12
    5f2e:	0576      	lsls	r6, r6, #21
    5f30:	0b24      	lsrs	r4, r4, #12
    5f32:	0d76      	lsrs	r6, r6, #21
    5f34:	e7db      	b.n	5eee <__aeabi_dsub+0x14a>
    5f36:	4663      	mov	r3, r12
    5f38:	1af3      	subs	r3, r6, r3
    5f3a:	2b00      	cmp	r3, #0
    5f3c:	dc00      	bgt.n	5f40 <__aeabi_dsub+0x19c>
    5f3e:	e094      	b.n	606a <__aeabi_dsub+0x2c6>
    5f40:	4660      	mov	r0, r12
    5f42:	2800      	cmp	r0, #0
    5f44:	d035      	beq.n	5fb2 <__aeabi_dsub+0x20e>
    5f46:	4868      	ldr	r0, [pc, #416]	; (60e8 <__aeabi_dsub+0x344>)
    5f48:	4286      	cmp	r6, r0
    5f4a:	d0b1      	beq.n	5eb0 <__aeabi_dsub+0x10c>
    5f4c:	2780      	movs	r7, #128	; 0x80
    5f4e:	043f      	lsls	r7, r7, #16
    5f50:	4339      	orrs	r1, r7
    5f52:	2b38      	cmp	r3, #56	; 0x38
    5f54:	dc00      	bgt.n	5f58 <__aeabi_dsub+0x1b4>
    5f56:	e0fd      	b.n	6154 <__aeabi_dsub+0x3b0>
    5f58:	430a      	orrs	r2, r1
    5f5a:	0017      	movs	r7, r2
    5f5c:	2100      	movs	r1, #0
    5f5e:	1e7a      	subs	r2, r7, #1
    5f60:	4197      	sbcs	r7, r2
    5f62:	4457      	add	r7, r10
    5f64:	4557      	cmp	r7, r10
    5f66:	4180      	sbcs	r0, r0
    5f68:	1909      	adds	r1, r1, r4
    5f6a:	4244      	negs	r4, r0
    5f6c:	190c      	adds	r4, r1, r4
    5f6e:	0223      	lsls	r3, r4, #8
    5f70:	d53a      	bpl.n	5fe8 <__aeabi_dsub+0x244>
    5f72:	4b5d      	ldr	r3, [pc, #372]	; (60e8 <__aeabi_dsub+0x344>)
    5f74:	3601      	adds	r6, #1
    5f76:	429e      	cmp	r6, r3
    5f78:	d100      	bne.n	5f7c <__aeabi_dsub+0x1d8>
    5f7a:	e14b      	b.n	6214 <__aeabi_dsub+0x470>
    5f7c:	2201      	movs	r2, #1
    5f7e:	4b5b      	ldr	r3, [pc, #364]	; (60ec <__aeabi_dsub+0x348>)
    5f80:	401c      	ands	r4, r3
    5f82:	087b      	lsrs	r3, r7, #1
    5f84:	4017      	ands	r7, r2
    5f86:	431f      	orrs	r7, r3
    5f88:	07e2      	lsls	r2, r4, #31
    5f8a:	4317      	orrs	r7, r2
    5f8c:	0864      	lsrs	r4, r4, #1
    5f8e:	e78f      	b.n	5eb0 <__aeabi_dsub+0x10c>
    5f90:	0008      	movs	r0, r1
    5f92:	4310      	orrs	r0, r2
    5f94:	d000      	beq.n	5f98 <__aeabi_dsub+0x1f4>
    5f96:	e724      	b.n	5de2 <__aeabi_dsub+0x3e>
    5f98:	e721      	b.n	5dde <__aeabi_dsub+0x3a>
    5f9a:	0023      	movs	r3, r4
    5f9c:	433b      	orrs	r3, r7
    5f9e:	d100      	bne.n	5fa2 <__aeabi_dsub+0x1fe>
    5fa0:	e1b9      	b.n	6316 <__aeabi_dsub+0x572>
    5fa2:	2280      	movs	r2, #128	; 0x80
    5fa4:	0312      	lsls	r2, r2, #12
    5fa6:	4314      	orrs	r4, r2
    5fa8:	0324      	lsls	r4, r4, #12
    5faa:	0b24      	lsrs	r4, r4, #12
    5fac:	e79f      	b.n	5eee <__aeabi_dsub+0x14a>
    5fae:	002e      	movs	r6, r5
    5fb0:	e77e      	b.n	5eb0 <__aeabi_dsub+0x10c>
    5fb2:	0008      	movs	r0, r1
    5fb4:	4310      	orrs	r0, r2
    5fb6:	d100      	bne.n	5fba <__aeabi_dsub+0x216>
    5fb8:	e0ca      	b.n	6150 <__aeabi_dsub+0x3ac>
    5fba:	1e58      	subs	r0, r3, #1
    5fbc:	4684      	mov	r12, r0
    5fbe:	2800      	cmp	r0, #0
    5fc0:	d000      	beq.n	5fc4 <__aeabi_dsub+0x220>
    5fc2:	e0e7      	b.n	6194 <__aeabi_dsub+0x3f0>
    5fc4:	4452      	add	r2, r10
    5fc6:	4552      	cmp	r2, r10
    5fc8:	4180      	sbcs	r0, r0
    5fca:	1864      	adds	r4, r4, r1
    5fcc:	4240      	negs	r0, r0
    5fce:	1824      	adds	r4, r4, r0
    5fd0:	0017      	movs	r7, r2
    5fd2:	2601      	movs	r6, #1
    5fd4:	0223      	lsls	r3, r4, #8
    5fd6:	d507      	bpl.n	5fe8 <__aeabi_dsub+0x244>
    5fd8:	2602      	movs	r6, #2
    5fda:	e7cf      	b.n	5f7c <__aeabi_dsub+0x1d8>
    5fdc:	4664      	mov	r4, r12
    5fde:	432c      	orrs	r4, r5
    5fe0:	d100      	bne.n	5fe4 <__aeabi_dsub+0x240>
    5fe2:	e1b3      	b.n	634c <__aeabi_dsub+0x5a8>
    5fe4:	002c      	movs	r4, r5
    5fe6:	4667      	mov	r7, r12
    5fe8:	077b      	lsls	r3, r7, #29
    5fea:	d000      	beq.n	5fee <__aeabi_dsub+0x24a>
    5fec:	e762      	b.n	5eb4 <__aeabi_dsub+0x110>
    5fee:	0763      	lsls	r3, r4, #29
    5ff0:	08ff      	lsrs	r7, r7, #3
    5ff2:	431f      	orrs	r7, r3
    5ff4:	2501      	movs	r5, #1
    5ff6:	4643      	mov	r3, r8
    5ff8:	08e4      	lsrs	r4, r4, #3
    5ffa:	401d      	ands	r5, r3
    5ffc:	e793      	b.n	5f26 <__aeabi_dsub+0x182>
    5ffe:	2d00      	cmp	r5, #0
    6000:	d178      	bne.n	60f4 <__aeabi_dsub+0x350>
    6002:	1c75      	adds	r5, r6, #1
    6004:	056d      	lsls	r5, r5, #21
    6006:	0d6d      	lsrs	r5, r5, #21
    6008:	2d01      	cmp	r5, #1
    600a:	dc00      	bgt.n	600e <__aeabi_dsub+0x26a>
    600c:	e0f2      	b.n	61f4 <__aeabi_dsub+0x450>
    600e:	4650      	mov	r0, r10
    6010:	1a80      	subs	r0, r0, r2
    6012:	4582      	cmp	r10, r0
    6014:	41bf      	sbcs	r7, r7
    6016:	1a65      	subs	r5, r4, r1
    6018:	427f      	negs	r7, r7
    601a:	1bed      	subs	r5, r5, r7
    601c:	4684      	mov	r12, r0
    601e:	0228      	lsls	r0, r5, #8
    6020:	d400      	bmi.n	6024 <__aeabi_dsub+0x280>
    6022:	e08c      	b.n	613e <__aeabi_dsub+0x39a>
    6024:	4650      	mov	r0, r10
    6026:	1a17      	subs	r7, r2, r0
    6028:	42ba      	cmp	r2, r7
    602a:	4192      	sbcs	r2, r2
    602c:	1b0c      	subs	r4, r1, r4
    602e:	4255      	negs	r5, r2
    6030:	1b65      	subs	r5, r4, r5
    6032:	4698      	mov	r8, r3
    6034:	e714      	b.n	5e60 <__aeabi_dsub+0xbc>
    6036:	2501      	movs	r5, #1
    6038:	4643      	mov	r3, r8
    603a:	2400      	movs	r4, #0
    603c:	401d      	ands	r5, r3
    603e:	2700      	movs	r7, #0
    6040:	e755      	b.n	5eee <__aeabi_dsub+0x14a>
    6042:	4c2a      	ldr	r4, [pc, #168]	; (60ec <__aeabi_dsub+0x348>)
    6044:	1af6      	subs	r6, r6, r3
    6046:	402c      	ands	r4, r5
    6048:	e732      	b.n	5eb0 <__aeabi_dsub+0x10c>
    604a:	003d      	movs	r5, r7
    604c:	3828      	subs	r0, #40	; 0x28
    604e:	4085      	lsls	r5, r0
    6050:	2700      	movs	r7, #0
    6052:	e717      	b.n	5e84 <__aeabi_dsub+0xe0>
    6054:	0038      	movs	r0, r7
    6056:	f000 fa97 	bl	6588 <__clzsi2>
    605a:	3020      	adds	r0, #32
    605c:	e706      	b.n	5e6c <__aeabi_dsub+0xc8>
    605e:	430a      	orrs	r2, r1
    6060:	0017      	movs	r7, r2
    6062:	2100      	movs	r1, #0
    6064:	1e7a      	subs	r2, r7, #1
    6066:	4197      	sbcs	r7, r2
    6068:	e6ee      	b.n	5e48 <__aeabi_dsub+0xa4>
    606a:	2b00      	cmp	r3, #0
    606c:	d000      	beq.n	6070 <__aeabi_dsub+0x2cc>
    606e:	e0e5      	b.n	623c <__aeabi_dsub+0x498>
    6070:	1c73      	adds	r3, r6, #1
    6072:	469c      	mov	r12, r3
    6074:	055b      	lsls	r3, r3, #21
    6076:	0d5b      	lsrs	r3, r3, #21
    6078:	2b01      	cmp	r3, #1
    607a:	dc00      	bgt.n	607e <__aeabi_dsub+0x2da>
    607c:	e09f      	b.n	61be <__aeabi_dsub+0x41a>
    607e:	4b1a      	ldr	r3, [pc, #104]	; (60e8 <__aeabi_dsub+0x344>)
    6080:	459c      	cmp	r12, r3
    6082:	d100      	bne.n	6086 <__aeabi_dsub+0x2e2>
    6084:	e0c5      	b.n	6212 <__aeabi_dsub+0x46e>
    6086:	4452      	add	r2, r10
    6088:	4552      	cmp	r2, r10
    608a:	4180      	sbcs	r0, r0
    608c:	1864      	adds	r4, r4, r1
    608e:	4240      	negs	r0, r0
    6090:	1824      	adds	r4, r4, r0
    6092:	07e7      	lsls	r7, r4, #31
    6094:	0852      	lsrs	r2, r2, #1
    6096:	4317      	orrs	r7, r2
    6098:	0864      	lsrs	r4, r4, #1
    609a:	4666      	mov	r6, r12
    609c:	e708      	b.n	5eb0 <__aeabi_dsub+0x10c>
    609e:	4812      	ldr	r0, [pc, #72]	; (60e8 <__aeabi_dsub+0x344>)
    60a0:	4285      	cmp	r5, r0
    60a2:	d100      	bne.n	60a6 <__aeabi_dsub+0x302>
    60a4:	e085      	b.n	61b2 <__aeabi_dsub+0x40e>
    60a6:	001d      	movs	r5, r3
    60a8:	e6bc      	b.n	5e24 <__aeabi_dsub+0x80>
    60aa:	0029      	movs	r1, r5
    60ac:	3e1f      	subs	r6, #31
    60ae:	40f1      	lsrs	r1, r6
    60b0:	2b20      	cmp	r3, #32
    60b2:	d100      	bne.n	60b6 <__aeabi_dsub+0x312>
    60b4:	e07f      	b.n	61b6 <__aeabi_dsub+0x412>
    60b6:	2240      	movs	r2, #64	; 0x40
    60b8:	1ad3      	subs	r3, r2, r3
    60ba:	409d      	lsls	r5, r3
    60bc:	432f      	orrs	r7, r5
    60be:	1e7d      	subs	r5, r7, #1
    60c0:	41af      	sbcs	r7, r5
    60c2:	2400      	movs	r4, #0
    60c4:	430f      	orrs	r7, r1
    60c6:	2600      	movs	r6, #0
    60c8:	e78e      	b.n	5fe8 <__aeabi_dsub+0x244>
    60ca:	002b      	movs	r3, r5
    60cc:	000f      	movs	r7, r1
    60ce:	3b20      	subs	r3, #32
    60d0:	40df      	lsrs	r7, r3
    60d2:	2d20      	cmp	r5, #32
    60d4:	d071      	beq.n	61ba <__aeabi_dsub+0x416>
    60d6:	2340      	movs	r3, #64	; 0x40
    60d8:	1b5d      	subs	r5, r3, r5
    60da:	40a9      	lsls	r1, r5
    60dc:	430a      	orrs	r2, r1
    60de:	1e51      	subs	r1, r2, #1
    60e0:	418a      	sbcs	r2, r1
    60e2:	2100      	movs	r1, #0
    60e4:	4317      	orrs	r7, r2
    60e6:	e6af      	b.n	5e48 <__aeabi_dsub+0xa4>
    60e8:	000007ff 	.word	0x000007ff
    60ec:	ff7fffff 	.word	0xff7fffff
    60f0:	800fffff 	.word	0x800fffff
    60f4:	2e00      	cmp	r6, #0
    60f6:	d03e      	beq.n	6176 <__aeabi_dsub+0x3d2>
    60f8:	4eb3      	ldr	r6, [pc, #716]	; (63c8 <__aeabi_dsub+0x624>)
    60fa:	45b4      	cmp	r12, r6
    60fc:	d045      	beq.n	618a <__aeabi_dsub+0x3e6>
    60fe:	2680      	movs	r6, #128	; 0x80
    6100:	0436      	lsls	r6, r6, #16
    6102:	426d      	negs	r5, r5
    6104:	4334      	orrs	r4, r6
    6106:	2d38      	cmp	r5, #56	; 0x38
    6108:	dd00      	ble.n	610c <__aeabi_dsub+0x368>
    610a:	e0a8      	b.n	625e <__aeabi_dsub+0x4ba>
    610c:	2d1f      	cmp	r5, #31
    610e:	dd00      	ble.n	6112 <__aeabi_dsub+0x36e>
    6110:	e11f      	b.n	6352 <__aeabi_dsub+0x5ae>
    6112:	2620      	movs	r6, #32
    6114:	0027      	movs	r7, r4
    6116:	4650      	mov	r0, r10
    6118:	1b76      	subs	r6, r6, r5
    611a:	40b7      	lsls	r7, r6
    611c:	40e8      	lsrs	r0, r5
    611e:	4307      	orrs	r7, r0
    6120:	4650      	mov	r0, r10
    6122:	40b0      	lsls	r0, r6
    6124:	1e46      	subs	r6, r0, #1
    6126:	41b0      	sbcs	r0, r6
    6128:	40ec      	lsrs	r4, r5
    612a:	4338      	orrs	r0, r7
    612c:	1a17      	subs	r7, r2, r0
    612e:	42ba      	cmp	r2, r7
    6130:	4192      	sbcs	r2, r2
    6132:	1b0c      	subs	r4, r1, r4
    6134:	4252      	negs	r2, r2
    6136:	1aa4      	subs	r4, r4, r2
    6138:	4666      	mov	r6, r12
    613a:	4698      	mov	r8, r3
    613c:	e68b      	b.n	5e56 <__aeabi_dsub+0xb2>
    613e:	4664      	mov	r4, r12
    6140:	4667      	mov	r7, r12
    6142:	432c      	orrs	r4, r5
    6144:	d000      	beq.n	6148 <__aeabi_dsub+0x3a4>
    6146:	e68b      	b.n	5e60 <__aeabi_dsub+0xbc>
    6148:	2500      	movs	r5, #0
    614a:	2600      	movs	r6, #0
    614c:	2700      	movs	r7, #0
    614e:	e6ea      	b.n	5f26 <__aeabi_dsub+0x182>
    6150:	001e      	movs	r6, r3
    6152:	e6ad      	b.n	5eb0 <__aeabi_dsub+0x10c>
    6154:	2b1f      	cmp	r3, #31
    6156:	dc60      	bgt.n	621a <__aeabi_dsub+0x476>
    6158:	2720      	movs	r7, #32
    615a:	1af8      	subs	r0, r7, r3
    615c:	000f      	movs	r7, r1
    615e:	4684      	mov	r12, r0
    6160:	4087      	lsls	r7, r0
    6162:	0010      	movs	r0, r2
    6164:	40d8      	lsrs	r0, r3
    6166:	4307      	orrs	r7, r0
    6168:	4660      	mov	r0, r12
    616a:	4082      	lsls	r2, r0
    616c:	1e50      	subs	r0, r2, #1
    616e:	4182      	sbcs	r2, r0
    6170:	40d9      	lsrs	r1, r3
    6172:	4317      	orrs	r7, r2
    6174:	e6f5      	b.n	5f62 <__aeabi_dsub+0x1be>
    6176:	0026      	movs	r6, r4
    6178:	4650      	mov	r0, r10
    617a:	4306      	orrs	r6, r0
    617c:	d005      	beq.n	618a <__aeabi_dsub+0x3e6>
    617e:	43ed      	mvns	r5, r5
    6180:	2d00      	cmp	r5, #0
    6182:	d0d3      	beq.n	612c <__aeabi_dsub+0x388>
    6184:	4e90      	ldr	r6, [pc, #576]	; (63c8 <__aeabi_dsub+0x624>)
    6186:	45b4      	cmp	r12, r6
    6188:	d1bd      	bne.n	6106 <__aeabi_dsub+0x362>
    618a:	000c      	movs	r4, r1
    618c:	0017      	movs	r7, r2
    618e:	4666      	mov	r6, r12
    6190:	4698      	mov	r8, r3
    6192:	e68d      	b.n	5eb0 <__aeabi_dsub+0x10c>
    6194:	488c      	ldr	r0, [pc, #560]	; (63c8 <__aeabi_dsub+0x624>)
    6196:	4283      	cmp	r3, r0
    6198:	d00b      	beq.n	61b2 <__aeabi_dsub+0x40e>
    619a:	4663      	mov	r3, r12
    619c:	e6d9      	b.n	5f52 <__aeabi_dsub+0x1ae>
    619e:	2d00      	cmp	r5, #0
    61a0:	d000      	beq.n	61a4 <__aeabi_dsub+0x400>
    61a2:	e096      	b.n	62d2 <__aeabi_dsub+0x52e>
    61a4:	0008      	movs	r0, r1
    61a6:	4310      	orrs	r0, r2
    61a8:	d100      	bne.n	61ac <__aeabi_dsub+0x408>
    61aa:	e0e2      	b.n	6372 <__aeabi_dsub+0x5ce>
    61ac:	000c      	movs	r4, r1
    61ae:	0017      	movs	r7, r2
    61b0:	4698      	mov	r8, r3
    61b2:	4e85      	ldr	r6, [pc, #532]	; (63c8 <__aeabi_dsub+0x624>)
    61b4:	e67c      	b.n	5eb0 <__aeabi_dsub+0x10c>
    61b6:	2500      	movs	r5, #0
    61b8:	e780      	b.n	60bc <__aeabi_dsub+0x318>
    61ba:	2100      	movs	r1, #0
    61bc:	e78e      	b.n	60dc <__aeabi_dsub+0x338>
    61be:	0023      	movs	r3, r4
    61c0:	4650      	mov	r0, r10
    61c2:	4303      	orrs	r3, r0
    61c4:	2e00      	cmp	r6, #0
    61c6:	d000      	beq.n	61ca <__aeabi_dsub+0x426>
    61c8:	e0a8      	b.n	631c <__aeabi_dsub+0x578>
    61ca:	2b00      	cmp	r3, #0
    61cc:	d100      	bne.n	61d0 <__aeabi_dsub+0x42c>
    61ce:	e0de      	b.n	638e <__aeabi_dsub+0x5ea>
    61d0:	000b      	movs	r3, r1
    61d2:	4313      	orrs	r3, r2
    61d4:	d100      	bne.n	61d8 <__aeabi_dsub+0x434>
    61d6:	e66b      	b.n	5eb0 <__aeabi_dsub+0x10c>
    61d8:	4452      	add	r2, r10
    61da:	4552      	cmp	r2, r10
    61dc:	4180      	sbcs	r0, r0
    61de:	1864      	adds	r4, r4, r1
    61e0:	4240      	negs	r0, r0
    61e2:	1824      	adds	r4, r4, r0
    61e4:	0017      	movs	r7, r2
    61e6:	0223      	lsls	r3, r4, #8
    61e8:	d400      	bmi.n	61ec <__aeabi_dsub+0x448>
    61ea:	e6fd      	b.n	5fe8 <__aeabi_dsub+0x244>
    61ec:	4b77      	ldr	r3, [pc, #476]	; (63cc <__aeabi_dsub+0x628>)
    61ee:	4666      	mov	r6, r12
    61f0:	401c      	ands	r4, r3
    61f2:	e65d      	b.n	5eb0 <__aeabi_dsub+0x10c>
    61f4:	0025      	movs	r5, r4
    61f6:	4650      	mov	r0, r10
    61f8:	4305      	orrs	r5, r0
    61fa:	2e00      	cmp	r6, #0
    61fc:	d1cf      	bne.n	619e <__aeabi_dsub+0x3fa>
    61fe:	2d00      	cmp	r5, #0
    6200:	d14f      	bne.n	62a2 <__aeabi_dsub+0x4fe>
    6202:	000c      	movs	r4, r1
    6204:	4314      	orrs	r4, r2
    6206:	d100      	bne.n	620a <__aeabi_dsub+0x466>
    6208:	e0a0      	b.n	634c <__aeabi_dsub+0x5a8>
    620a:	000c      	movs	r4, r1
    620c:	0017      	movs	r7, r2
    620e:	4698      	mov	r8, r3
    6210:	e64e      	b.n	5eb0 <__aeabi_dsub+0x10c>
    6212:	4666      	mov	r6, r12
    6214:	2400      	movs	r4, #0
    6216:	2700      	movs	r7, #0
    6218:	e685      	b.n	5f26 <__aeabi_dsub+0x182>
    621a:	001f      	movs	r7, r3
    621c:	0008      	movs	r0, r1
    621e:	3f20      	subs	r7, #32
    6220:	40f8      	lsrs	r0, r7
    6222:	0007      	movs	r7, r0
    6224:	2b20      	cmp	r3, #32
    6226:	d100      	bne.n	622a <__aeabi_dsub+0x486>
    6228:	e08e      	b.n	6348 <__aeabi_dsub+0x5a4>
    622a:	2040      	movs	r0, #64	; 0x40
    622c:	1ac3      	subs	r3, r0, r3
    622e:	4099      	lsls	r1, r3
    6230:	430a      	orrs	r2, r1
    6232:	1e51      	subs	r1, r2, #1
    6234:	418a      	sbcs	r2, r1
    6236:	2100      	movs	r1, #0
    6238:	4317      	orrs	r7, r2
    623a:	e692      	b.n	5f62 <__aeabi_dsub+0x1be>
    623c:	2e00      	cmp	r6, #0
    623e:	d114      	bne.n	626a <__aeabi_dsub+0x4c6>
    6240:	0026      	movs	r6, r4
    6242:	4650      	mov	r0, r10
    6244:	4306      	orrs	r6, r0
    6246:	d062      	beq.n	630e <__aeabi_dsub+0x56a>
    6248:	43db      	mvns	r3, r3
    624a:	2b00      	cmp	r3, #0
    624c:	d15c      	bne.n	6308 <__aeabi_dsub+0x564>
    624e:	1887      	adds	r7, r0, r2
    6250:	4297      	cmp	r7, r2
    6252:	4192      	sbcs	r2, r2
    6254:	1864      	adds	r4, r4, r1
    6256:	4252      	negs	r2, r2
    6258:	18a4      	adds	r4, r4, r2
    625a:	4666      	mov	r6, r12
    625c:	e687      	b.n	5f6e <__aeabi_dsub+0x1ca>
    625e:	4650      	mov	r0, r10
    6260:	4320      	orrs	r0, r4
    6262:	1e44      	subs	r4, r0, #1
    6264:	41a0      	sbcs	r0, r4
    6266:	2400      	movs	r4, #0
    6268:	e760      	b.n	612c <__aeabi_dsub+0x388>
    626a:	4e57      	ldr	r6, [pc, #348]	; (63c8 <__aeabi_dsub+0x624>)
    626c:	45b4      	cmp	r12, r6
    626e:	d04e      	beq.n	630e <__aeabi_dsub+0x56a>
    6270:	2680      	movs	r6, #128	; 0x80
    6272:	0436      	lsls	r6, r6, #16
    6274:	425b      	negs	r3, r3
    6276:	4334      	orrs	r4, r6
    6278:	2b38      	cmp	r3, #56	; 0x38
    627a:	dd00      	ble.n	627e <__aeabi_dsub+0x4da>
    627c:	e07f      	b.n	637e <__aeabi_dsub+0x5da>
    627e:	2b1f      	cmp	r3, #31
    6280:	dd00      	ble.n	6284 <__aeabi_dsub+0x4e0>
    6282:	e08b      	b.n	639c <__aeabi_dsub+0x5f8>
    6284:	2620      	movs	r6, #32
    6286:	0027      	movs	r7, r4
    6288:	4650      	mov	r0, r10
    628a:	1af6      	subs	r6, r6, r3
    628c:	40b7      	lsls	r7, r6
    628e:	40d8      	lsrs	r0, r3
    6290:	4307      	orrs	r7, r0
    6292:	4650      	mov	r0, r10
    6294:	40b0      	lsls	r0, r6
    6296:	1e46      	subs	r6, r0, #1
    6298:	41b0      	sbcs	r0, r6
    629a:	4307      	orrs	r7, r0
    629c:	40dc      	lsrs	r4, r3
    629e:	18bf      	adds	r7, r7, r2
    62a0:	e7d6      	b.n	6250 <__aeabi_dsub+0x4ac>
    62a2:	000d      	movs	r5, r1
    62a4:	4315      	orrs	r5, r2
    62a6:	d100      	bne.n	62aa <__aeabi_dsub+0x506>
    62a8:	e602      	b.n	5eb0 <__aeabi_dsub+0x10c>
    62aa:	4650      	mov	r0, r10
    62ac:	1a80      	subs	r0, r0, r2
    62ae:	4582      	cmp	r10, r0
    62b0:	41bf      	sbcs	r7, r7
    62b2:	1a65      	subs	r5, r4, r1
    62b4:	427f      	negs	r7, r7
    62b6:	1bed      	subs	r5, r5, r7
    62b8:	4684      	mov	r12, r0
    62ba:	0228      	lsls	r0, r5, #8
    62bc:	d400      	bmi.n	62c0 <__aeabi_dsub+0x51c>
    62be:	e68d      	b.n	5fdc <__aeabi_dsub+0x238>
    62c0:	4650      	mov	r0, r10
    62c2:	1a17      	subs	r7, r2, r0
    62c4:	42ba      	cmp	r2, r7
    62c6:	4192      	sbcs	r2, r2
    62c8:	1b0c      	subs	r4, r1, r4
    62ca:	4252      	negs	r2, r2
    62cc:	1aa4      	subs	r4, r4, r2
    62ce:	4698      	mov	r8, r3
    62d0:	e5ee      	b.n	5eb0 <__aeabi_dsub+0x10c>
    62d2:	000d      	movs	r5, r1
    62d4:	4315      	orrs	r5, r2
    62d6:	d100      	bne.n	62da <__aeabi_dsub+0x536>
    62d8:	e76b      	b.n	61b2 <__aeabi_dsub+0x40e>
    62da:	4650      	mov	r0, r10
    62dc:	0767      	lsls	r7, r4, #29
    62de:	08c0      	lsrs	r0, r0, #3
    62e0:	4307      	orrs	r7, r0
    62e2:	2080      	movs	r0, #128	; 0x80
    62e4:	08e4      	lsrs	r4, r4, #3
    62e6:	0300      	lsls	r0, r0, #12
    62e8:	4204      	tst	r4, r0
    62ea:	d007      	beq.n	62fc <__aeabi_dsub+0x558>
    62ec:	08cd      	lsrs	r5, r1, #3
    62ee:	4205      	tst	r5, r0
    62f0:	d104      	bne.n	62fc <__aeabi_dsub+0x558>
    62f2:	002c      	movs	r4, r5
    62f4:	4698      	mov	r8, r3
    62f6:	08d7      	lsrs	r7, r2, #3
    62f8:	0749      	lsls	r1, r1, #29
    62fa:	430f      	orrs	r7, r1
    62fc:	0f7b      	lsrs	r3, r7, #29
    62fe:	00e4      	lsls	r4, r4, #3
    6300:	431c      	orrs	r4, r3
    6302:	00ff      	lsls	r7, r7, #3
    6304:	4e30      	ldr	r6, [pc, #192]	; (63c8 <__aeabi_dsub+0x624>)
    6306:	e5d3      	b.n	5eb0 <__aeabi_dsub+0x10c>
    6308:	4e2f      	ldr	r6, [pc, #188]	; (63c8 <__aeabi_dsub+0x624>)
    630a:	45b4      	cmp	r12, r6
    630c:	d1b4      	bne.n	6278 <__aeabi_dsub+0x4d4>
    630e:	000c      	movs	r4, r1
    6310:	0017      	movs	r7, r2
    6312:	4666      	mov	r6, r12
    6314:	e5cc      	b.n	5eb0 <__aeabi_dsub+0x10c>
    6316:	2700      	movs	r7, #0
    6318:	2400      	movs	r4, #0
    631a:	e5e8      	b.n	5eee <__aeabi_dsub+0x14a>
    631c:	2b00      	cmp	r3, #0
    631e:	d039      	beq.n	6394 <__aeabi_dsub+0x5f0>
    6320:	000b      	movs	r3, r1
    6322:	4313      	orrs	r3, r2
    6324:	d100      	bne.n	6328 <__aeabi_dsub+0x584>
    6326:	e744      	b.n	61b2 <__aeabi_dsub+0x40e>
    6328:	08c0      	lsrs	r0, r0, #3
    632a:	0767      	lsls	r7, r4, #29
    632c:	4307      	orrs	r7, r0
    632e:	2080      	movs	r0, #128	; 0x80
    6330:	08e4      	lsrs	r4, r4, #3
    6332:	0300      	lsls	r0, r0, #12
    6334:	4204      	tst	r4, r0
    6336:	d0e1      	beq.n	62fc <__aeabi_dsub+0x558>
    6338:	08cb      	lsrs	r3, r1, #3
    633a:	4203      	tst	r3, r0
    633c:	d1de      	bne.n	62fc <__aeabi_dsub+0x558>
    633e:	08d7      	lsrs	r7, r2, #3
    6340:	0749      	lsls	r1, r1, #29
    6342:	430f      	orrs	r7, r1
    6344:	001c      	movs	r4, r3
    6346:	e7d9      	b.n	62fc <__aeabi_dsub+0x558>
    6348:	2100      	movs	r1, #0
    634a:	e771      	b.n	6230 <__aeabi_dsub+0x48c>
    634c:	2500      	movs	r5, #0
    634e:	2700      	movs	r7, #0
    6350:	e5e9      	b.n	5f26 <__aeabi_dsub+0x182>
    6352:	002e      	movs	r6, r5
    6354:	0027      	movs	r7, r4
    6356:	3e20      	subs	r6, #32
    6358:	40f7      	lsrs	r7, r6
    635a:	2d20      	cmp	r5, #32
    635c:	d02f      	beq.n	63be <__aeabi_dsub+0x61a>
    635e:	2640      	movs	r6, #64	; 0x40
    6360:	1b75      	subs	r5, r6, r5
    6362:	40ac      	lsls	r4, r5
    6364:	4650      	mov	r0, r10
    6366:	4320      	orrs	r0, r4
    6368:	1e44      	subs	r4, r0, #1
    636a:	41a0      	sbcs	r0, r4
    636c:	2400      	movs	r4, #0
    636e:	4338      	orrs	r0, r7
    6370:	e6dc      	b.n	612c <__aeabi_dsub+0x388>
    6372:	2480      	movs	r4, #128	; 0x80
    6374:	2500      	movs	r5, #0
    6376:	0324      	lsls	r4, r4, #12
    6378:	4e13      	ldr	r6, [pc, #76]	; (63c8 <__aeabi_dsub+0x624>)
    637a:	2700      	movs	r7, #0
    637c:	e5d3      	b.n	5f26 <__aeabi_dsub+0x182>
    637e:	4650      	mov	r0, r10
    6380:	4320      	orrs	r0, r4
    6382:	0007      	movs	r7, r0
    6384:	1e78      	subs	r0, r7, #1
    6386:	4187      	sbcs	r7, r0
    6388:	2400      	movs	r4, #0
    638a:	18bf      	adds	r7, r7, r2
    638c:	e760      	b.n	6250 <__aeabi_dsub+0x4ac>
    638e:	000c      	movs	r4, r1
    6390:	0017      	movs	r7, r2
    6392:	e58d      	b.n	5eb0 <__aeabi_dsub+0x10c>
    6394:	000c      	movs	r4, r1
    6396:	0017      	movs	r7, r2
    6398:	4e0b      	ldr	r6, [pc, #44]	; (63c8 <__aeabi_dsub+0x624>)
    639a:	e589      	b.n	5eb0 <__aeabi_dsub+0x10c>
    639c:	001e      	movs	r6, r3
    639e:	0027      	movs	r7, r4
    63a0:	3e20      	subs	r6, #32
    63a2:	40f7      	lsrs	r7, r6
    63a4:	2b20      	cmp	r3, #32
    63a6:	d00c      	beq.n	63c2 <__aeabi_dsub+0x61e>
    63a8:	2640      	movs	r6, #64	; 0x40
    63aa:	1af3      	subs	r3, r6, r3
    63ac:	409c      	lsls	r4, r3
    63ae:	4650      	mov	r0, r10
    63b0:	4320      	orrs	r0, r4
    63b2:	1e44      	subs	r4, r0, #1
    63b4:	41a0      	sbcs	r0, r4
    63b6:	4307      	orrs	r7, r0
    63b8:	2400      	movs	r4, #0
    63ba:	18bf      	adds	r7, r7, r2
    63bc:	e748      	b.n	6250 <__aeabi_dsub+0x4ac>
    63be:	2400      	movs	r4, #0
    63c0:	e7d0      	b.n	6364 <__aeabi_dsub+0x5c0>
    63c2:	2400      	movs	r4, #0
    63c4:	e7f3      	b.n	63ae <__aeabi_dsub+0x60a>
    63c6:	46c0      	nop			; (mov r8, r8)
    63c8:	000007ff 	.word	0x000007ff
    63cc:	ff7fffff 	.word	0xff7fffff

000063d0 <__aeabi_f2d>:
    63d0:	0041      	lsls	r1, r0, #1
    63d2:	0e09      	lsrs	r1, r1, #24
    63d4:	1c4b      	adds	r3, r1, #1
    63d6:	b570      	push	{r4, r5, r6, lr}
    63d8:	b2db      	uxtb	r3, r3
    63da:	0246      	lsls	r6, r0, #9
    63dc:	0a75      	lsrs	r5, r6, #9
    63de:	0fc4      	lsrs	r4, r0, #31
    63e0:	2b01      	cmp	r3, #1
    63e2:	dd14      	ble.n	640e <__aeabi_f2d+0x3e>
    63e4:	23e0      	movs	r3, #224	; 0xe0
    63e6:	009b      	lsls	r3, r3, #2
    63e8:	076d      	lsls	r5, r5, #29
    63ea:	0b36      	lsrs	r6, r6, #12
    63ec:	18cb      	adds	r3, r1, r3
    63ee:	2100      	movs	r1, #0
    63f0:	0d0a      	lsrs	r2, r1, #20
    63f2:	0028      	movs	r0, r5
    63f4:	0512      	lsls	r2, r2, #20
    63f6:	4d1c      	ldr	r5, [pc, #112]	; (6468 <__aeabi_f2d+0x98>)
    63f8:	4332      	orrs	r2, r6
    63fa:	055b      	lsls	r3, r3, #21
    63fc:	402a      	ands	r2, r5
    63fe:	085b      	lsrs	r3, r3, #1
    6400:	4313      	orrs	r3, r2
    6402:	005b      	lsls	r3, r3, #1
    6404:	07e4      	lsls	r4, r4, #31
    6406:	085b      	lsrs	r3, r3, #1
    6408:	4323      	orrs	r3, r4
    640a:	0019      	movs	r1, r3
    640c:	bd70      	pop	{r4, r5, r6, pc}
    640e:	2900      	cmp	r1, #0
    6410:	d114      	bne.n	643c <__aeabi_f2d+0x6c>
    6412:	2d00      	cmp	r5, #0
    6414:	d01e      	beq.n	6454 <__aeabi_f2d+0x84>
    6416:	0028      	movs	r0, r5
    6418:	f000 f8b6 	bl	6588 <__clzsi2>
    641c:	280a      	cmp	r0, #10
    641e:	dc1c      	bgt.n	645a <__aeabi_f2d+0x8a>
    6420:	230b      	movs	r3, #11
    6422:	002a      	movs	r2, r5
    6424:	1a1b      	subs	r3, r3, r0
    6426:	40da      	lsrs	r2, r3
    6428:	0003      	movs	r3, r0
    642a:	3315      	adds	r3, #21
    642c:	409d      	lsls	r5, r3
    642e:	4b0f      	ldr	r3, [pc, #60]	; (646c <__aeabi_f2d+0x9c>)
    6430:	0312      	lsls	r2, r2, #12
    6432:	1a1b      	subs	r3, r3, r0
    6434:	055b      	lsls	r3, r3, #21
    6436:	0b16      	lsrs	r6, r2, #12
    6438:	0d5b      	lsrs	r3, r3, #21
    643a:	e7d8      	b.n	63ee <__aeabi_f2d+0x1e>
    643c:	2d00      	cmp	r5, #0
    643e:	d006      	beq.n	644e <__aeabi_f2d+0x7e>
    6440:	0b32      	lsrs	r2, r6, #12
    6442:	2680      	movs	r6, #128	; 0x80
    6444:	0336      	lsls	r6, r6, #12
    6446:	076d      	lsls	r5, r5, #29
    6448:	4316      	orrs	r6, r2
    644a:	4b09      	ldr	r3, [pc, #36]	; (6470 <__aeabi_f2d+0xa0>)
    644c:	e7cf      	b.n	63ee <__aeabi_f2d+0x1e>
    644e:	4b08      	ldr	r3, [pc, #32]	; (6470 <__aeabi_f2d+0xa0>)
    6450:	2600      	movs	r6, #0
    6452:	e7cc      	b.n	63ee <__aeabi_f2d+0x1e>
    6454:	2300      	movs	r3, #0
    6456:	2600      	movs	r6, #0
    6458:	e7c9      	b.n	63ee <__aeabi_f2d+0x1e>
    645a:	0003      	movs	r3, r0
    645c:	002a      	movs	r2, r5
    645e:	3b0b      	subs	r3, #11
    6460:	409a      	lsls	r2, r3
    6462:	2500      	movs	r5, #0
    6464:	e7e3      	b.n	642e <__aeabi_f2d+0x5e>
    6466:	46c0      	nop			; (mov r8, r8)
    6468:	800fffff 	.word	0x800fffff
    646c:	00000389 	.word	0x00000389
    6470:	000007ff 	.word	0x000007ff

00006474 <__aeabi_d2f>:
    6474:	b5f0      	push	{r4, r5, r6, r7, lr}
    6476:	004c      	lsls	r4, r1, #1
    6478:	0d64      	lsrs	r4, r4, #21
    647a:	030b      	lsls	r3, r1, #12
    647c:	1c62      	adds	r2, r4, #1
    647e:	0f45      	lsrs	r5, r0, #29
    6480:	0a5b      	lsrs	r3, r3, #9
    6482:	0552      	lsls	r2, r2, #21
    6484:	432b      	orrs	r3, r5
    6486:	0fc9      	lsrs	r1, r1, #31
    6488:	00c5      	lsls	r5, r0, #3
    648a:	0d52      	lsrs	r2, r2, #21
    648c:	2a01      	cmp	r2, #1
    648e:	dd28      	ble.n	64e2 <__aeabi_d2f+0x6e>
    6490:	4a3a      	ldr	r2, [pc, #232]	; (657c <__aeabi_d2f+0x108>)
    6492:	18a6      	adds	r6, r4, r2
    6494:	2efe      	cmp	r6, #254	; 0xfe
    6496:	dc1b      	bgt.n	64d0 <__aeabi_d2f+0x5c>
    6498:	2e00      	cmp	r6, #0
    649a:	dd3e      	ble.n	651a <__aeabi_d2f+0xa6>
    649c:	0180      	lsls	r0, r0, #6
    649e:	0002      	movs	r2, r0
    64a0:	1e50      	subs	r0, r2, #1
    64a2:	4182      	sbcs	r2, r0
    64a4:	0f6d      	lsrs	r5, r5, #29
    64a6:	432a      	orrs	r2, r5
    64a8:	00db      	lsls	r3, r3, #3
    64aa:	4313      	orrs	r3, r2
    64ac:	075a      	lsls	r2, r3, #29
    64ae:	d004      	beq.n	64ba <__aeabi_d2f+0x46>
    64b0:	220f      	movs	r2, #15
    64b2:	401a      	ands	r2, r3
    64b4:	2a04      	cmp	r2, #4
    64b6:	d000      	beq.n	64ba <__aeabi_d2f+0x46>
    64b8:	3304      	adds	r3, #4
    64ba:	2280      	movs	r2, #128	; 0x80
    64bc:	04d2      	lsls	r2, r2, #19
    64be:	401a      	ands	r2, r3
    64c0:	d05a      	beq.n	6578 <__aeabi_d2f+0x104>
    64c2:	3601      	adds	r6, #1
    64c4:	2eff      	cmp	r6, #255	; 0xff
    64c6:	d003      	beq.n	64d0 <__aeabi_d2f+0x5c>
    64c8:	019b      	lsls	r3, r3, #6
    64ca:	0a5b      	lsrs	r3, r3, #9
    64cc:	b2f4      	uxtb	r4, r6
    64ce:	e001      	b.n	64d4 <__aeabi_d2f+0x60>
    64d0:	24ff      	movs	r4, #255	; 0xff
    64d2:	2300      	movs	r3, #0
    64d4:	0258      	lsls	r0, r3, #9
    64d6:	05e4      	lsls	r4, r4, #23
    64d8:	0a40      	lsrs	r0, r0, #9
    64da:	07c9      	lsls	r1, r1, #31
    64dc:	4320      	orrs	r0, r4
    64de:	4308      	orrs	r0, r1
    64e0:	bdf0      	pop	{r4, r5, r6, r7, pc}
    64e2:	2c00      	cmp	r4, #0
    64e4:	d007      	beq.n	64f6 <__aeabi_d2f+0x82>
    64e6:	431d      	orrs	r5, r3
    64e8:	d0f2      	beq.n	64d0 <__aeabi_d2f+0x5c>
    64ea:	2080      	movs	r0, #128	; 0x80
    64ec:	00db      	lsls	r3, r3, #3
    64ee:	0480      	lsls	r0, r0, #18
    64f0:	4303      	orrs	r3, r0
    64f2:	26ff      	movs	r6, #255	; 0xff
    64f4:	e7da      	b.n	64ac <__aeabi_d2f+0x38>
    64f6:	432b      	orrs	r3, r5
    64f8:	d003      	beq.n	6502 <__aeabi_d2f+0x8e>
    64fa:	2305      	movs	r3, #5
    64fc:	08db      	lsrs	r3, r3, #3
    64fe:	2cff      	cmp	r4, #255	; 0xff
    6500:	d003      	beq.n	650a <__aeabi_d2f+0x96>
    6502:	025b      	lsls	r3, r3, #9
    6504:	0a5b      	lsrs	r3, r3, #9
    6506:	b2e4      	uxtb	r4, r4
    6508:	e7e4      	b.n	64d4 <__aeabi_d2f+0x60>
    650a:	2b00      	cmp	r3, #0
    650c:	d032      	beq.n	6574 <__aeabi_d2f+0x100>
    650e:	2080      	movs	r0, #128	; 0x80
    6510:	03c0      	lsls	r0, r0, #15
    6512:	4303      	orrs	r3, r0
    6514:	025b      	lsls	r3, r3, #9
    6516:	0a5b      	lsrs	r3, r3, #9
    6518:	e7dc      	b.n	64d4 <__aeabi_d2f+0x60>
    651a:	0032      	movs	r2, r6
    651c:	3217      	adds	r2, #23
    651e:	db14      	blt.n	654a <__aeabi_d2f+0xd6>
    6520:	2280      	movs	r2, #128	; 0x80
    6522:	271e      	movs	r7, #30
    6524:	0412      	lsls	r2, r2, #16
    6526:	4313      	orrs	r3, r2
    6528:	1bbf      	subs	r7, r7, r6
    652a:	2f1f      	cmp	r7, #31
    652c:	dc0f      	bgt.n	654e <__aeabi_d2f+0xda>
    652e:	4a14      	ldr	r2, [pc, #80]	; (6580 <__aeabi_d2f+0x10c>)
    6530:	4694      	mov	r12, r2
    6532:	4464      	add	r4, r12
    6534:	002a      	movs	r2, r5
    6536:	40a5      	lsls	r5, r4
    6538:	002e      	movs	r6, r5
    653a:	40a3      	lsls	r3, r4
    653c:	1e75      	subs	r5, r6, #1
    653e:	41ae      	sbcs	r6, r5
    6540:	40fa      	lsrs	r2, r7
    6542:	4333      	orrs	r3, r6
    6544:	4313      	orrs	r3, r2
    6546:	2600      	movs	r6, #0
    6548:	e7b0      	b.n	64ac <__aeabi_d2f+0x38>
    654a:	2400      	movs	r4, #0
    654c:	e7d5      	b.n	64fa <__aeabi_d2f+0x86>
    654e:	2202      	movs	r2, #2
    6550:	4252      	negs	r2, r2
    6552:	1b96      	subs	r6, r2, r6
    6554:	001a      	movs	r2, r3
    6556:	40f2      	lsrs	r2, r6
    6558:	2f20      	cmp	r7, #32
    655a:	d009      	beq.n	6570 <__aeabi_d2f+0xfc>
    655c:	4809      	ldr	r0, [pc, #36]	; (6584 <__aeabi_d2f+0x110>)
    655e:	4684      	mov	r12, r0
    6560:	4464      	add	r4, r12
    6562:	40a3      	lsls	r3, r4
    6564:	432b      	orrs	r3, r5
    6566:	1e5d      	subs	r5, r3, #1
    6568:	41ab      	sbcs	r3, r5
    656a:	2600      	movs	r6, #0
    656c:	4313      	orrs	r3, r2
    656e:	e79d      	b.n	64ac <__aeabi_d2f+0x38>
    6570:	2300      	movs	r3, #0
    6572:	e7f7      	b.n	6564 <__aeabi_d2f+0xf0>
    6574:	2300      	movs	r3, #0
    6576:	e7ad      	b.n	64d4 <__aeabi_d2f+0x60>
    6578:	0034      	movs	r4, r6
    657a:	e7bf      	b.n	64fc <__aeabi_d2f+0x88>
    657c:	fffffc80 	.word	0xfffffc80
    6580:	fffffc82 	.word	0xfffffc82
    6584:	fffffca2 	.word	0xfffffca2

00006588 <__clzsi2>:
    6588:	211c      	movs	r1, #28
    658a:	2301      	movs	r3, #1
    658c:	041b      	lsls	r3, r3, #16
    658e:	4298      	cmp	r0, r3
    6590:	d301      	bcc.n	6596 <__clzsi2+0xe>
    6592:	0c00      	lsrs	r0, r0, #16
    6594:	3910      	subs	r1, #16
    6596:	0a1b      	lsrs	r3, r3, #8
    6598:	4298      	cmp	r0, r3
    659a:	d301      	bcc.n	65a0 <__clzsi2+0x18>
    659c:	0a00      	lsrs	r0, r0, #8
    659e:	3908      	subs	r1, #8
    65a0:	091b      	lsrs	r3, r3, #4
    65a2:	4298      	cmp	r0, r3
    65a4:	d301      	bcc.n	65aa <__clzsi2+0x22>
    65a6:	0900      	lsrs	r0, r0, #4
    65a8:	3904      	subs	r1, #4
    65aa:	a202      	add	r2, pc, #8	; (adr r2, 65b4 <__clzsi2+0x2c>)
    65ac:	5c10      	ldrb	r0, [r2, r0]
    65ae:	1840      	adds	r0, r0, r1
    65b0:	4770      	bx	lr
    65b2:	46c0      	nop			; (mov r8, r8)
    65b4:	02020304 	.word	0x02020304
    65b8:	01010101 	.word	0x01010101
	...

000065c4 <__errno>:
    65c4:	4b01      	ldr	r3, [pc, #4]	; (65cc <__errno+0x8>)
    65c6:	6818      	ldr	r0, [r3, #0]
    65c8:	4770      	bx	lr
    65ca:	46c0      	nop			; (mov r8, r8)
    65cc:	1ffff0e8 	.word	0x1ffff0e8

000065d0 <__sflush_r>:
    65d0:	b5f7      	push	{r0, r1, r2, r4, r5, r6, r7, lr}
    65d2:	898a      	ldrh	r2, [r1, #12]
    65d4:	0005      	movs	r5, r0
    65d6:	000c      	movs	r4, r1
    65d8:	0713      	lsls	r3, r2, #28
    65da:	d460      	bmi.n	669e <__sflush_r+0xce>
    65dc:	684b      	ldr	r3, [r1, #4]
    65de:	2b00      	cmp	r3, #0
    65e0:	dc04      	bgt.n	65ec <__sflush_r+0x1c>
    65e2:	6c0b      	ldr	r3, [r1, #64]	; 0x40
    65e4:	2b00      	cmp	r3, #0
    65e6:	dc01      	bgt.n	65ec <__sflush_r+0x1c>
    65e8:	2000      	movs	r0, #0
    65ea:	bdfe      	pop	{r1, r2, r3, r4, r5, r6, r7, pc}
    65ec:	6ae7      	ldr	r7, [r4, #44]	; 0x2c
    65ee:	2f00      	cmp	r7, #0
    65f0:	d0fa      	beq.n	65e8 <__sflush_r+0x18>
    65f2:	2300      	movs	r3, #0
    65f4:	682e      	ldr	r6, [r5, #0]
    65f6:	602b      	str	r3, [r5, #0]
    65f8:	2380      	movs	r3, #128	; 0x80
    65fa:	015b      	lsls	r3, r3, #5
    65fc:	401a      	ands	r2, r3
    65fe:	d034      	beq.n	666a <__sflush_r+0x9a>
    6600:	6d60      	ldr	r0, [r4, #84]	; 0x54
    6602:	89a3      	ldrh	r3, [r4, #12]
    6604:	075b      	lsls	r3, r3, #29
    6606:	d506      	bpl.n	6616 <__sflush_r+0x46>
    6608:	6863      	ldr	r3, [r4, #4]
    660a:	1ac0      	subs	r0, r0, r3
    660c:	6b63      	ldr	r3, [r4, #52]	; 0x34
    660e:	2b00      	cmp	r3, #0
    6610:	d001      	beq.n	6616 <__sflush_r+0x46>
    6612:	6c23      	ldr	r3, [r4, #64]	; 0x40
    6614:	1ac0      	subs	r0, r0, r3
    6616:	0002      	movs	r2, r0
    6618:	6a21      	ldr	r1, [r4, #32]
    661a:	2300      	movs	r3, #0
    661c:	0028      	movs	r0, r5
    661e:	6ae7      	ldr	r7, [r4, #44]	; 0x2c
    6620:	47b8      	blx	r7
    6622:	89a1      	ldrh	r1, [r4, #12]
    6624:	1c43      	adds	r3, r0, #1
    6626:	d106      	bne.n	6636 <__sflush_r+0x66>
    6628:	682b      	ldr	r3, [r5, #0]
    662a:	2b1d      	cmp	r3, #29
    662c:	d831      	bhi.n	6692 <__sflush_r+0xc2>
    662e:	4a2c      	ldr	r2, [pc, #176]	; (66e0 <__sflush_r+0x110>)
    6630:	40da      	lsrs	r2, r3
    6632:	07d3      	lsls	r3, r2, #31
    6634:	d52d      	bpl.n	6692 <__sflush_r+0xc2>
    6636:	2300      	movs	r3, #0
    6638:	6063      	str	r3, [r4, #4]
    663a:	6923      	ldr	r3, [r4, #16]
    663c:	6023      	str	r3, [r4, #0]
    663e:	04cb      	lsls	r3, r1, #19
    6640:	d505      	bpl.n	664e <__sflush_r+0x7e>
    6642:	1c43      	adds	r3, r0, #1
    6644:	d102      	bne.n	664c <__sflush_r+0x7c>
    6646:	682b      	ldr	r3, [r5, #0]
    6648:	2b00      	cmp	r3, #0
    664a:	d100      	bne.n	664e <__sflush_r+0x7e>
    664c:	6560      	str	r0, [r4, #84]	; 0x54
    664e:	6b61      	ldr	r1, [r4, #52]	; 0x34
    6650:	602e      	str	r6, [r5, #0]
    6652:	2900      	cmp	r1, #0
    6654:	d0c8      	beq.n	65e8 <__sflush_r+0x18>
    6656:	0023      	movs	r3, r4
    6658:	3344      	adds	r3, #68	; 0x44
    665a:	4299      	cmp	r1, r3
    665c:	d002      	beq.n	6664 <__sflush_r+0x94>
    665e:	0028      	movs	r0, r5
    6660:	f7fd fb48 	bl	3cf4 <__wrap__free_r>
    6664:	2000      	movs	r0, #0
    6666:	6360      	str	r0, [r4, #52]	; 0x34
    6668:	e7bf      	b.n	65ea <__sflush_r+0x1a>
    666a:	2301      	movs	r3, #1
    666c:	6a21      	ldr	r1, [r4, #32]
    666e:	0028      	movs	r0, r5
    6670:	47b8      	blx	r7
    6672:	1c43      	adds	r3, r0, #1
    6674:	d1c5      	bne.n	6602 <__sflush_r+0x32>
    6676:	682b      	ldr	r3, [r5, #0]
    6678:	2b00      	cmp	r3, #0
    667a:	d0c2      	beq.n	6602 <__sflush_r+0x32>
    667c:	2b1d      	cmp	r3, #29
    667e:	d001      	beq.n	6684 <__sflush_r+0xb4>
    6680:	2b16      	cmp	r3, #22
    6682:	d101      	bne.n	6688 <__sflush_r+0xb8>
    6684:	602e      	str	r6, [r5, #0]
    6686:	e7af      	b.n	65e8 <__sflush_r+0x18>
    6688:	2340      	movs	r3, #64	; 0x40
    668a:	89a2      	ldrh	r2, [r4, #12]
    668c:	4313      	orrs	r3, r2
    668e:	81a3      	strh	r3, [r4, #12]
    6690:	e7ab      	b.n	65ea <__sflush_r+0x1a>
    6692:	2340      	movs	r3, #64	; 0x40
    6694:	430b      	orrs	r3, r1
    6696:	2001      	movs	r0, #1
    6698:	81a3      	strh	r3, [r4, #12]
    669a:	4240      	negs	r0, r0
    669c:	e7a5      	b.n	65ea <__sflush_r+0x1a>
    669e:	690f      	ldr	r7, [r1, #16]
    66a0:	2f00      	cmp	r7, #0
    66a2:	d0a1      	beq.n	65e8 <__sflush_r+0x18>
    66a4:	680b      	ldr	r3, [r1, #0]
    66a6:	600f      	str	r7, [r1, #0]
    66a8:	1bdb      	subs	r3, r3, r7
    66aa:	9301      	str	r3, [sp, #4]
    66ac:	2300      	movs	r3, #0
    66ae:	0792      	lsls	r2, r2, #30
    66b0:	d100      	bne.n	66b4 <__sflush_r+0xe4>
    66b2:	694b      	ldr	r3, [r1, #20]
    66b4:	60a3      	str	r3, [r4, #8]
    66b6:	9b01      	ldr	r3, [sp, #4]
    66b8:	2b00      	cmp	r3, #0
    66ba:	dc00      	bgt.n	66be <__sflush_r+0xee>
    66bc:	e794      	b.n	65e8 <__sflush_r+0x18>
    66be:	9b01      	ldr	r3, [sp, #4]
    66c0:	003a      	movs	r2, r7
    66c2:	6a21      	ldr	r1, [r4, #32]
    66c4:	0028      	movs	r0, r5
    66c6:	6aa6      	ldr	r6, [r4, #40]	; 0x28
    66c8:	47b0      	blx	r6
    66ca:	2800      	cmp	r0, #0
    66cc:	dc03      	bgt.n	66d6 <__sflush_r+0x106>
    66ce:	2340      	movs	r3, #64	; 0x40
    66d0:	89a2      	ldrh	r2, [r4, #12]
    66d2:	4313      	orrs	r3, r2
    66d4:	e7df      	b.n	6696 <__sflush_r+0xc6>
    66d6:	9b01      	ldr	r3, [sp, #4]
    66d8:	183f      	adds	r7, r7, r0
    66da:	1a1b      	subs	r3, r3, r0
    66dc:	9301      	str	r3, [sp, #4]
    66de:	e7ea      	b.n	66b6 <__sflush_r+0xe6>
    66e0:	20400001 	.word	0x20400001

000066e4 <_fflush_r>:
    66e4:	690b      	ldr	r3, [r1, #16]
    66e6:	b570      	push	{r4, r5, r6, lr}
    66e8:	0005      	movs	r5, r0
    66ea:	000c      	movs	r4, r1
    66ec:	2b00      	cmp	r3, #0
    66ee:	d101      	bne.n	66f4 <_fflush_r+0x10>
    66f0:	2000      	movs	r0, #0
    66f2:	bd70      	pop	{r4, r5, r6, pc}
    66f4:	2800      	cmp	r0, #0
    66f6:	d004      	beq.n	6702 <_fflush_r+0x1e>
    66f8:	6983      	ldr	r3, [r0, #24]
    66fa:	2b00      	cmp	r3, #0
    66fc:	d101      	bne.n	6702 <_fflush_r+0x1e>
    66fe:	f000 f873 	bl	67e8 <__sinit>
    6702:	4b0b      	ldr	r3, [pc, #44]	; (6730 <_fflush_r+0x4c>)
    6704:	429c      	cmp	r4, r3
    6706:	d109      	bne.n	671c <_fflush_r+0x38>
    6708:	686c      	ldr	r4, [r5, #4]
    670a:	220c      	movs	r2, #12
    670c:	5ea3      	ldrsh	r3, [r4, r2]
    670e:	2b00      	cmp	r3, #0
    6710:	d0ee      	beq.n	66f0 <_fflush_r+0xc>
    6712:	0021      	movs	r1, r4
    6714:	0028      	movs	r0, r5
    6716:	f7ff ff5b 	bl	65d0 <__sflush_r>
    671a:	e7ea      	b.n	66f2 <_fflush_r+0xe>
    671c:	4b05      	ldr	r3, [pc, #20]	; (6734 <_fflush_r+0x50>)
    671e:	429c      	cmp	r4, r3
    6720:	d101      	bne.n	6726 <_fflush_r+0x42>
    6722:	68ac      	ldr	r4, [r5, #8]
    6724:	e7f1      	b.n	670a <_fflush_r+0x26>
    6726:	4b04      	ldr	r3, [pc, #16]	; (6738 <_fflush_r+0x54>)
    6728:	429c      	cmp	r4, r3
    672a:	d1ee      	bne.n	670a <_fflush_r+0x26>
    672c:	68ec      	ldr	r4, [r5, #12]
    672e:	e7ec      	b.n	670a <_fflush_r+0x26>
    6730:	00007ad4 	.word	0x00007ad4
    6734:	00007af4 	.word	0x00007af4
    6738:	00007ab4 	.word	0x00007ab4

0000673c <fflush>:
    673c:	b510      	push	{r4, lr}
    673e:	1e01      	subs	r1, r0, #0
    6740:	d105      	bne.n	674e <fflush+0x12>
    6742:	4b05      	ldr	r3, [pc, #20]	; (6758 <fflush+0x1c>)
    6744:	4905      	ldr	r1, [pc, #20]	; (675c <fflush+0x20>)
    6746:	6818      	ldr	r0, [r3, #0]
    6748:	f000 f8c2 	bl	68d0 <_fwalk_reent>
    674c:	bd10      	pop	{r4, pc}
    674e:	4b04      	ldr	r3, [pc, #16]	; (6760 <fflush+0x24>)
    6750:	6818      	ldr	r0, [r3, #0]
    6752:	f7ff ffc7 	bl	66e4 <_fflush_r>
    6756:	e7f9      	b.n	674c <fflush+0x10>
    6758:	00007b14 	.word	0x00007b14
    675c:	000066e5 	.word	0x000066e5
    6760:	1ffff0e8 	.word	0x1ffff0e8

00006764 <_cleanup_r>:
    6764:	b510      	push	{r4, lr}
    6766:	4902      	ldr	r1, [pc, #8]	; (6770 <_cleanup_r+0xc>)
    6768:	f000 f8b2 	bl	68d0 <_fwalk_reent>
    676c:	bd10      	pop	{r4, pc}
    676e:	46c0      	nop			; (mov r8, r8)
    6770:	000066e5 	.word	0x000066e5

00006774 <std.isra.0>:
    6774:	2300      	movs	r3, #0
    6776:	b510      	push	{r4, lr}
    6778:	0004      	movs	r4, r0
    677a:	6003      	str	r3, [r0, #0]
    677c:	6043      	str	r3, [r0, #4]
    677e:	6083      	str	r3, [r0, #8]
    6780:	8181      	strh	r1, [r0, #12]
    6782:	6643      	str	r3, [r0, #100]	; 0x64
    6784:	81c2      	strh	r2, [r0, #14]
    6786:	6103      	str	r3, [r0, #16]
    6788:	6143      	str	r3, [r0, #20]
    678a:	6183      	str	r3, [r0, #24]
    678c:	0019      	movs	r1, r3
    678e:	2208      	movs	r2, #8
    6790:	305c      	adds	r0, #92	; 0x5c
    6792:	f000 f91d 	bl	69d0 <memset>
    6796:	4b05      	ldr	r3, [pc, #20]	; (67ac <std.isra.0+0x38>)
    6798:	6224      	str	r4, [r4, #32]
    679a:	6263      	str	r3, [r4, #36]	; 0x24
    679c:	4b04      	ldr	r3, [pc, #16]	; (67b0 <std.isra.0+0x3c>)
    679e:	62a3      	str	r3, [r4, #40]	; 0x28
    67a0:	4b04      	ldr	r3, [pc, #16]	; (67b4 <std.isra.0+0x40>)
    67a2:	62e3      	str	r3, [r4, #44]	; 0x2c
    67a4:	4b04      	ldr	r3, [pc, #16]	; (67b8 <std.isra.0+0x44>)
    67a6:	6323      	str	r3, [r4, #48]	; 0x30
    67a8:	bd10      	pop	{r4, pc}
    67aa:	46c0      	nop			; (mov r8, r8)
    67ac:	00006ec5 	.word	0x00006ec5
    67b0:	00006eed 	.word	0x00006eed
    67b4:	00006f25 	.word	0x00006f25
    67b8:	00006f51 	.word	0x00006f51

000067bc <__sfmoreglue>:
    67bc:	b570      	push	{r4, r5, r6, lr}
    67be:	2568      	movs	r5, #104	; 0x68
    67c0:	1e4a      	subs	r2, r1, #1
    67c2:	4355      	muls	r5, r2
    67c4:	000e      	movs	r6, r1
    67c6:	0029      	movs	r1, r5
    67c8:	3174      	adds	r1, #116	; 0x74
    67ca:	f7fd fa8b 	bl	3ce4 <__wrap__malloc_r>
    67ce:	1e04      	subs	r4, r0, #0
    67d0:	d008      	beq.n	67e4 <__sfmoreglue+0x28>
    67d2:	2100      	movs	r1, #0
    67d4:	002a      	movs	r2, r5
    67d6:	6001      	str	r1, [r0, #0]
    67d8:	6046      	str	r6, [r0, #4]
    67da:	300c      	adds	r0, #12
    67dc:	60a0      	str	r0, [r4, #8]
    67de:	3268      	adds	r2, #104	; 0x68
    67e0:	f000 f8f6 	bl	69d0 <memset>
    67e4:	0020      	movs	r0, r4
    67e6:	bd70      	pop	{r4, r5, r6, pc}

000067e8 <__sinit>:
    67e8:	6983      	ldr	r3, [r0, #24]
    67ea:	b513      	push	{r0, r1, r4, lr}
    67ec:	0004      	movs	r4, r0
    67ee:	2b00      	cmp	r3, #0
    67f0:	d128      	bne.n	6844 <__sinit+0x5c>
    67f2:	6483      	str	r3, [r0, #72]	; 0x48
    67f4:	64c3      	str	r3, [r0, #76]	; 0x4c
    67f6:	6503      	str	r3, [r0, #80]	; 0x50
    67f8:	4b13      	ldr	r3, [pc, #76]	; (6848 <__sinit+0x60>)
    67fa:	4a14      	ldr	r2, [pc, #80]	; (684c <__sinit+0x64>)
    67fc:	681b      	ldr	r3, [r3, #0]
    67fe:	6282      	str	r2, [r0, #40]	; 0x28
    6800:	9301      	str	r3, [sp, #4]
    6802:	4298      	cmp	r0, r3
    6804:	d101      	bne.n	680a <__sinit+0x22>
    6806:	2301      	movs	r3, #1
    6808:	6183      	str	r3, [r0, #24]
    680a:	0020      	movs	r0, r4
    680c:	f000 f820 	bl	6850 <__sfp>
    6810:	6060      	str	r0, [r4, #4]
    6812:	0020      	movs	r0, r4
    6814:	f000 f81c 	bl	6850 <__sfp>
    6818:	60a0      	str	r0, [r4, #8]
    681a:	0020      	movs	r0, r4
    681c:	f000 f818 	bl	6850 <__sfp>
    6820:	2200      	movs	r2, #0
    6822:	60e0      	str	r0, [r4, #12]
    6824:	2104      	movs	r1, #4
    6826:	6860      	ldr	r0, [r4, #4]
    6828:	f7ff ffa4 	bl	6774 <std.isra.0>
    682c:	2201      	movs	r2, #1
    682e:	2109      	movs	r1, #9
    6830:	68a0      	ldr	r0, [r4, #8]
    6832:	f7ff ff9f 	bl	6774 <std.isra.0>
    6836:	2202      	movs	r2, #2
    6838:	2112      	movs	r1, #18
    683a:	68e0      	ldr	r0, [r4, #12]
    683c:	f7ff ff9a 	bl	6774 <std.isra.0>
    6840:	2301      	movs	r3, #1
    6842:	61a3      	str	r3, [r4, #24]
    6844:	bd13      	pop	{r0, r1, r4, pc}
    6846:	46c0      	nop			; (mov r8, r8)
    6848:	00007b14 	.word	0x00007b14
    684c:	00006765 	.word	0x00006765

00006850 <__sfp>:
    6850:	b5f8      	push	{r3, r4, r5, r6, r7, lr}
    6852:	4b1e      	ldr	r3, [pc, #120]	; (68cc <__sfp+0x7c>)
    6854:	0007      	movs	r7, r0
    6856:	681e      	ldr	r6, [r3, #0]
    6858:	69b3      	ldr	r3, [r6, #24]
    685a:	2b00      	cmp	r3, #0
    685c:	d102      	bne.n	6864 <__sfp+0x14>
    685e:	0030      	movs	r0, r6
    6860:	f7ff ffc2 	bl	67e8 <__sinit>
    6864:	3648      	adds	r6, #72	; 0x48
    6866:	68b4      	ldr	r4, [r6, #8]
    6868:	6873      	ldr	r3, [r6, #4]
    686a:	3b01      	subs	r3, #1
    686c:	d504      	bpl.n	6878 <__sfp+0x28>
    686e:	6833      	ldr	r3, [r6, #0]
    6870:	2b00      	cmp	r3, #0
    6872:	d007      	beq.n	6884 <__sfp+0x34>
    6874:	6836      	ldr	r6, [r6, #0]
    6876:	e7f6      	b.n	6866 <__sfp+0x16>
    6878:	220c      	movs	r2, #12
    687a:	5ea5      	ldrsh	r5, [r4, r2]
    687c:	2d00      	cmp	r5, #0
    687e:	d00d      	beq.n	689c <__sfp+0x4c>
    6880:	3468      	adds	r4, #104	; 0x68
    6882:	e7f2      	b.n	686a <__sfp+0x1a>
    6884:	2104      	movs	r1, #4
    6886:	0038      	movs	r0, r7
    6888:	f7ff ff98 	bl	67bc <__sfmoreglue>
    688c:	6030      	str	r0, [r6, #0]
    688e:	2800      	cmp	r0, #0
    6890:	d1f0      	bne.n	6874 <__sfp+0x24>
    6892:	230c      	movs	r3, #12
    6894:	0004      	movs	r4, r0
    6896:	603b      	str	r3, [r7, #0]
    6898:	0020      	movs	r0, r4
    689a:	bdf8      	pop	{r3, r4, r5, r6, r7, pc}
    689c:	2301      	movs	r3, #1
    689e:	0020      	movs	r0, r4
    68a0:	425b      	negs	r3, r3
    68a2:	81e3      	strh	r3, [r4, #14]
    68a4:	3302      	adds	r3, #2
    68a6:	81a3      	strh	r3, [r4, #12]
    68a8:	6665      	str	r5, [r4, #100]	; 0x64
    68aa:	6025      	str	r5, [r4, #0]
    68ac:	60a5      	str	r5, [r4, #8]
    68ae:	6065      	str	r5, [r4, #4]
    68b0:	6125      	str	r5, [r4, #16]
    68b2:	6165      	str	r5, [r4, #20]
    68b4:	61a5      	str	r5, [r4, #24]
    68b6:	2208      	movs	r2, #8
    68b8:	0029      	movs	r1, r5
    68ba:	305c      	adds	r0, #92	; 0x5c
    68bc:	f000 f888 	bl	69d0 <memset>
    68c0:	6365      	str	r5, [r4, #52]	; 0x34
    68c2:	63a5      	str	r5, [r4, #56]	; 0x38
    68c4:	64a5      	str	r5, [r4, #72]	; 0x48
    68c6:	64e5      	str	r5, [r4, #76]	; 0x4c
    68c8:	e7e6      	b.n	6898 <__sfp+0x48>
    68ca:	46c0      	nop			; (mov r8, r8)
    68cc:	00007b14 	.word	0x00007b14

000068d0 <_fwalk_reent>:
    68d0:	b5f7      	push	{r0, r1, r2, r4, r5, r6, r7, lr}
    68d2:	0004      	movs	r4, r0
    68d4:	0007      	movs	r7, r0
    68d6:	2600      	movs	r6, #0
    68d8:	9101      	str	r1, [sp, #4]
    68da:	3448      	adds	r4, #72	; 0x48
    68dc:	2c00      	cmp	r4, #0
    68de:	d101      	bne.n	68e4 <_fwalk_reent+0x14>
    68e0:	0030      	movs	r0, r6
    68e2:	bdfe      	pop	{r1, r2, r3, r4, r5, r6, r7, pc}
    68e4:	6863      	ldr	r3, [r4, #4]
    68e6:	68a5      	ldr	r5, [r4, #8]
    68e8:	9300      	str	r3, [sp, #0]
    68ea:	9b00      	ldr	r3, [sp, #0]
    68ec:	3b01      	subs	r3, #1
    68ee:	9300      	str	r3, [sp, #0]
    68f0:	d501      	bpl.n	68f6 <_fwalk_reent+0x26>
    68f2:	6824      	ldr	r4, [r4, #0]
    68f4:	e7f2      	b.n	68dc <_fwalk_reent+0xc>
    68f6:	89ab      	ldrh	r3, [r5, #12]
    68f8:	2b01      	cmp	r3, #1
    68fa:	d908      	bls.n	690e <_fwalk_reent+0x3e>
    68fc:	220e      	movs	r2, #14
    68fe:	5eab      	ldrsh	r3, [r5, r2]
    6900:	3301      	adds	r3, #1
    6902:	d004      	beq.n	690e <_fwalk_reent+0x3e>
    6904:	0029      	movs	r1, r5
    6906:	0038      	movs	r0, r7
    6908:	9b01      	ldr	r3, [sp, #4]
    690a:	4798      	blx	r3
    690c:	4306      	orrs	r6, r0
    690e:	3568      	adds	r5, #104	; 0x68
    6910:	e7eb      	b.n	68ea <_fwalk_reent+0x1a>
	...

00006914 <__libc_init_array>:
    6914:	b570      	push	{r4, r5, r6, lr}
    6916:	2600      	movs	r6, #0
    6918:	4d0c      	ldr	r5, [pc, #48]	; (694c <__libc_init_array+0x38>)
    691a:	4c0d      	ldr	r4, [pc, #52]	; (6950 <__libc_init_array+0x3c>)
    691c:	1b64      	subs	r4, r4, r5
    691e:	10a4      	asrs	r4, r4, #2
    6920:	42a6      	cmp	r6, r4
    6922:	d109      	bne.n	6938 <__libc_init_array+0x24>
    6924:	2600      	movs	r6, #0
    6926:	f000 fd01 	bl	732c <_init>
    692a:	4d0a      	ldr	r5, [pc, #40]	; (6954 <__libc_init_array+0x40>)
    692c:	4c0a      	ldr	r4, [pc, #40]	; (6958 <__libc_init_array+0x44>)
    692e:	1b64      	subs	r4, r4, r5
    6930:	10a4      	asrs	r4, r4, #2
    6932:	42a6      	cmp	r6, r4
    6934:	d105      	bne.n	6942 <__libc_init_array+0x2e>
    6936:	bd70      	pop	{r4, r5, r6, pc}
    6938:	00b3      	lsls	r3, r6, #2
    693a:	58eb      	ldr	r3, [r5, r3]
    693c:	4798      	blx	r3
    693e:	3601      	adds	r6, #1
    6940:	e7ee      	b.n	6920 <__libc_init_array+0xc>
    6942:	00b3      	lsls	r3, r6, #2
    6944:	58eb      	ldr	r3, [r5, r3]
    6946:	4798      	blx	r3
    6948:	3601      	adds	r6, #1
    694a:	e7f2      	b.n	6932 <__libc_init_array+0x1e>
    694c:	1ffff14c 	.word	0x1ffff14c
    6950:	1ffff14c 	.word	0x1ffff14c
    6954:	1ffff14c 	.word	0x1ffff14c
    6958:	1ffff154 	.word	0x1ffff154

0000695c <malloc>:
    695c:	b510      	push	{r4, lr}
    695e:	4b03      	ldr	r3, [pc, #12]	; (696c <malloc+0x10>)
    6960:	0001      	movs	r1, r0
    6962:	6818      	ldr	r0, [r3, #0]
    6964:	f7fd f9be 	bl	3ce4 <__wrap__malloc_r>
    6968:	bd10      	pop	{r4, pc}
    696a:	46c0      	nop			; (mov r8, r8)
    696c:	1ffff0e8 	.word	0x1ffff0e8

00006970 <free>:
    6970:	b510      	push	{r4, lr}
    6972:	4b03      	ldr	r3, [pc, #12]	; (6980 <free+0x10>)
    6974:	0001      	movs	r1, r0
    6976:	6818      	ldr	r0, [r3, #0]
    6978:	f7fd f9bc 	bl	3cf4 <__wrap__free_r>
    697c:	bd10      	pop	{r4, pc}
    697e:	46c0      	nop			; (mov r8, r8)
    6980:	1ffff0e8 	.word	0x1ffff0e8

00006984 <memchr>:
    6984:	b2c9      	uxtb	r1, r1
    6986:	1882      	adds	r2, r0, r2
    6988:	4290      	cmp	r0, r2
    698a:	d101      	bne.n	6990 <memchr+0xc>
    698c:	2000      	movs	r0, #0
    698e:	4770      	bx	lr
    6990:	7803      	ldrb	r3, [r0, #0]
    6992:	428b      	cmp	r3, r1
    6994:	d0fb      	beq.n	698e <memchr+0xa>
    6996:	3001      	adds	r0, #1
    6998:	e7f6      	b.n	6988 <memchr+0x4>

0000699a <memcpy>:
    699a:	2300      	movs	r3, #0
    699c:	b510      	push	{r4, lr}
    699e:	429a      	cmp	r2, r3
    69a0:	d100      	bne.n	69a4 <memcpy+0xa>
    69a2:	bd10      	pop	{r4, pc}
    69a4:	5ccc      	ldrb	r4, [r1, r3]
    69a6:	54c4      	strb	r4, [r0, r3]
    69a8:	3301      	adds	r3, #1
    69aa:	e7f8      	b.n	699e <memcpy+0x4>

000069ac <memmove>:
    69ac:	b510      	push	{r4, lr}
    69ae:	4288      	cmp	r0, r1
    69b0:	d902      	bls.n	69b8 <memmove+0xc>
    69b2:	188b      	adds	r3, r1, r2
    69b4:	4298      	cmp	r0, r3
    69b6:	d308      	bcc.n	69ca <memmove+0x1e>
    69b8:	2300      	movs	r3, #0
    69ba:	429a      	cmp	r2, r3
    69bc:	d007      	beq.n	69ce <memmove+0x22>
    69be:	5ccc      	ldrb	r4, [r1, r3]
    69c0:	54c4      	strb	r4, [r0, r3]
    69c2:	3301      	adds	r3, #1
    69c4:	e7f9      	b.n	69ba <memmove+0xe>
    69c6:	5c8b      	ldrb	r3, [r1, r2]
    69c8:	5483      	strb	r3, [r0, r2]
    69ca:	3a01      	subs	r2, #1
    69cc:	d2fb      	bcs.n	69c6 <memmove+0x1a>
    69ce:	bd10      	pop	{r4, pc}

000069d0 <memset>:
    69d0:	0003      	movs	r3, r0
    69d2:	1882      	adds	r2, r0, r2
    69d4:	4293      	cmp	r3, r2
    69d6:	d100      	bne.n	69da <memset+0xa>
    69d8:	4770      	bx	lr
    69da:	7019      	strb	r1, [r3, #0]
    69dc:	3301      	adds	r3, #1
    69de:	e7f9      	b.n	69d4 <memset+0x4>

000069e0 <_free_r>:
    69e0:	b570      	push	{r4, r5, r6, lr}
    69e2:	0005      	movs	r5, r0
    69e4:	2900      	cmp	r1, #0
    69e6:	d010      	beq.n	6a0a <_free_r+0x2a>
    69e8:	1f0c      	subs	r4, r1, #4
    69ea:	6823      	ldr	r3, [r4, #0]
    69ec:	2b00      	cmp	r3, #0
    69ee:	da00      	bge.n	69f2 <_free_r+0x12>
    69f0:	18e4      	adds	r4, r4, r3
    69f2:	0028      	movs	r0, r5
    69f4:	f7fd faad 	bl	3f52 <__malloc_lock>
    69f8:	4a1d      	ldr	r2, [pc, #116]	; (6a70 <_free_r+0x90>)
    69fa:	6813      	ldr	r3, [r2, #0]
    69fc:	2b00      	cmp	r3, #0
    69fe:	d105      	bne.n	6a0c <_free_r+0x2c>
    6a00:	6063      	str	r3, [r4, #4]
    6a02:	6014      	str	r4, [r2, #0]
    6a04:	0028      	movs	r0, r5
    6a06:	f7fd faa8 	bl	3f5a <__malloc_unlock>
    6a0a:	bd70      	pop	{r4, r5, r6, pc}
    6a0c:	42a3      	cmp	r3, r4
    6a0e:	d909      	bls.n	6a24 <_free_r+0x44>
    6a10:	6821      	ldr	r1, [r4, #0]
    6a12:	1860      	adds	r0, r4, r1
    6a14:	4283      	cmp	r3, r0
    6a16:	d1f3      	bne.n	6a00 <_free_r+0x20>
    6a18:	6818      	ldr	r0, [r3, #0]
    6a1a:	685b      	ldr	r3, [r3, #4]
    6a1c:	1841      	adds	r1, r0, r1
    6a1e:	6021      	str	r1, [r4, #0]
    6a20:	e7ee      	b.n	6a00 <_free_r+0x20>
    6a22:	0013      	movs	r3, r2
    6a24:	685a      	ldr	r2, [r3, #4]
    6a26:	2a00      	cmp	r2, #0
    6a28:	d001      	beq.n	6a2e <_free_r+0x4e>
    6a2a:	42a2      	cmp	r2, r4
    6a2c:	d9f9      	bls.n	6a22 <_free_r+0x42>
    6a2e:	6819      	ldr	r1, [r3, #0]
    6a30:	1858      	adds	r0, r3, r1
    6a32:	42a0      	cmp	r0, r4
    6a34:	d10b      	bne.n	6a4e <_free_r+0x6e>
    6a36:	6820      	ldr	r0, [r4, #0]
    6a38:	1809      	adds	r1, r1, r0
    6a3a:	1858      	adds	r0, r3, r1
    6a3c:	6019      	str	r1, [r3, #0]
    6a3e:	4282      	cmp	r2, r0
    6a40:	d1e0      	bne.n	6a04 <_free_r+0x24>
    6a42:	6810      	ldr	r0, [r2, #0]
    6a44:	6852      	ldr	r2, [r2, #4]
    6a46:	1841      	adds	r1, r0, r1
    6a48:	6019      	str	r1, [r3, #0]
    6a4a:	605a      	str	r2, [r3, #4]
    6a4c:	e7da      	b.n	6a04 <_free_r+0x24>
    6a4e:	42a0      	cmp	r0, r4
    6a50:	d902      	bls.n	6a58 <_free_r+0x78>
    6a52:	230c      	movs	r3, #12
    6a54:	602b      	str	r3, [r5, #0]
    6a56:	e7d5      	b.n	6a04 <_free_r+0x24>
    6a58:	6821      	ldr	r1, [r4, #0]
    6a5a:	1860      	adds	r0, r4, r1
    6a5c:	4282      	cmp	r2, r0
    6a5e:	d103      	bne.n	6a68 <_free_r+0x88>
    6a60:	6810      	ldr	r0, [r2, #0]
    6a62:	6852      	ldr	r2, [r2, #4]
    6a64:	1841      	adds	r1, r0, r1
    6a66:	6021      	str	r1, [r4, #0]
    6a68:	6062      	str	r2, [r4, #4]
    6a6a:	605c      	str	r4, [r3, #4]
    6a6c:	e7ca      	b.n	6a04 <_free_r+0x24>
    6a6e:	46c0      	nop			; (mov r8, r8)
    6a70:	2000095c 	.word	0x2000095c

00006a74 <_malloc_r>:
    6a74:	2303      	movs	r3, #3
    6a76:	b570      	push	{r4, r5, r6, lr}
    6a78:	1ccd      	adds	r5, r1, #3
    6a7a:	439d      	bics	r5, r3
    6a7c:	3508      	adds	r5, #8
    6a7e:	0006      	movs	r6, r0
    6a80:	2d0c      	cmp	r5, #12
    6a82:	d21e      	bcs.n	6ac2 <_malloc_r+0x4e>
    6a84:	250c      	movs	r5, #12
    6a86:	42a9      	cmp	r1, r5
    6a88:	d81d      	bhi.n	6ac6 <_malloc_r+0x52>
    6a8a:	0030      	movs	r0, r6
    6a8c:	f7fd fa61 	bl	3f52 <__malloc_lock>
    6a90:	4a25      	ldr	r2, [pc, #148]	; (6b28 <_malloc_r+0xb4>)
    6a92:	6814      	ldr	r4, [r2, #0]
    6a94:	0021      	movs	r1, r4
    6a96:	2900      	cmp	r1, #0
    6a98:	d119      	bne.n	6ace <_malloc_r+0x5a>
    6a9a:	4c24      	ldr	r4, [pc, #144]	; (6b2c <_malloc_r+0xb8>)
    6a9c:	6823      	ldr	r3, [r4, #0]
    6a9e:	2b00      	cmp	r3, #0
    6aa0:	d103      	bne.n	6aaa <_malloc_r+0x36>
    6aa2:	0030      	movs	r0, r6
    6aa4:	f000 f9fc 	bl	6ea0 <_sbrk_r>
    6aa8:	6020      	str	r0, [r4, #0]
    6aaa:	0029      	movs	r1, r5
    6aac:	0030      	movs	r0, r6
    6aae:	f000 f9f7 	bl	6ea0 <_sbrk_r>
    6ab2:	1c43      	adds	r3, r0, #1
    6ab4:	d12c      	bne.n	6b10 <_malloc_r+0x9c>
    6ab6:	230c      	movs	r3, #12
    6ab8:	0030      	movs	r0, r6
    6aba:	6033      	str	r3, [r6, #0]
    6abc:	f7fd fa4d 	bl	3f5a <__malloc_unlock>
    6ac0:	e003      	b.n	6aca <_malloc_r+0x56>
    6ac2:	2d00      	cmp	r5, #0
    6ac4:	dadf      	bge.n	6a86 <_malloc_r+0x12>
    6ac6:	230c      	movs	r3, #12
    6ac8:	6033      	str	r3, [r6, #0]
    6aca:	2000      	movs	r0, #0
    6acc:	bd70      	pop	{r4, r5, r6, pc}
    6ace:	680b      	ldr	r3, [r1, #0]
    6ad0:	1b5b      	subs	r3, r3, r5
    6ad2:	d41a      	bmi.n	6b0a <_malloc_r+0x96>
    6ad4:	2b0b      	cmp	r3, #11
    6ad6:	d903      	bls.n	6ae0 <_malloc_r+0x6c>
    6ad8:	600b      	str	r3, [r1, #0]
    6ada:	18cc      	adds	r4, r1, r3
    6adc:	6025      	str	r5, [r4, #0]
    6ade:	e003      	b.n	6ae8 <_malloc_r+0x74>
    6ae0:	428c      	cmp	r4, r1
    6ae2:	d10e      	bne.n	6b02 <_malloc_r+0x8e>
    6ae4:	6863      	ldr	r3, [r4, #4]
    6ae6:	6013      	str	r3, [r2, #0]
    6ae8:	0030      	movs	r0, r6
    6aea:	f7fd fa36 	bl	3f5a <__malloc_unlock>
    6aee:	0020      	movs	r0, r4
    6af0:	2207      	movs	r2, #7
    6af2:	300b      	adds	r0, #11
    6af4:	1d23      	adds	r3, r4, #4
    6af6:	4390      	bics	r0, r2
    6af8:	1ac3      	subs	r3, r0, r3
    6afa:	d0e7      	beq.n	6acc <_malloc_r+0x58>
    6afc:	425a      	negs	r2, r3
    6afe:	50e2      	str	r2, [r4, r3]
    6b00:	e7e4      	b.n	6acc <_malloc_r+0x58>
    6b02:	684b      	ldr	r3, [r1, #4]
    6b04:	6063      	str	r3, [r4, #4]
    6b06:	000c      	movs	r4, r1
    6b08:	e7ee      	b.n	6ae8 <_malloc_r+0x74>
    6b0a:	000c      	movs	r4, r1
    6b0c:	6849      	ldr	r1, [r1, #4]
    6b0e:	e7c2      	b.n	6a96 <_malloc_r+0x22>
    6b10:	2303      	movs	r3, #3
    6b12:	1cc4      	adds	r4, r0, #3
    6b14:	439c      	bics	r4, r3
    6b16:	42a0      	cmp	r0, r4
    6b18:	d0e0      	beq.n	6adc <_malloc_r+0x68>
    6b1a:	1a21      	subs	r1, r4, r0
    6b1c:	0030      	movs	r0, r6
    6b1e:	f000 f9bf 	bl	6ea0 <_sbrk_r>
    6b22:	1c43      	adds	r3, r0, #1
    6b24:	d1da      	bne.n	6adc <_malloc_r+0x68>
    6b26:	e7c6      	b.n	6ab6 <_malloc_r+0x42>
    6b28:	2000095c 	.word	0x2000095c
    6b2c:	20000960 	.word	0x20000960

00006b30 <_realloc_r>:
    6b30:	b5f8      	push	{r3, r4, r5, r6, r7, lr}
    6b32:	0007      	movs	r7, r0
    6b34:	000d      	movs	r5, r1
    6b36:	0016      	movs	r6, r2
    6b38:	2900      	cmp	r1, #0
    6b3a:	d105      	bne.n	6b48 <_realloc_r+0x18>
    6b3c:	0011      	movs	r1, r2
    6b3e:	f7fd f8d1 	bl	3ce4 <__wrap__malloc_r>
    6b42:	0004      	movs	r4, r0
    6b44:	0020      	movs	r0, r4
    6b46:	bdf8      	pop	{r3, r4, r5, r6, r7, pc}
    6b48:	2a00      	cmp	r2, #0
    6b4a:	d103      	bne.n	6b54 <_realloc_r+0x24>
    6b4c:	f7fd f8d2 	bl	3cf4 <__wrap__free_r>
    6b50:	0034      	movs	r4, r6
    6b52:	e7f7      	b.n	6b44 <_realloc_r+0x14>
    6b54:	f000 fa68 	bl	7028 <_malloc_usable_size_r>
    6b58:	002c      	movs	r4, r5
    6b5a:	4286      	cmp	r6, r0
    6b5c:	d9f2      	bls.n	6b44 <_realloc_r+0x14>
    6b5e:	0031      	movs	r1, r6
    6b60:	0038      	movs	r0, r7
    6b62:	f7fd f8bf 	bl	3ce4 <__wrap__malloc_r>
    6b66:	1e04      	subs	r4, r0, #0
    6b68:	d0ec      	beq.n	6b44 <_realloc_r+0x14>
    6b6a:	0029      	movs	r1, r5
    6b6c:	0032      	movs	r2, r6
    6b6e:	f7ff ff14 	bl	699a <memcpy>
    6b72:	0029      	movs	r1, r5
    6b74:	0038      	movs	r0, r7
    6b76:	f7fd f8bd 	bl	3cf4 <__wrap__free_r>
    6b7a:	e7e3      	b.n	6b44 <_realloc_r+0x14>

00006b7c <_printf_common>:
    6b7c:	b5f7      	push	{r0, r1, r2, r4, r5, r6, r7, lr}
    6b7e:	0015      	movs	r5, r2
    6b80:	9301      	str	r3, [sp, #4]
    6b82:	688a      	ldr	r2, [r1, #8]
    6b84:	690b      	ldr	r3, [r1, #16]
    6b86:	9000      	str	r0, [sp, #0]
    6b88:	000c      	movs	r4, r1
    6b8a:	4293      	cmp	r3, r2
    6b8c:	da00      	bge.n	6b90 <_printf_common+0x14>
    6b8e:	0013      	movs	r3, r2
    6b90:	0022      	movs	r2, r4
    6b92:	602b      	str	r3, [r5, #0]
    6b94:	3243      	adds	r2, #67	; 0x43
    6b96:	7812      	ldrb	r2, [r2, #0]
    6b98:	2a00      	cmp	r2, #0
    6b9a:	d001      	beq.n	6ba0 <_printf_common+0x24>
    6b9c:	3301      	adds	r3, #1
    6b9e:	602b      	str	r3, [r5, #0]
    6ba0:	6823      	ldr	r3, [r4, #0]
    6ba2:	069b      	lsls	r3, r3, #26
    6ba4:	d502      	bpl.n	6bac <_printf_common+0x30>
    6ba6:	682b      	ldr	r3, [r5, #0]
    6ba8:	3302      	adds	r3, #2
    6baa:	602b      	str	r3, [r5, #0]
    6bac:	2706      	movs	r7, #6
    6bae:	6823      	ldr	r3, [r4, #0]
    6bb0:	401f      	ands	r7, r3
    6bb2:	d027      	beq.n	6c04 <_printf_common+0x88>
    6bb4:	0023      	movs	r3, r4
    6bb6:	3343      	adds	r3, #67	; 0x43
    6bb8:	781b      	ldrb	r3, [r3, #0]
    6bba:	1e5a      	subs	r2, r3, #1
    6bbc:	4193      	sbcs	r3, r2
    6bbe:	6822      	ldr	r2, [r4, #0]
    6bc0:	0692      	lsls	r2, r2, #26
    6bc2:	d430      	bmi.n	6c26 <_printf_common+0xaa>
    6bc4:	0022      	movs	r2, r4
    6bc6:	9901      	ldr	r1, [sp, #4]
    6bc8:	3243      	adds	r2, #67	; 0x43
    6bca:	9800      	ldr	r0, [sp, #0]
    6bcc:	9e08      	ldr	r6, [sp, #32]
    6bce:	47b0      	blx	r6
    6bd0:	1c43      	adds	r3, r0, #1
    6bd2:	d025      	beq.n	6c20 <_printf_common+0xa4>
    6bd4:	2306      	movs	r3, #6
    6bd6:	6820      	ldr	r0, [r4, #0]
    6bd8:	682a      	ldr	r2, [r5, #0]
    6bda:	68e1      	ldr	r1, [r4, #12]
    6bdc:	4003      	ands	r3, r0
    6bde:	2500      	movs	r5, #0
    6be0:	2b04      	cmp	r3, #4
    6be2:	d103      	bne.n	6bec <_printf_common+0x70>
    6be4:	1a8d      	subs	r5, r1, r2
    6be6:	43eb      	mvns	r3, r5
    6be8:	17db      	asrs	r3, r3, #31
    6bea:	401d      	ands	r5, r3
    6bec:	68a3      	ldr	r3, [r4, #8]
    6bee:	6922      	ldr	r2, [r4, #16]
    6bf0:	4293      	cmp	r3, r2
    6bf2:	dd01      	ble.n	6bf8 <_printf_common+0x7c>
    6bf4:	1a9b      	subs	r3, r3, r2
    6bf6:	18ed      	adds	r5, r5, r3
    6bf8:	2700      	movs	r7, #0
    6bfa:	42bd      	cmp	r5, r7
    6bfc:	d120      	bne.n	6c40 <_printf_common+0xc4>
    6bfe:	2000      	movs	r0, #0
    6c00:	e010      	b.n	6c24 <_printf_common+0xa8>
    6c02:	3701      	adds	r7, #1
    6c04:	68e3      	ldr	r3, [r4, #12]
    6c06:	682a      	ldr	r2, [r5, #0]
    6c08:	1a9b      	subs	r3, r3, r2
    6c0a:	429f      	cmp	r7, r3
    6c0c:	dad2      	bge.n	6bb4 <_printf_common+0x38>
    6c0e:	0022      	movs	r2, r4
    6c10:	2301      	movs	r3, #1
    6c12:	3219      	adds	r2, #25
    6c14:	9901      	ldr	r1, [sp, #4]
    6c16:	9800      	ldr	r0, [sp, #0]
    6c18:	9e08      	ldr	r6, [sp, #32]
    6c1a:	47b0      	blx	r6
    6c1c:	1c43      	adds	r3, r0, #1
    6c1e:	d1f0      	bne.n	6c02 <_printf_common+0x86>
    6c20:	2001      	movs	r0, #1
    6c22:	4240      	negs	r0, r0
    6c24:	bdfe      	pop	{r1, r2, r3, r4, r5, r6, r7, pc}
    6c26:	2030      	movs	r0, #48	; 0x30
    6c28:	18e1      	adds	r1, r4, r3
    6c2a:	3143      	adds	r1, #67	; 0x43
    6c2c:	7008      	strb	r0, [r1, #0]
    6c2e:	0021      	movs	r1, r4
    6c30:	1c5a      	adds	r2, r3, #1
    6c32:	3145      	adds	r1, #69	; 0x45
    6c34:	7809      	ldrb	r1, [r1, #0]
    6c36:	18a2      	adds	r2, r4, r2
    6c38:	3243      	adds	r2, #67	; 0x43
    6c3a:	3302      	adds	r3, #2
    6c3c:	7011      	strb	r1, [r2, #0]
    6c3e:	e7c1      	b.n	6bc4 <_printf_common+0x48>
    6c40:	0022      	movs	r2, r4
    6c42:	2301      	movs	r3, #1
    6c44:	321a      	adds	r2, #26
    6c46:	9901      	ldr	r1, [sp, #4]
    6c48:	9800      	ldr	r0, [sp, #0]
    6c4a:	9e08      	ldr	r6, [sp, #32]
    6c4c:	47b0      	blx	r6
    6c4e:	1c43      	adds	r3, r0, #1
    6c50:	d0e6      	beq.n	6c20 <_printf_common+0xa4>
    6c52:	3701      	adds	r7, #1
    6c54:	e7d1      	b.n	6bfa <_printf_common+0x7e>
	...

00006c58 <_printf_i>:
    6c58:	b5f0      	push	{r4, r5, r6, r7, lr}
    6c5a:	b08b      	sub	sp, #44	; 0x2c
    6c5c:	9206      	str	r2, [sp, #24]
    6c5e:	000a      	movs	r2, r1
    6c60:	3243      	adds	r2, #67	; 0x43
    6c62:	9307      	str	r3, [sp, #28]
    6c64:	9005      	str	r0, [sp, #20]
    6c66:	9204      	str	r2, [sp, #16]
    6c68:	7e0a      	ldrb	r2, [r1, #24]
    6c6a:	000c      	movs	r4, r1
    6c6c:	9b10      	ldr	r3, [sp, #64]	; 0x40
    6c6e:	2a6e      	cmp	r2, #110	; 0x6e
    6c70:	d100      	bne.n	6c74 <_printf_i+0x1c>
    6c72:	e08f      	b.n	6d94 <_printf_i+0x13c>
    6c74:	d817      	bhi.n	6ca6 <_printf_i+0x4e>
    6c76:	2a63      	cmp	r2, #99	; 0x63
    6c78:	d02c      	beq.n	6cd4 <_printf_i+0x7c>
    6c7a:	d808      	bhi.n	6c8e <_printf_i+0x36>
    6c7c:	2a00      	cmp	r2, #0
    6c7e:	d100      	bne.n	6c82 <_printf_i+0x2a>
    6c80:	e099      	b.n	6db6 <_printf_i+0x15e>
    6c82:	2a58      	cmp	r2, #88	; 0x58
    6c84:	d054      	beq.n	6d30 <_printf_i+0xd8>
    6c86:	0026      	movs	r6, r4
    6c88:	3642      	adds	r6, #66	; 0x42
    6c8a:	7032      	strb	r2, [r6, #0]
    6c8c:	e029      	b.n	6ce2 <_printf_i+0x8a>
    6c8e:	2a64      	cmp	r2, #100	; 0x64
    6c90:	d001      	beq.n	6c96 <_printf_i+0x3e>
    6c92:	2a69      	cmp	r2, #105	; 0x69
    6c94:	d1f7      	bne.n	6c86 <_printf_i+0x2e>
    6c96:	6821      	ldr	r1, [r4, #0]
    6c98:	681a      	ldr	r2, [r3, #0]
    6c9a:	0608      	lsls	r0, r1, #24
    6c9c:	d523      	bpl.n	6ce6 <_printf_i+0x8e>
    6c9e:	1d11      	adds	r1, r2, #4
    6ca0:	6019      	str	r1, [r3, #0]
    6ca2:	6815      	ldr	r5, [r2, #0]
    6ca4:	e025      	b.n	6cf2 <_printf_i+0x9a>
    6ca6:	2a73      	cmp	r2, #115	; 0x73
    6ca8:	d100      	bne.n	6cac <_printf_i+0x54>
    6caa:	e088      	b.n	6dbe <_printf_i+0x166>
    6cac:	d808      	bhi.n	6cc0 <_printf_i+0x68>
    6cae:	2a6f      	cmp	r2, #111	; 0x6f
    6cb0:	d029      	beq.n	6d06 <_printf_i+0xae>
    6cb2:	2a70      	cmp	r2, #112	; 0x70
    6cb4:	d1e7      	bne.n	6c86 <_printf_i+0x2e>
    6cb6:	2220      	movs	r2, #32
    6cb8:	6809      	ldr	r1, [r1, #0]
    6cba:	430a      	orrs	r2, r1
    6cbc:	6022      	str	r2, [r4, #0]
    6cbe:	e003      	b.n	6cc8 <_printf_i+0x70>
    6cc0:	2a75      	cmp	r2, #117	; 0x75
    6cc2:	d020      	beq.n	6d06 <_printf_i+0xae>
    6cc4:	2a78      	cmp	r2, #120	; 0x78
    6cc6:	d1de      	bne.n	6c86 <_printf_i+0x2e>
    6cc8:	0022      	movs	r2, r4
    6cca:	2178      	movs	r1, #120	; 0x78
    6ccc:	3245      	adds	r2, #69	; 0x45
    6cce:	7011      	strb	r1, [r2, #0]
    6cd0:	4a6c      	ldr	r2, [pc, #432]	; (6e84 <_printf_i+0x22c>)
    6cd2:	e030      	b.n	6d36 <_printf_i+0xde>
    6cd4:	000e      	movs	r6, r1
    6cd6:	681a      	ldr	r2, [r3, #0]
    6cd8:	3642      	adds	r6, #66	; 0x42
    6cda:	1d11      	adds	r1, r2, #4
    6cdc:	6019      	str	r1, [r3, #0]
    6cde:	6813      	ldr	r3, [r2, #0]
    6ce0:	7033      	strb	r3, [r6, #0]
    6ce2:	2301      	movs	r3, #1
    6ce4:	e079      	b.n	6dda <_printf_i+0x182>
    6ce6:	0649      	lsls	r1, r1, #25
    6ce8:	d5d9      	bpl.n	6c9e <_printf_i+0x46>
    6cea:	1d11      	adds	r1, r2, #4
    6cec:	6019      	str	r1, [r3, #0]
    6cee:	2300      	movs	r3, #0
    6cf0:	5ed5      	ldrsh	r5, [r2, r3]
    6cf2:	2d00      	cmp	r5, #0
    6cf4:	da03      	bge.n	6cfe <_printf_i+0xa6>
    6cf6:	232d      	movs	r3, #45	; 0x2d
    6cf8:	9a04      	ldr	r2, [sp, #16]
    6cfa:	426d      	negs	r5, r5
    6cfc:	7013      	strb	r3, [r2, #0]
    6cfe:	4b62      	ldr	r3, [pc, #392]	; (6e88 <_printf_i+0x230>)
    6d00:	270a      	movs	r7, #10
    6d02:	9303      	str	r3, [sp, #12]
    6d04:	e02f      	b.n	6d66 <_printf_i+0x10e>
    6d06:	6820      	ldr	r0, [r4, #0]
    6d08:	6819      	ldr	r1, [r3, #0]
    6d0a:	0605      	lsls	r5, r0, #24
    6d0c:	d503      	bpl.n	6d16 <_printf_i+0xbe>
    6d0e:	1d08      	adds	r0, r1, #4
    6d10:	6018      	str	r0, [r3, #0]
    6d12:	680d      	ldr	r5, [r1, #0]
    6d14:	e005      	b.n	6d22 <_printf_i+0xca>
    6d16:	0640      	lsls	r0, r0, #25
    6d18:	d5f9      	bpl.n	6d0e <_printf_i+0xb6>
    6d1a:	680d      	ldr	r5, [r1, #0]
    6d1c:	1d08      	adds	r0, r1, #4
    6d1e:	6018      	str	r0, [r3, #0]
    6d20:	b2ad      	uxth	r5, r5
    6d22:	4b59      	ldr	r3, [pc, #356]	; (6e88 <_printf_i+0x230>)
    6d24:	2708      	movs	r7, #8
    6d26:	9303      	str	r3, [sp, #12]
    6d28:	2a6f      	cmp	r2, #111	; 0x6f
    6d2a:	d018      	beq.n	6d5e <_printf_i+0x106>
    6d2c:	270a      	movs	r7, #10
    6d2e:	e016      	b.n	6d5e <_printf_i+0x106>
    6d30:	3145      	adds	r1, #69	; 0x45
    6d32:	700a      	strb	r2, [r1, #0]
    6d34:	4a54      	ldr	r2, [pc, #336]	; (6e88 <_printf_i+0x230>)
    6d36:	9203      	str	r2, [sp, #12]
    6d38:	681a      	ldr	r2, [r3, #0]
    6d3a:	6821      	ldr	r1, [r4, #0]
    6d3c:	1d10      	adds	r0, r2, #4
    6d3e:	6018      	str	r0, [r3, #0]
    6d40:	6815      	ldr	r5, [r2, #0]
    6d42:	0608      	lsls	r0, r1, #24
    6d44:	d522      	bpl.n	6d8c <_printf_i+0x134>
    6d46:	07cb      	lsls	r3, r1, #31
    6d48:	d502      	bpl.n	6d50 <_printf_i+0xf8>
    6d4a:	2320      	movs	r3, #32
    6d4c:	4319      	orrs	r1, r3
    6d4e:	6021      	str	r1, [r4, #0]
    6d50:	2710      	movs	r7, #16
    6d52:	2d00      	cmp	r5, #0
    6d54:	d103      	bne.n	6d5e <_printf_i+0x106>
    6d56:	2320      	movs	r3, #32
    6d58:	6822      	ldr	r2, [r4, #0]
    6d5a:	439a      	bics	r2, r3
    6d5c:	6022      	str	r2, [r4, #0]
    6d5e:	0023      	movs	r3, r4
    6d60:	2200      	movs	r2, #0
    6d62:	3343      	adds	r3, #67	; 0x43
    6d64:	701a      	strb	r2, [r3, #0]
    6d66:	6863      	ldr	r3, [r4, #4]
    6d68:	60a3      	str	r3, [r4, #8]
    6d6a:	2b00      	cmp	r3, #0
    6d6c:	db5c      	blt.n	6e28 <_printf_i+0x1d0>
    6d6e:	2204      	movs	r2, #4
    6d70:	6821      	ldr	r1, [r4, #0]
    6d72:	4391      	bics	r1, r2
    6d74:	6021      	str	r1, [r4, #0]
    6d76:	2d00      	cmp	r5, #0
    6d78:	d158      	bne.n	6e2c <_printf_i+0x1d4>
    6d7a:	9e04      	ldr	r6, [sp, #16]
    6d7c:	2b00      	cmp	r3, #0
    6d7e:	d064      	beq.n	6e4a <_printf_i+0x1f2>
    6d80:	0026      	movs	r6, r4
    6d82:	9b03      	ldr	r3, [sp, #12]
    6d84:	3642      	adds	r6, #66	; 0x42
    6d86:	781b      	ldrb	r3, [r3, #0]
    6d88:	7033      	strb	r3, [r6, #0]
    6d8a:	e05e      	b.n	6e4a <_printf_i+0x1f2>
    6d8c:	0648      	lsls	r0, r1, #25
    6d8e:	d5da      	bpl.n	6d46 <_printf_i+0xee>
    6d90:	b2ad      	uxth	r5, r5
    6d92:	e7d8      	b.n	6d46 <_printf_i+0xee>
    6d94:	6809      	ldr	r1, [r1, #0]
    6d96:	681a      	ldr	r2, [r3, #0]
    6d98:	0608      	lsls	r0, r1, #24
    6d9a:	d505      	bpl.n	6da8 <_printf_i+0x150>
    6d9c:	1d11      	adds	r1, r2, #4
    6d9e:	6019      	str	r1, [r3, #0]
    6da0:	6813      	ldr	r3, [r2, #0]
    6da2:	6962      	ldr	r2, [r4, #20]
    6da4:	601a      	str	r2, [r3, #0]
    6da6:	e006      	b.n	6db6 <_printf_i+0x15e>
    6da8:	0649      	lsls	r1, r1, #25
    6daa:	d5f7      	bpl.n	6d9c <_printf_i+0x144>
    6dac:	1d11      	adds	r1, r2, #4
    6dae:	6019      	str	r1, [r3, #0]
    6db0:	6813      	ldr	r3, [r2, #0]
    6db2:	8aa2      	ldrh	r2, [r4, #20]
    6db4:	801a      	strh	r2, [r3, #0]
    6db6:	2300      	movs	r3, #0
    6db8:	9e04      	ldr	r6, [sp, #16]
    6dba:	6123      	str	r3, [r4, #16]
    6dbc:	e054      	b.n	6e68 <_printf_i+0x210>
    6dbe:	681a      	ldr	r2, [r3, #0]
    6dc0:	1d11      	adds	r1, r2, #4
    6dc2:	6019      	str	r1, [r3, #0]
    6dc4:	6816      	ldr	r6, [r2, #0]
    6dc6:	2100      	movs	r1, #0
    6dc8:	6862      	ldr	r2, [r4, #4]
    6dca:	0030      	movs	r0, r6
    6dcc:	f7ff fdda 	bl	6984 <memchr>
    6dd0:	2800      	cmp	r0, #0
    6dd2:	d001      	beq.n	6dd8 <_printf_i+0x180>
    6dd4:	1b80      	subs	r0, r0, r6
    6dd6:	6060      	str	r0, [r4, #4]
    6dd8:	6863      	ldr	r3, [r4, #4]
    6dda:	6123      	str	r3, [r4, #16]
    6ddc:	2300      	movs	r3, #0
    6dde:	9a04      	ldr	r2, [sp, #16]
    6de0:	7013      	strb	r3, [r2, #0]
    6de2:	e041      	b.n	6e68 <_printf_i+0x210>
    6de4:	6923      	ldr	r3, [r4, #16]
    6de6:	0032      	movs	r2, r6
    6de8:	9906      	ldr	r1, [sp, #24]
    6dea:	9805      	ldr	r0, [sp, #20]
    6dec:	9d07      	ldr	r5, [sp, #28]
    6dee:	47a8      	blx	r5
    6df0:	1c43      	adds	r3, r0, #1
    6df2:	d043      	beq.n	6e7c <_printf_i+0x224>
    6df4:	6823      	ldr	r3, [r4, #0]
    6df6:	2500      	movs	r5, #0
    6df8:	079b      	lsls	r3, r3, #30
    6dfa:	d40f      	bmi.n	6e1c <_printf_i+0x1c4>
    6dfc:	9b09      	ldr	r3, [sp, #36]	; 0x24
    6dfe:	68e0      	ldr	r0, [r4, #12]
    6e00:	4298      	cmp	r0, r3
    6e02:	da3d      	bge.n	6e80 <_printf_i+0x228>
    6e04:	0018      	movs	r0, r3
    6e06:	e03b      	b.n	6e80 <_printf_i+0x228>
    6e08:	0022      	movs	r2, r4
    6e0a:	2301      	movs	r3, #1
    6e0c:	3219      	adds	r2, #25
    6e0e:	9906      	ldr	r1, [sp, #24]
    6e10:	9805      	ldr	r0, [sp, #20]
    6e12:	9e07      	ldr	r6, [sp, #28]
    6e14:	47b0      	blx	r6
    6e16:	1c43      	adds	r3, r0, #1
    6e18:	d030      	beq.n	6e7c <_printf_i+0x224>
    6e1a:	3501      	adds	r5, #1
    6e1c:	68e3      	ldr	r3, [r4, #12]
    6e1e:	9a09      	ldr	r2, [sp, #36]	; 0x24
    6e20:	1a9b      	subs	r3, r3, r2
    6e22:	429d      	cmp	r5, r3
    6e24:	dbf0      	blt.n	6e08 <_printf_i+0x1b0>
    6e26:	e7e9      	b.n	6dfc <_printf_i+0x1a4>
    6e28:	2d00      	cmp	r5, #0
    6e2a:	d0a9      	beq.n	6d80 <_printf_i+0x128>
    6e2c:	9e04      	ldr	r6, [sp, #16]
    6e2e:	0028      	movs	r0, r5
    6e30:	0039      	movs	r1, r7
    6e32:	f7fd f9f1 	bl	4218 <__aeabi_uidivmod>
    6e36:	9b03      	ldr	r3, [sp, #12]
    6e38:	3e01      	subs	r6, #1
    6e3a:	5c5b      	ldrb	r3, [r3, r1]
    6e3c:	0028      	movs	r0, r5
    6e3e:	7033      	strb	r3, [r6, #0]
    6e40:	0039      	movs	r1, r7
    6e42:	f7fd f963 	bl	410c <__udivsi3>
    6e46:	1e05      	subs	r5, r0, #0
    6e48:	d1f1      	bne.n	6e2e <_printf_i+0x1d6>
    6e4a:	2f08      	cmp	r7, #8
    6e4c:	d109      	bne.n	6e62 <_printf_i+0x20a>
    6e4e:	6823      	ldr	r3, [r4, #0]
    6e50:	07db      	lsls	r3, r3, #31
    6e52:	d506      	bpl.n	6e62 <_printf_i+0x20a>
    6e54:	6863      	ldr	r3, [r4, #4]
    6e56:	6922      	ldr	r2, [r4, #16]
    6e58:	4293      	cmp	r3, r2
    6e5a:	dc02      	bgt.n	6e62 <_printf_i+0x20a>
    6e5c:	2330      	movs	r3, #48	; 0x30
    6e5e:	3e01      	subs	r6, #1
    6e60:	7033      	strb	r3, [r6, #0]
    6e62:	9b04      	ldr	r3, [sp, #16]
    6e64:	1b9b      	subs	r3, r3, r6
    6e66:	6123      	str	r3, [r4, #16]
    6e68:	9b07      	ldr	r3, [sp, #28]
    6e6a:	aa09      	add	r2, sp, #36	; 0x24
    6e6c:	9300      	str	r3, [sp, #0]
    6e6e:	0021      	movs	r1, r4
    6e70:	9b06      	ldr	r3, [sp, #24]
    6e72:	9805      	ldr	r0, [sp, #20]
    6e74:	f7ff fe82 	bl	6b7c <_printf_common>
    6e78:	1c43      	adds	r3, r0, #1
    6e7a:	d1b3      	bne.n	6de4 <_printf_i+0x18c>
    6e7c:	2001      	movs	r0, #1
    6e7e:	4240      	negs	r0, r0
    6e80:	b00b      	add	sp, #44	; 0x2c
    6e82:	bdf0      	pop	{r4, r5, r6, r7, pc}
    6e84:	00007b29 	.word	0x00007b29
    6e88:	00007b18 	.word	0x00007b18

00006e8c <realloc>:
    6e8c:	b510      	push	{r4, lr}
    6e8e:	4b03      	ldr	r3, [pc, #12]	; (6e9c <realloc+0x10>)
    6e90:	000a      	movs	r2, r1
    6e92:	0001      	movs	r1, r0
    6e94:	6818      	ldr	r0, [r3, #0]
    6e96:	f7fc ff29 	bl	3cec <__wrap__realloc_r>
    6e9a:	bd10      	pop	{r4, pc}
    6e9c:	1ffff0e8 	.word	0x1ffff0e8

00006ea0 <_sbrk_r>:
    6ea0:	2300      	movs	r3, #0
    6ea2:	b570      	push	{r4, r5, r6, lr}
    6ea4:	4c06      	ldr	r4, [pc, #24]	; (6ec0 <_sbrk_r+0x20>)
    6ea6:	0005      	movs	r5, r0
    6ea8:	0008      	movs	r0, r1
    6eaa:	6023      	str	r3, [r4, #0]
    6eac:	f7fd f812 	bl	3ed4 <_sbrk>
    6eb0:	1c43      	adds	r3, r0, #1
    6eb2:	d103      	bne.n	6ebc <_sbrk_r+0x1c>
    6eb4:	6823      	ldr	r3, [r4, #0]
    6eb6:	2b00      	cmp	r3, #0
    6eb8:	d000      	beq.n	6ebc <_sbrk_r+0x1c>
    6eba:	602b      	str	r3, [r5, #0]
    6ebc:	bd70      	pop	{r4, r5, r6, pc}
    6ebe:	46c0      	nop			; (mov r8, r8)
    6ec0:	200011b0 	.word	0x200011b0

00006ec4 <__sread>:
    6ec4:	b570      	push	{r4, r5, r6, lr}
    6ec6:	000c      	movs	r4, r1
    6ec8:	250e      	movs	r5, #14
    6eca:	5f49      	ldrsh	r1, [r1, r5]
    6ecc:	f000 fa1a 	bl	7304 <_read_r>
    6ed0:	2800      	cmp	r0, #0
    6ed2:	db03      	blt.n	6edc <__sread+0x18>
    6ed4:	6d63      	ldr	r3, [r4, #84]	; 0x54
    6ed6:	181b      	adds	r3, r3, r0
    6ed8:	6563      	str	r3, [r4, #84]	; 0x54
    6eda:	bd70      	pop	{r4, r5, r6, pc}
    6edc:	89a3      	ldrh	r3, [r4, #12]
    6ede:	4a02      	ldr	r2, [pc, #8]	; (6ee8 <__sread+0x24>)
    6ee0:	4013      	ands	r3, r2
    6ee2:	81a3      	strh	r3, [r4, #12]
    6ee4:	e7f9      	b.n	6eda <__sread+0x16>
    6ee6:	46c0      	nop			; (mov r8, r8)
    6ee8:	ffffefff 	.word	0xffffefff

00006eec <__swrite>:
    6eec:	b5f8      	push	{r3, r4, r5, r6, r7, lr}
    6eee:	001f      	movs	r7, r3
    6ef0:	898b      	ldrh	r3, [r1, #12]
    6ef2:	0005      	movs	r5, r0
    6ef4:	000c      	movs	r4, r1
    6ef6:	0016      	movs	r6, r2
    6ef8:	05db      	lsls	r3, r3, #23
    6efa:	d505      	bpl.n	6f08 <__swrite+0x1c>
    6efc:	230e      	movs	r3, #14
    6efe:	5ec9      	ldrsh	r1, [r1, r3]
    6f00:	2200      	movs	r2, #0
    6f02:	2302      	movs	r3, #2
    6f04:	f000 f87c 	bl	7000 <_lseek_r>
    6f08:	89a3      	ldrh	r3, [r4, #12]
    6f0a:	4a05      	ldr	r2, [pc, #20]	; (6f20 <__swrite+0x34>)
    6f0c:	0028      	movs	r0, r5
    6f0e:	4013      	ands	r3, r2
    6f10:	81a3      	strh	r3, [r4, #12]
    6f12:	0032      	movs	r2, r6
    6f14:	230e      	movs	r3, #14
    6f16:	5ee1      	ldrsh	r1, [r4, r3]
    6f18:	003b      	movs	r3, r7
    6f1a:	f000 f84b 	bl	6fb4 <_write_r>
    6f1e:	bdf8      	pop	{r3, r4, r5, r6, r7, pc}
    6f20:	ffffefff 	.word	0xffffefff

00006f24 <__sseek>:
    6f24:	b570      	push	{r4, r5, r6, lr}
    6f26:	000c      	movs	r4, r1
    6f28:	250e      	movs	r5, #14
    6f2a:	5f49      	ldrsh	r1, [r1, r5]
    6f2c:	f000 f868 	bl	7000 <_lseek_r>
    6f30:	89a3      	ldrh	r3, [r4, #12]
    6f32:	1c42      	adds	r2, r0, #1
    6f34:	d103      	bne.n	6f3e <__sseek+0x1a>
    6f36:	4a05      	ldr	r2, [pc, #20]	; (6f4c <__sseek+0x28>)
    6f38:	4013      	ands	r3, r2
    6f3a:	81a3      	strh	r3, [r4, #12]
    6f3c:	bd70      	pop	{r4, r5, r6, pc}
    6f3e:	2280      	movs	r2, #128	; 0x80
    6f40:	0152      	lsls	r2, r2, #5
    6f42:	4313      	orrs	r3, r2
    6f44:	81a3      	strh	r3, [r4, #12]
    6f46:	6560      	str	r0, [r4, #84]	; 0x54
    6f48:	e7f8      	b.n	6f3c <__sseek+0x18>
    6f4a:	46c0      	nop			; (mov r8, r8)
    6f4c:	ffffefff 	.word	0xffffefff

00006f50 <__sclose>:
    6f50:	b510      	push	{r4, lr}
    6f52:	230e      	movs	r3, #14
    6f54:	5ec9      	ldrsh	r1, [r1, r3]
    6f56:	f000 f841 	bl	6fdc <_close_r>
    6f5a:	bd10      	pop	{r4, pc}

00006f5c <strlen>:
    6f5c:	2300      	movs	r3, #0
    6f5e:	5cc2      	ldrb	r2, [r0, r3]
    6f60:	3301      	adds	r3, #1
    6f62:	2a00      	cmp	r2, #0
    6f64:	d1fb      	bne.n	6f5e <strlen+0x2>
    6f66:	1e58      	subs	r0, r3, #1
    6f68:	4770      	bx	lr
	...

00006f6c <_vsiprintf_r>:
    6f6c:	b530      	push	{r4, r5, lr}
    6f6e:	b09b      	sub	sp, #108	; 0x6c
    6f70:	9100      	str	r1, [sp, #0]
    6f72:	9104      	str	r1, [sp, #16]
    6f74:	4908      	ldr	r1, [pc, #32]	; (6f98 <_vsiprintf_r+0x2c>)
    6f76:	466d      	mov	r5, sp
    6f78:	9102      	str	r1, [sp, #8]
    6f7a:	9105      	str	r1, [sp, #20]
    6f7c:	2101      	movs	r1, #1
    6f7e:	2482      	movs	r4, #130	; 0x82
    6f80:	4249      	negs	r1, r1
    6f82:	81e9      	strh	r1, [r5, #14]
    6f84:	00a4      	lsls	r4, r4, #2
    6f86:	4669      	mov	r1, sp
    6f88:	81ac      	strh	r4, [r5, #12]
    6f8a:	f000 f8b7 	bl	70fc <_svfiprintf_r>
    6f8e:	2300      	movs	r3, #0
    6f90:	9a00      	ldr	r2, [sp, #0]
    6f92:	7013      	strb	r3, [r2, #0]
    6f94:	b01b      	add	sp, #108	; 0x6c
    6f96:	bd30      	pop	{r4, r5, pc}
    6f98:	7fffffff 	.word	0x7fffffff

00006f9c <vsiprintf>:
    6f9c:	b510      	push	{r4, lr}
    6f9e:	0013      	movs	r3, r2
    6fa0:	000a      	movs	r2, r1
    6fa2:	0001      	movs	r1, r0
    6fa4:	4802      	ldr	r0, [pc, #8]	; (6fb0 <vsiprintf+0x14>)
    6fa6:	6800      	ldr	r0, [r0, #0]
    6fa8:	f7ff ffe0 	bl	6f6c <_vsiprintf_r>
    6fac:	bd10      	pop	{r4, pc}
    6fae:	46c0      	nop			; (mov r8, r8)
    6fb0:	1ffff0e8 	.word	0x1ffff0e8

00006fb4 <_write_r>:
    6fb4:	b570      	push	{r4, r5, r6, lr}
    6fb6:	0005      	movs	r5, r0
    6fb8:	0008      	movs	r0, r1
    6fba:	0011      	movs	r1, r2
    6fbc:	2200      	movs	r2, #0
    6fbe:	4c06      	ldr	r4, [pc, #24]	; (6fd8 <_write_r+0x24>)
    6fc0:	6022      	str	r2, [r4, #0]
    6fc2:	001a      	movs	r2, r3
    6fc4:	f7fc fef4 	bl	3db0 <_write>
    6fc8:	1c43      	adds	r3, r0, #1
    6fca:	d103      	bne.n	6fd4 <_write_r+0x20>
    6fcc:	6823      	ldr	r3, [r4, #0]
    6fce:	2b00      	cmp	r3, #0
    6fd0:	d000      	beq.n	6fd4 <_write_r+0x20>
    6fd2:	602b      	str	r3, [r5, #0]
    6fd4:	bd70      	pop	{r4, r5, r6, pc}
    6fd6:	46c0      	nop			; (mov r8, r8)
    6fd8:	200011b0 	.word	0x200011b0

00006fdc <_close_r>:
    6fdc:	2300      	movs	r3, #0
    6fde:	b570      	push	{r4, r5, r6, lr}
    6fe0:	4c06      	ldr	r4, [pc, #24]	; (6ffc <_close_r+0x20>)
    6fe2:	0005      	movs	r5, r0
    6fe4:	0008      	movs	r0, r1
    6fe6:	6023      	str	r3, [r4, #0]
    6fe8:	f7fc fec2 	bl	3d70 <_close>
    6fec:	1c43      	adds	r3, r0, #1
    6fee:	d103      	bne.n	6ff8 <_close_r+0x1c>
    6ff0:	6823      	ldr	r3, [r4, #0]
    6ff2:	2b00      	cmp	r3, #0
    6ff4:	d000      	beq.n	6ff8 <_close_r+0x1c>
    6ff6:	602b      	str	r3, [r5, #0]
    6ff8:	bd70      	pop	{r4, r5, r6, pc}
    6ffa:	46c0      	nop			; (mov r8, r8)
    6ffc:	200011b0 	.word	0x200011b0

00007000 <_lseek_r>:
    7000:	b570      	push	{r4, r5, r6, lr}
    7002:	0005      	movs	r5, r0
    7004:	0008      	movs	r0, r1
    7006:	0011      	movs	r1, r2
    7008:	2200      	movs	r2, #0
    700a:	4c06      	ldr	r4, [pc, #24]	; (7024 <_lseek_r+0x24>)
    700c:	6022      	str	r2, [r4, #0]
    700e:	001a      	movs	r2, r3
    7010:	f7fc ff36 	bl	3e80 <_lseek>
    7014:	1c43      	adds	r3, r0, #1
    7016:	d103      	bne.n	7020 <_lseek_r+0x20>
    7018:	6823      	ldr	r3, [r4, #0]
    701a:	2b00      	cmp	r3, #0
    701c:	d000      	beq.n	7020 <_lseek_r+0x20>
    701e:	602b      	str	r3, [r5, #0]
    7020:	bd70      	pop	{r4, r5, r6, pc}
    7022:	46c0      	nop			; (mov r8, r8)
    7024:	200011b0 	.word	0x200011b0

00007028 <_malloc_usable_size_r>:
    7028:	1f0b      	subs	r3, r1, #4
    702a:	681b      	ldr	r3, [r3, #0]
    702c:	1f18      	subs	r0, r3, #4
    702e:	2b00      	cmp	r3, #0
    7030:	da01      	bge.n	7036 <_malloc_usable_size_r+0xe>
    7032:	580b      	ldr	r3, [r1, r0]
    7034:	18c0      	adds	r0, r0, r3
    7036:	4770      	bx	lr

00007038 <__ssputs_r>:
    7038:	b5f0      	push	{r4, r5, r6, r7, lr}
    703a:	688e      	ldr	r6, [r1, #8]
    703c:	b085      	sub	sp, #20
    703e:	0007      	movs	r7, r0
    7040:	000c      	movs	r4, r1
    7042:	9203      	str	r2, [sp, #12]
    7044:	9301      	str	r3, [sp, #4]
    7046:	429e      	cmp	r6, r3
    7048:	d839      	bhi.n	70be <__ssputs_r+0x86>
    704a:	2390      	movs	r3, #144	; 0x90
    704c:	898a      	ldrh	r2, [r1, #12]
    704e:	00db      	lsls	r3, r3, #3
    7050:	421a      	tst	r2, r3
    7052:	d034      	beq.n	70be <__ssputs_r+0x86>
    7054:	2503      	movs	r5, #3
    7056:	6909      	ldr	r1, [r1, #16]
    7058:	6823      	ldr	r3, [r4, #0]
    705a:	1a5b      	subs	r3, r3, r1
    705c:	9302      	str	r3, [sp, #8]
    705e:	6963      	ldr	r3, [r4, #20]
    7060:	9802      	ldr	r0, [sp, #8]
    7062:	435d      	muls	r5, r3
    7064:	0feb      	lsrs	r3, r5, #31
    7066:	195d      	adds	r5, r3, r5
    7068:	9b01      	ldr	r3, [sp, #4]
    706a:	106d      	asrs	r5, r5, #1
    706c:	3301      	adds	r3, #1
    706e:	181b      	adds	r3, r3, r0
    7070:	42ab      	cmp	r3, r5
    7072:	d900      	bls.n	7076 <__ssputs_r+0x3e>
    7074:	001d      	movs	r5, r3
    7076:	0553      	lsls	r3, r2, #21
    7078:	d532      	bpl.n	70e0 <__ssputs_r+0xa8>
    707a:	0029      	movs	r1, r5
    707c:	0038      	movs	r0, r7
    707e:	f7fc fe31 	bl	3ce4 <__wrap__malloc_r>
    7082:	1e06      	subs	r6, r0, #0
    7084:	d109      	bne.n	709a <__ssputs_r+0x62>
    7086:	230c      	movs	r3, #12
    7088:	603b      	str	r3, [r7, #0]
    708a:	2340      	movs	r3, #64	; 0x40
    708c:	2001      	movs	r0, #1
    708e:	89a2      	ldrh	r2, [r4, #12]
    7090:	4240      	negs	r0, r0
    7092:	4313      	orrs	r3, r2
    7094:	81a3      	strh	r3, [r4, #12]
    7096:	b005      	add	sp, #20
    7098:	bdf0      	pop	{r4, r5, r6, r7, pc}
    709a:	9a02      	ldr	r2, [sp, #8]
    709c:	6921      	ldr	r1, [r4, #16]
    709e:	f7ff fc7c 	bl	699a <memcpy>
    70a2:	89a3      	ldrh	r3, [r4, #12]
    70a4:	4a14      	ldr	r2, [pc, #80]	; (70f8 <__ssputs_r+0xc0>)
    70a6:	401a      	ands	r2, r3
    70a8:	2380      	movs	r3, #128	; 0x80
    70aa:	4313      	orrs	r3, r2
    70ac:	81a3      	strh	r3, [r4, #12]
    70ae:	9b02      	ldr	r3, [sp, #8]
    70b0:	6126      	str	r6, [r4, #16]
    70b2:	18f6      	adds	r6, r6, r3
    70b4:	6026      	str	r6, [r4, #0]
    70b6:	6165      	str	r5, [r4, #20]
    70b8:	9e01      	ldr	r6, [sp, #4]
    70ba:	1aed      	subs	r5, r5, r3
    70bc:	60a5      	str	r5, [r4, #8]
    70be:	9b01      	ldr	r3, [sp, #4]
    70c0:	42b3      	cmp	r3, r6
    70c2:	d200      	bcs.n	70c6 <__ssputs_r+0x8e>
    70c4:	001e      	movs	r6, r3
    70c6:	0032      	movs	r2, r6
    70c8:	9903      	ldr	r1, [sp, #12]
    70ca:	6820      	ldr	r0, [r4, #0]
    70cc:	f7ff fc6e 	bl	69ac <memmove>
    70d0:	68a3      	ldr	r3, [r4, #8]
    70d2:	2000      	movs	r0, #0
    70d4:	1b9b      	subs	r3, r3, r6
    70d6:	60a3      	str	r3, [r4, #8]
    70d8:	6823      	ldr	r3, [r4, #0]
    70da:	199e      	adds	r6, r3, r6
    70dc:	6026      	str	r6, [r4, #0]
    70de:	e7da      	b.n	7096 <__ssputs_r+0x5e>
    70e0:	002a      	movs	r2, r5
    70e2:	0038      	movs	r0, r7
    70e4:	f7fc fe02 	bl	3cec <__wrap__realloc_r>
    70e8:	1e06      	subs	r6, r0, #0
    70ea:	d1e0      	bne.n	70ae <__ssputs_r+0x76>
    70ec:	6921      	ldr	r1, [r4, #16]
    70ee:	0038      	movs	r0, r7
    70f0:	f7fc fe00 	bl	3cf4 <__wrap__free_r>
    70f4:	e7c7      	b.n	7086 <__ssputs_r+0x4e>
    70f6:	46c0      	nop			; (mov r8, r8)
    70f8:	fffffb7f 	.word	0xfffffb7f

000070fc <_svfiprintf_r>:
    70fc:	b5f0      	push	{r4, r5, r6, r7, lr}
    70fe:	b09f      	sub	sp, #124	; 0x7c
    7100:	9002      	str	r0, [sp, #8]
    7102:	9305      	str	r3, [sp, #20]
    7104:	898b      	ldrh	r3, [r1, #12]
    7106:	000f      	movs	r7, r1
    7108:	0016      	movs	r6, r2
    710a:	061b      	lsls	r3, r3, #24
    710c:	d511      	bpl.n	7132 <_svfiprintf_r+0x36>
    710e:	690b      	ldr	r3, [r1, #16]
    7110:	2b00      	cmp	r3, #0
    7112:	d10e      	bne.n	7132 <_svfiprintf_r+0x36>
    7114:	2140      	movs	r1, #64	; 0x40
    7116:	f7fc fde5 	bl	3ce4 <__wrap__malloc_r>
    711a:	6038      	str	r0, [r7, #0]
    711c:	6138      	str	r0, [r7, #16]
    711e:	2800      	cmp	r0, #0
    7120:	d105      	bne.n	712e <_svfiprintf_r+0x32>
    7122:	230c      	movs	r3, #12
    7124:	9a02      	ldr	r2, [sp, #8]
    7126:	3801      	subs	r0, #1
    7128:	6013      	str	r3, [r2, #0]
    712a:	b01f      	add	sp, #124	; 0x7c
    712c:	bdf0      	pop	{r4, r5, r6, r7, pc}
    712e:	2340      	movs	r3, #64	; 0x40
    7130:	617b      	str	r3, [r7, #20]
    7132:	2300      	movs	r3, #0
    7134:	ad06      	add	r5, sp, #24
    7136:	616b      	str	r3, [r5, #20]
    7138:	3320      	adds	r3, #32
    713a:	766b      	strb	r3, [r5, #25]
    713c:	3310      	adds	r3, #16
    713e:	76ab      	strb	r3, [r5, #26]
    7140:	0034      	movs	r4, r6
    7142:	7823      	ldrb	r3, [r4, #0]
    7144:	2b00      	cmp	r3, #0
    7146:	d147      	bne.n	71d8 <_svfiprintf_r+0xdc>
    7148:	1ba3      	subs	r3, r4, r6
    714a:	9304      	str	r3, [sp, #16]
    714c:	d00d      	beq.n	716a <_svfiprintf_r+0x6e>
    714e:	1ba3      	subs	r3, r4, r6
    7150:	0032      	movs	r2, r6
    7152:	0039      	movs	r1, r7
    7154:	9802      	ldr	r0, [sp, #8]
    7156:	f7ff ff6f 	bl	7038 <__ssputs_r>
    715a:	1c43      	adds	r3, r0, #1
    715c:	d100      	bne.n	7160 <_svfiprintf_r+0x64>
    715e:	e0b5      	b.n	72cc <_svfiprintf_r+0x1d0>
    7160:	696a      	ldr	r2, [r5, #20]
    7162:	9b04      	ldr	r3, [sp, #16]
    7164:	4694      	mov	r12, r2
    7166:	4463      	add	r3, r12
    7168:	616b      	str	r3, [r5, #20]
    716a:	7823      	ldrb	r3, [r4, #0]
    716c:	2b00      	cmp	r3, #0
    716e:	d100      	bne.n	7172 <_svfiprintf_r+0x76>
    7170:	e0ac      	b.n	72cc <_svfiprintf_r+0x1d0>
    7172:	2201      	movs	r2, #1
    7174:	2300      	movs	r3, #0
    7176:	4252      	negs	r2, r2
    7178:	606a      	str	r2, [r5, #4]
    717a:	a902      	add	r1, sp, #8
    717c:	3254      	adds	r2, #84	; 0x54
    717e:	1852      	adds	r2, r2, r1
    7180:	3401      	adds	r4, #1
    7182:	602b      	str	r3, [r5, #0]
    7184:	60eb      	str	r3, [r5, #12]
    7186:	60ab      	str	r3, [r5, #8]
    7188:	7013      	strb	r3, [r2, #0]
    718a:	65ab      	str	r3, [r5, #88]	; 0x58
    718c:	4e58      	ldr	r6, [pc, #352]	; (72f0 <_svfiprintf_r+0x1f4>)
    718e:	2205      	movs	r2, #5
    7190:	7821      	ldrb	r1, [r4, #0]
    7192:	0030      	movs	r0, r6
    7194:	f7ff fbf6 	bl	6984 <memchr>
    7198:	1c62      	adds	r2, r4, #1
    719a:	2800      	cmp	r0, #0
    719c:	d120      	bne.n	71e0 <_svfiprintf_r+0xe4>
    719e:	6829      	ldr	r1, [r5, #0]
    71a0:	06cb      	lsls	r3, r1, #27
    71a2:	d504      	bpl.n	71ae <_svfiprintf_r+0xb2>
    71a4:	2353      	movs	r3, #83	; 0x53
    71a6:	ae02      	add	r6, sp, #8
    71a8:	3020      	adds	r0, #32
    71aa:	199b      	adds	r3, r3, r6
    71ac:	7018      	strb	r0, [r3, #0]
    71ae:	070b      	lsls	r3, r1, #28
    71b0:	d504      	bpl.n	71bc <_svfiprintf_r+0xc0>
    71b2:	2353      	movs	r3, #83	; 0x53
    71b4:	202b      	movs	r0, #43	; 0x2b
    71b6:	ae02      	add	r6, sp, #8
    71b8:	199b      	adds	r3, r3, r6
    71ba:	7018      	strb	r0, [r3, #0]
    71bc:	7823      	ldrb	r3, [r4, #0]
    71be:	2b2a      	cmp	r3, #42	; 0x2a
    71c0:	d016      	beq.n	71f0 <_svfiprintf_r+0xf4>
    71c2:	2000      	movs	r0, #0
    71c4:	210a      	movs	r1, #10
    71c6:	9b09      	ldr	r3, [sp, #36]	; 0x24
    71c8:	7822      	ldrb	r2, [r4, #0]
    71ca:	3a30      	subs	r2, #48	; 0x30
    71cc:	2a09      	cmp	r2, #9
    71ce:	d955      	bls.n	727c <_svfiprintf_r+0x180>
    71d0:	2800      	cmp	r0, #0
    71d2:	d015      	beq.n	7200 <_svfiprintf_r+0x104>
    71d4:	9309      	str	r3, [sp, #36]	; 0x24
    71d6:	e013      	b.n	7200 <_svfiprintf_r+0x104>
    71d8:	2b25      	cmp	r3, #37	; 0x25
    71da:	d0b5      	beq.n	7148 <_svfiprintf_r+0x4c>
    71dc:	3401      	adds	r4, #1
    71de:	e7b0      	b.n	7142 <_svfiprintf_r+0x46>
    71e0:	2301      	movs	r3, #1
    71e2:	1b80      	subs	r0, r0, r6
    71e4:	4083      	lsls	r3, r0
    71e6:	6829      	ldr	r1, [r5, #0]
    71e8:	0014      	movs	r4, r2
    71ea:	430b      	orrs	r3, r1
    71ec:	602b      	str	r3, [r5, #0]
    71ee:	e7cd      	b.n	718c <_svfiprintf_r+0x90>
    71f0:	9b05      	ldr	r3, [sp, #20]
    71f2:	1d18      	adds	r0, r3, #4
    71f4:	681b      	ldr	r3, [r3, #0]
    71f6:	9005      	str	r0, [sp, #20]
    71f8:	2b00      	cmp	r3, #0
    71fa:	db39      	blt.n	7270 <_svfiprintf_r+0x174>
    71fc:	9309      	str	r3, [sp, #36]	; 0x24
    71fe:	0014      	movs	r4, r2
    7200:	7823      	ldrb	r3, [r4, #0]
    7202:	2b2e      	cmp	r3, #46	; 0x2e
    7204:	d10b      	bne.n	721e <_svfiprintf_r+0x122>
    7206:	7863      	ldrb	r3, [r4, #1]
    7208:	1c62      	adds	r2, r4, #1
    720a:	2b2a      	cmp	r3, #42	; 0x2a
    720c:	d13e      	bne.n	728c <_svfiprintf_r+0x190>
    720e:	9b05      	ldr	r3, [sp, #20]
    7210:	3402      	adds	r4, #2
    7212:	1d1a      	adds	r2, r3, #4
    7214:	681b      	ldr	r3, [r3, #0]
    7216:	9205      	str	r2, [sp, #20]
    7218:	2b00      	cmp	r3, #0
    721a:	db34      	blt.n	7286 <_svfiprintf_r+0x18a>
    721c:	9307      	str	r3, [sp, #28]
    721e:	4e35      	ldr	r6, [pc, #212]	; (72f4 <_svfiprintf_r+0x1f8>)
    7220:	7821      	ldrb	r1, [r4, #0]
    7222:	2203      	movs	r2, #3
    7224:	0030      	movs	r0, r6
    7226:	f7ff fbad 	bl	6984 <memchr>
    722a:	2800      	cmp	r0, #0
    722c:	d006      	beq.n	723c <_svfiprintf_r+0x140>
    722e:	2340      	movs	r3, #64	; 0x40
    7230:	1b80      	subs	r0, r0, r6
    7232:	4083      	lsls	r3, r0
    7234:	682a      	ldr	r2, [r5, #0]
    7236:	3401      	adds	r4, #1
    7238:	4313      	orrs	r3, r2
    723a:	602b      	str	r3, [r5, #0]
    723c:	7821      	ldrb	r1, [r4, #0]
    723e:	2206      	movs	r2, #6
    7240:	482d      	ldr	r0, [pc, #180]	; (72f8 <_svfiprintf_r+0x1fc>)
    7242:	1c66      	adds	r6, r4, #1
    7244:	7629      	strb	r1, [r5, #24]
    7246:	f7ff fb9d 	bl	6984 <memchr>
    724a:	2800      	cmp	r0, #0
    724c:	d046      	beq.n	72dc <_svfiprintf_r+0x1e0>
    724e:	4b2b      	ldr	r3, [pc, #172]	; (72fc <_svfiprintf_r+0x200>)
    7250:	2b00      	cmp	r3, #0
    7252:	d12f      	bne.n	72b4 <_svfiprintf_r+0x1b8>
    7254:	6829      	ldr	r1, [r5, #0]
    7256:	9b05      	ldr	r3, [sp, #20]
    7258:	2207      	movs	r2, #7
    725a:	05c9      	lsls	r1, r1, #23
    725c:	d528      	bpl.n	72b0 <_svfiprintf_r+0x1b4>
    725e:	189b      	adds	r3, r3, r2
    7260:	4393      	bics	r3, r2
    7262:	3308      	adds	r3, #8
    7264:	9305      	str	r3, [sp, #20]
    7266:	696b      	ldr	r3, [r5, #20]
    7268:	9a03      	ldr	r2, [sp, #12]
    726a:	189b      	adds	r3, r3, r2
    726c:	616b      	str	r3, [r5, #20]
    726e:	e767      	b.n	7140 <_svfiprintf_r+0x44>
    7270:	425b      	negs	r3, r3
    7272:	60eb      	str	r3, [r5, #12]
    7274:	2302      	movs	r3, #2
    7276:	430b      	orrs	r3, r1
    7278:	602b      	str	r3, [r5, #0]
    727a:	e7c0      	b.n	71fe <_svfiprintf_r+0x102>
    727c:	434b      	muls	r3, r1
    727e:	3401      	adds	r4, #1
    7280:	189b      	adds	r3, r3, r2
    7282:	2001      	movs	r0, #1
    7284:	e7a0      	b.n	71c8 <_svfiprintf_r+0xcc>
    7286:	2301      	movs	r3, #1
    7288:	425b      	negs	r3, r3
    728a:	e7c7      	b.n	721c <_svfiprintf_r+0x120>
    728c:	2300      	movs	r3, #0
    728e:	0014      	movs	r4, r2
    7290:	200a      	movs	r0, #10
    7292:	001a      	movs	r2, r3
    7294:	606b      	str	r3, [r5, #4]
    7296:	7821      	ldrb	r1, [r4, #0]
    7298:	3930      	subs	r1, #48	; 0x30
    729a:	2909      	cmp	r1, #9
    729c:	d903      	bls.n	72a6 <_svfiprintf_r+0x1aa>
    729e:	2b00      	cmp	r3, #0
    72a0:	d0bd      	beq.n	721e <_svfiprintf_r+0x122>
    72a2:	9207      	str	r2, [sp, #28]
    72a4:	e7bb      	b.n	721e <_svfiprintf_r+0x122>
    72a6:	4342      	muls	r2, r0
    72a8:	3401      	adds	r4, #1
    72aa:	1852      	adds	r2, r2, r1
    72ac:	2301      	movs	r3, #1
    72ae:	e7f2      	b.n	7296 <_svfiprintf_r+0x19a>
    72b0:	3307      	adds	r3, #7
    72b2:	e7d5      	b.n	7260 <_svfiprintf_r+0x164>
    72b4:	ab05      	add	r3, sp, #20
    72b6:	9300      	str	r3, [sp, #0]
    72b8:	003a      	movs	r2, r7
    72ba:	4b11      	ldr	r3, [pc, #68]	; (7300 <_svfiprintf_r+0x204>)
    72bc:	0029      	movs	r1, r5
    72be:	9802      	ldr	r0, [sp, #8]
    72c0:	e000      	b.n	72c4 <_svfiprintf_r+0x1c8>
    72c2:	bf00      	nop
    72c4:	9003      	str	r0, [sp, #12]
    72c6:	9b03      	ldr	r3, [sp, #12]
    72c8:	3301      	adds	r3, #1
    72ca:	d1cc      	bne.n	7266 <_svfiprintf_r+0x16a>
    72cc:	89bb      	ldrh	r3, [r7, #12]
    72ce:	980b      	ldr	r0, [sp, #44]	; 0x2c
    72d0:	065b      	lsls	r3, r3, #25
    72d2:	d400      	bmi.n	72d6 <_svfiprintf_r+0x1da>
    72d4:	e729      	b.n	712a <_svfiprintf_r+0x2e>
    72d6:	2001      	movs	r0, #1
    72d8:	4240      	negs	r0, r0
    72da:	e726      	b.n	712a <_svfiprintf_r+0x2e>
    72dc:	ab05      	add	r3, sp, #20
    72de:	9300      	str	r3, [sp, #0]
    72e0:	003a      	movs	r2, r7
    72e2:	4b07      	ldr	r3, [pc, #28]	; (7300 <_svfiprintf_r+0x204>)
    72e4:	0029      	movs	r1, r5
    72e6:	9802      	ldr	r0, [sp, #8]
    72e8:	f7ff fcb6 	bl	6c58 <_printf_i>
    72ec:	e7ea      	b.n	72c4 <_svfiprintf_r+0x1c8>
    72ee:	46c0      	nop			; (mov r8, r8)
    72f0:	00007b3a 	.word	0x00007b3a
    72f4:	00007b40 	.word	0x00007b40
    72f8:	00007b44 	.word	0x00007b44
    72fc:	00000000 	.word	0x00000000
    7300:	00007039 	.word	0x00007039

00007304 <_read_r>:
    7304:	b570      	push	{r4, r5, r6, lr}
    7306:	0005      	movs	r5, r0
    7308:	0008      	movs	r0, r1
    730a:	0011      	movs	r1, r2
    730c:	2200      	movs	r2, #0
    730e:	4c06      	ldr	r4, [pc, #24]	; (7328 <_read_r+0x24>)
    7310:	6022      	str	r2, [r4, #0]
    7312:	001a      	movs	r2, r3
    7314:	f7fc fd82 	bl	3e1c <_read>
    7318:	1c43      	adds	r3, r0, #1
    731a:	d103      	bne.n	7324 <_read_r+0x20>
    731c:	6823      	ldr	r3, [r4, #0]
    731e:	2b00      	cmp	r3, #0
    7320:	d000      	beq.n	7324 <_read_r+0x20>
    7322:	602b      	str	r3, [r5, #0]
    7324:	bd70      	pop	{r4, r5, r6, pc}
    7326:	46c0      	nop			; (mov r8, r8)
    7328:	200011b0 	.word	0x200011b0

0000732c <_init>:
    732c:	b5f8      	push	{r3, r4, r5, r6, r7, lr}
    732e:	46c0      	nop			; (mov r8, r8)
    7330:	bcf8      	pop	{r3, r4, r5, r6, r7}
    7332:	bc08      	pop	{r3}
    7334:	469e      	mov	lr, r3
    7336:	4770      	bx	lr

00007338 <_fini>:
    7338:	b5f8      	push	{r3, r4, r5, r6, r7, lr}
    733a:	46c0      	nop			; (mov r8, r8)
    733c:	bcf8      	pop	{r3, r4, r5, r6, r7}
    733e:	bc08      	pop	{r3}
    7340:	469e      	mov	lr, r3
    7342:	4770      	bx	lr

00007344 <vtable for std_msgs::Time>:
	...
    734c:	0471 0000 04a1 0000 04dd 0000 04e5 0000     q...............

0000735c <vtable for rosserial_msgs::TopicInfo>:
	...
    7364:	06f5 0000 07c1 0000 04ed 0000 04f5 0000     ................

00007374 <vtable for rosserial_msgs::Log>:
	...
    737c:	06cd 0000 078d 0000 04fd 0000 0505 0000     ................

0000738c <vtable for rosserial_msgs::RequestParamResponse>:
	...
    7394:	05f9 0000 086f 0000 050d 0000 0515 0000     ....o...........

000073a4 <vtable for std_msgs::UInt16>:
	...
    73ac:	051d 0000 052b 0000 053d 0000 0545 0000     ....+...=...E...

000073bc <vtable for ros::NodeHandle_<MbedHardware, 25, 25, 512, 512>>:
	...
    73c4:	1001 0000 0d05 0000 0579 0000               ........y...

000073d0 <vtable for ros::Subscriber<std_msgs::UInt16, void>>:
	...
    73d8:	054d 0000 0563 0000 0569 0000 0571 0000     M...c...i...q...
    73e8:	7570 706d 7600 6c61 6576 3900 3066 3965     pump.valve.9f0e9
    73f8:	6238 6164 3536 3839 3931 3638 6464 3566     8bda65981986ddf5
    7408:	6133 6166 6137 3034 3465 0039 3131 6261     3afa7a40e49.11ab
    7418:	3764 3133 3263 3935 3333 3632 6331 3664     d731c25933261cd6
    7428:	3831 6233 3164 6432 3236 3539 7200 736f     183bd12d6295.ros
    7438:	6573 6972 6c61 6d5f 6773 2f73 6f4c 0067     serial_msgs/Log.
    7448:	6130 3564 6631 3838 6366 3434 3938 6632     0ad51f88fc44892f
    7458:	6338 3031 3836 3034 3737 3436 3036 3530     8c10684077646005
    7468:	7200 736f 6573 6972 6c61 6d5f 6773 2f73     .rosserial_msgs/
    7478:	6f54 6970 4963 666e 006f                    TopicInfo.

00007482 <rosserial_msgs::REQUESTPARAM>:
    7482:	6f72 7373 7265 6169 5f6c 736d 7367 522f     rosserial_msgs/R
    7492:	7165 6575 7473 6150 6172 006d 654d 7373     equestParam.Mess
    74a2:	6761 2065 7266 6d6f 6420 7665 6369 2065     age from device 
    74b2:	7264 706f 6570 3a64 6d20 7365 6173 6567     dropped: message
    74c2:	6c20 7261 6567 2072 6874 6e61 6220 6675      larger than buf
    74d2:	6566 2e72 6300 3764 3631 6336 3437 3563     fer..cd7166c74c5
    74e2:	3235 3363 3131 6266 6363 6632 3565 3761     52c311fbcc2fe5a7
    74f2:	6362 3832 0039 7473 5f64 736d 7367 542f     bc289.std_msgs/T
    7502:	6d69 0065 6431 3766 6539 6664 3032 6238     ime.1df79edf208b
    7512:	3236 6639 3665 3862 3931 3332 3561 3434     629fe6b81923a544
    7522:	3535 6432 7300 6474 6d5f 6773 2f73 4955     552d.std_msgs/UI
    7532:	746e 3631 0000                              nt16..

00007538 <void mbed::Callback<void ()>::generate<mbed::Callback<void ()>::method_context<BufferedSerial, void (BufferedSerial::*)()> >(mbed::Callback<void ()>::method_context<BufferedSerial, void (BufferedSerial::*)()> const&)::ops>:
    7538:	12e9 0000 12db 0000 12e7 0000 682f 6d6f     ............/hom
    7548:	2f65 696e 6968 2f74 6f72 2f73 696c 2f62     e/nihit/ros/lib/
    7558:	6f72 5f73 696c 2f62 7542 6666 7265 6465     ros_lib/Buffered
    7568:	6553 6972 6c61 422f 6675 6566 6572 5364     Serial/BufferedS
    7578:	7265 6169 2e6c 7063 0070 7325 2520 2064     erial.cpp.%s %d 
    7588:	7562 6666 7265 6f20 6576 7772 6972 6574     buffer overwrite
    7598:	2820 616d 5f78 7562 5f66 6973 657a 203a      (max_buf_size: 
    75a8:	6425 6520 6378 6565 6564 3a64 2520 2964     %d exceeded: %d)
    75b8:	0d21 000a                                   !...

000075bc <vtable for BufferedSerial>:
	...
    75c4:	3b79 0000 3b79 0000 1355 0000 13ad 0000     y;..y;..U.......
    75d4:	12ad 0000 12b9 0000 12bd 0000 1507 0000     ................
    75e4:	151f 0000 1581 0000 154f 0000               ........O...

000075f0 <us_data>:
    75f0:	75f8 0000 f7a4 1fff                         .u......

000075f8 <us_interface>:
    75f8:	2ed9 0000 30bd 0000 30dd 0000 30ed 0000     .....0...0...0..
    7608:	30f1 0000 6970 6d6e 7061 6d20 7369 6d2d     .0..pinmap mis-m
    7618:	7461 6863 7000 6e69 616d 2070 6f6e 2074     atch.pinmap not 
    7628:	6f66 6e75 2064 6f66 2072 6570 6972 6870     found for periph
    7638:	7265 6c61 6300 756f 646c 6e20 746f 7020     eral.could not p
    7648:	6e69 756f 0074 0000                         inout...

00007650 <mp_stk_size>:
    7650:	0210 0000                                   ....

00007654 <mp_tcb_size>:
    7654:	01cc                                        ..

00007656 <mp_tmr_size>:
	...

00007658 <os_clockrate>:
    7658:	03e8 0000 5452 2058 7265 6f72 2072 6f63     ....RTX error co
    7668:	6564 203a 7830 3025 5838 202c 6174 6b73     de: 0x%08X, task
    7678:	4920 3a44 3020 2578 3830 0a58 1000                ID: 0x%08X..

00007685 <os_fifo_size>:
    7685:	0110                                             .

00007686 <os_flags>:
    7686:	0001                                        ..

00007688 <os_maxtaskrun>:
    7688:	0007 0000                                   ....

0000768c <os_messageQ_def_osTimerMessageQ>:
    768c:	0004 0000 f7c8 1fff                         ........

00007694 <os_mutex_def_env_mutex>:
    7694:	f7e8 1fff                                   ....

00007698 <os_mutex_def_malloc_mutex>:
    7698:	f7f8 1fff                                   ....

0000769c <os_mutex_def_singleton_mutex>:
    769c:	f808 1fff                                   ....

000076a0 <os_rrobin>:
    76a0:	0005 0001                                   ....

000076a4 <os_stackinfo>:
    76a4:	0200 0100                                   ....

000076a8 <os_thread_def_osTimerThread>:
    76a8:	277d 0000 0002 0000 0001 0000 0320 0000     }'.......... ...
    76b8:	0c20 2000                                    .. 

000076bc <os_trv>:
    76bc:	bb7f 0000                                   ....

000076c0 <os_mutex_def_osThreadMutex>:
    76c0:	081c 2000                                   ... 

000076c4 <PinMap_PWM>:
    76c4:	0000 0000 0005 0000 0003 0000 0004 0000     ................
    76d4:	0200 0000 0003 0000 0008 0000 0201 0000     ................
    76e4:	0003 0000 000c 0000 0000 0000 0003 0000     ................
    76f4:	0010 0000 0001 0000 0003 0000 0014 0000     ................
    7704:	0002 0000 0003 0000 0030 0000 0100 0000     ........0.......
    7714:	0003 0000 0034 0000 0101 0000 0003 0000     ....4...........
    7724:	1000 0000 0100 0000 0003 0000 1004 0000     ................
    7734:	0101 0000 0003 0000 1008 0000 0200 0000     ................
    7744:	0003 0000 100c 0000 0201 0000 0003 0000     ................
    7754:	1048 0000 0200 0000 0003 0000 104c 0000     H...........L...
    7764:	0201 0000 0003 0000 2004 0000 0000 0000     ......... ......
    7774:	0004 0000 2008 0000 0001 0000 0004 0000     ..... ..........
    7784:	200c 0000 0002 0000 0004 0000 2010 0000     . ........... ..
    7794:	0003 0000 0004 0000 2020 0000 0004 0000     ........  ......
    77a4:	0003 0000 2024 0000 0005 0000 0003 0000     ....$ ..........
    77b4:	3000 0000 0000 0000 0004 0000 3004 0000     .0...........0..
    77c4:	0001 0000 0004 0000 3008 0000 0002 0000     .........0......
    77d4:	0004 0000 300c 0000 0003 0000 0004 0000     .....0..........
    77e4:	3010 0000 0004 0000 0004 0000 3014 0000     .0...........0..
    77f4:	0005 0000 0004 0000 4050 0000 0100 0000     ........P@......
    7804:	0003 0000 4054 0000 0101 0000 0003 0000     ....T@..........
    7814:	4058 0000 0200 0000 0003 0000 405c 0000     X@..........\@..
    7824:	0201 0000 0003 0000 4060 0000 0000 0000     ........`@......
    7834:	0003 0000 4064 0000 0001 0000 0003 0000     ....d@..........
    7844:	4068 0000 0005 0000 0003 0000 4074 0000     h@..........t@..
    7854:	0002 0000 0003 0000 4078 0000 0003 0000     ........x@......
    7864:	0003 0000 407c 0000 0004 0000 0003 0000     ....|@..........
    7874:	ffff 0000 ffff ffff 0000 0000               ............

00007880 <PinMap_UART_RX>:
    7880:	200c 0000 b000 4006 0003 0000 0004 0000     . .....@........
    7890:	a000 4006 0002 0000 3010 0000 c000 4006     ...@.....0.....@
    78a0:	0003 0000 3008 0000 c000 4006 0003 0000     .....0.....@....
    78b0:	3018 0000 a000 4006 0003 0000 405c 0000     .0.....@....\@..
    78c0:	c000 4006 0004 0000 4054 0000 a000 4006     ...@....T@.....@
    78d0:	0004 0000 4004 0000 b000 4006 0003 0000     .....@.....@....
    78e0:	ffff 0000 ffff ffff 0000 0000               ............

000078ec <PinMap_UART_TX>:
    78ec:	2010 0000 b000 4006 0003 0000 0008 0000     . .....@........
    78fc:	a000 4006 0002 0000 3014 0000 c000 4006     ...@.....0.....@
    790c:	0003 0000 300c 0000 c000 4006 0003 0000     .....0.....@....
    791c:	301c 0000 a000 4006 0003 0000 4050 0000     .0.....@....P@..
    792c:	a000 4006 0004 0000 4058 0000 c000 4006     ...@....X@.....@
    793c:	0004 0000 4000 0000 b000 4006 0003 0000     .....@.....@....
    794c:	ffff 0000 ffff ffff 0000 0000               ............

00007958 <void mbed::Callback<void ()>::generate<void (*)()>(void (* const&)())::ops>:
    7958:	3b3d 0000 3b45 0000 3b4f 0000               =;..E;..O;..

00007964 <vtable for mbed::RawSerial>:
	...
    796c:	3b79 0000 3b79 0000 3b7d 0000 3b95 0000     y;..y;..};...;..

0000797c <vtable for mbed::SerialBase>:
	...
    7984:	3bc3 0000 3bc5 0000 1315 0000 1341 0000     .;...;......A...
    7994:	704f 7265 7461 726f 6e20 7765 5d5b 6f20     Operator new[] o
    79a4:	7475 6f20 2066 656d 6f6d 7972 0a0d 0000     ut of memory....
    79b4:	494c 0000 491c 0000 492e 0000 4870 0000     LI...I...I..pH..
    79c4:	492e 0000 4912 0000 492e 0000 4870 0000     .I...I...I..pH..
    79d4:	491c 0000 491c 0000 4912 0000 4870 0000     .I...I...I..pH..
    79e4:	4878 0000 4878 0000 4878 0000 4934 0000     xH..xH..xH..4I..
    79f4:	491c 0000 491c 0000 48f0 0000 49d4 0000     .I...I...H...I..
    7a04:	48f0 0000 4912 0000 48f0 0000 49d4 0000     .H...I...H...I..
    7a14:	491c 0000 491c 0000 4912 0000 49d4 0000     .I...I...I...I..
    7a24:	4878 0000 4878 0000 4878 0000 49de 0000     xH..xH..xH...I..
    7a34:	4ccc 0000 4c1c 0000 4c1c 0000 4c1a 0000     .L...L...L...L..
    7a44:	4cbe 0000 4cbe 0000 4cb4 0000 4c1a 0000     .L...L...L...L..
    7a54:	4cbe 0000 4cb4 0000 4cbe 0000 4c1a 0000     .L...L...L...L..
    7a64:	4cc4 0000 4cc4 0000 4cc4 0000 4d54 0000     .L...L...L..TM..
    7a74:	5a94 0000 5954 0000 5954 0000 5950 0000     .Z..TY..TY..PY..
    7a84:	5a6c 0000 5a6c 0000 5a5e 0000 5950 0000     lZ..lZ..^Z..PY..
    7a94:	5a6c 0000 5a5e 0000 5a6c 0000 5950 0000     lZ..^Z..lZ..PY..
    7aa4:	5a74 0000 5a74 0000 5a74 0000 5c78 0000     tZ..tZ..tZ..x\..

00007ab4 <__sf_fake_stderr>:
	...

00007ad4 <__sf_fake_stdin>:
	...

00007af4 <__sf_fake_stdout>:
	...

00007b14 <_global_impure_ptr>:
    7b14:	f0ec 1fff 3130 3332 3534 3736 3938 4241     ....0123456789AB
    7b24:	4443 4645 3000 3231 3433 3635 3837 6139     CDEF.0123456789a
    7b34:	6362 6564 0066 2d23 2b30 0020 6c68 004c     bcdef.#-0+ .hlL.
    7b44:	6665 4567 4746 0000                         efgEFG..

00007b4c <__EH_FRAME_BEGIN__>:
    7b4c:	0000 0000                                   ....
