
KL25Z/rosserial_mbed_PumpControl.elf:     file format elf32-littlearm
architecture: arm, flags 0x00000112:
EXEC_P, HAS_SYMS, D_PAGED
start address 0x000000c1


Disassembly of section .isr_vector:

00000000 <__isr_vector>:
   0:	20003000 	.word	0x20003000
   4:	000000c1 	.word	0x000000c1
   8:	000039b7 	.word	0x000039b7
   c:	00004103 	.word	0x00004103
	...
  2c:	0000400b 	.word	0x0000400b
	...
  38:	00004091 	.word	0x00004091
  3c:	000040d9 	.word	0x000040d9
  40:	0000410b 	.word	0x0000410b
  44:	0000410b 	.word	0x0000410b
  48:	0000410b 	.word	0x0000410b
  4c:	0000410b 	.word	0x0000410b
  50:	0000410b 	.word	0x0000410b
  54:	0000410b 	.word	0x0000410b
  58:	0000410b 	.word	0x0000410b
  5c:	0000410b 	.word	0x0000410b
  60:	0000410b 	.word	0x0000410b
  64:	0000410b 	.word	0x0000410b
  68:	0000410b 	.word	0x0000410b
  6c:	0000410b 	.word	0x0000410b
  70:	0000410b 	.word	0x0000410b
  74:	0000410b 	.word	0x0000410b
  78:	0000410b 	.word	0x0000410b
  7c:	0000410b 	.word	0x0000410b
  80:	0000410b 	.word	0x0000410b
  84:	0000410b 	.word	0x0000410b
  88:	0000410b 	.word	0x0000410b
  8c:	0000410b 	.word	0x0000410b
  90:	0000410b 	.word	0x0000410b
  94:	0000410b 	.word	0x0000410b
  98:	0000410b 	.word	0x0000410b
  9c:	0000410b 	.word	0x0000410b
  a0:	0000410b 	.word	0x0000410b
  a4:	0000410b 	.word	0x0000410b
  a8:	0000410b 	.word	0x0000410b
  ac:	0000410b 	.word	0x0000410b
  b0:	0000410b 	.word	0x0000410b
  b4:	0000410b 	.word	0x0000410b
  b8:	0000410b 	.word	0x0000410b
  bc:	0000410b 	.word	0x0000410b

000000c0 <Reset_Handler>:
  c0:	4907      	ldr	r1, [pc, #28]	; (e0 <Reset_Handler+0x20>)
  c2:	4a08      	ldr	r2, [pc, #32]	; (e4 <Reset_Handler+0x24>)
  c4:	4b08      	ldr	r3, [pc, #32]	; (e8 <Reset_Handler+0x28>)
  c6:	1a9b      	subs	r3, r3, r2
  c8:	dd05      	ble.n	d6 <Reset_Handler+0x16>
  ca:	2400      	movs	r4, #0
  cc:	5908      	ldr	r0, [r1, r4]
  ce:	5110      	str	r0, [r2, r4]
  d0:	3404      	adds	r4, #4
  d2:	429c      	cmp	r4, r3
  d4:	dbfa      	blt.n	cc <Reset_Handler+0xc>
  d6:	4805      	ldr	r0, [pc, #20]	; (ec <Reset_Handler+0x2c>)
  d8:	4780      	blx	r0
  da:	4805      	ldr	r0, [pc, #20]	; (f0 <Reset_Handler+0x30>)
  dc:	4700      	bx	r0
  de:	0000      	.short	0x0000
  e0:	00007b58 	.word	0x00007b58
  e4:	1ffff0c0 	.word	0x1ffff0c0
  e8:	1ffff158 	.word	0x1ffff158
  ec:	000039c5 	.word	0x000039c5
  f0:	0000125d 	.word	0x0000125d

Disassembly of section .text:

00000410 <__do_global_dtors_aux>:
     410:	b510      	push	{r4, lr}
     412:	4c06      	ldr	r4, [pc, #24]	; (42c <__do_global_dtors_aux+0x1c>)
     414:	7823      	ldrb	r3, [r4, #0]
     416:	2b00      	cmp	r3, #0
     418:	d107      	bne.n	42a <__do_global_dtors_aux+0x1a>
     41a:	4b05      	ldr	r3, [pc, #20]	; (430 <__do_global_dtors_aux+0x20>)
     41c:	2b00      	cmp	r3, #0
     41e:	d002      	beq.n	426 <__do_global_dtors_aux+0x16>
     420:	4804      	ldr	r0, [pc, #16]	; (434 <__do_global_dtors_aux+0x24>)
     422:	e000      	b.n	426 <__do_global_dtors_aux+0x16>
     424:	bf00      	nop
     426:	2301      	movs	r3, #1
     428:	7023      	strb	r3, [r4, #0]
     42a:	bd10      	pop	{r4, pc}
     42c:	1ffff158 	.word	0x1ffff158
     430:	00000000 	.word	0x00000000
     434:	00007b4c 	.word	0x00007b4c

00000438 <frame_dummy>:
     438:	4b08      	ldr	r3, [pc, #32]	; (45c <frame_dummy+0x24>)
     43a:	b510      	push	{r4, lr}
     43c:	2b00      	cmp	r3, #0
     43e:	d003      	beq.n	448 <frame_dummy+0x10>
     440:	4907      	ldr	r1, [pc, #28]	; (460 <frame_dummy+0x28>)
     442:	4808      	ldr	r0, [pc, #32]	; (464 <frame_dummy+0x2c>)
     444:	e000      	b.n	448 <frame_dummy+0x10>
     446:	bf00      	nop
     448:	4807      	ldr	r0, [pc, #28]	; (468 <frame_dummy+0x30>)
     44a:	6803      	ldr	r3, [r0, #0]
     44c:	2b00      	cmp	r3, #0
     44e:	d100      	bne.n	452 <frame_dummy+0x1a>
     450:	bd10      	pop	{r4, pc}
     452:	4b06      	ldr	r3, [pc, #24]	; (46c <frame_dummy+0x34>)
     454:	2b00      	cmp	r3, #0
     456:	d0fb      	beq.n	450 <frame_dummy+0x18>
     458:	4798      	blx	r3
     45a:	e7f9      	b.n	450 <frame_dummy+0x18>
     45c:	00000000 	.word	0x00000000
     460:	1ffff15c 	.word	0x1ffff15c
     464:	00007b4c 	.word	0x00007b4c
     468:	1ffff158 	.word	0x1ffff158
     46c:	00000000 	.word	0x00000000

00000470 <std_msgs::Time::serialize(unsigned char*) const>:
     470:	7903      	ldrb	r3, [r0, #4]
     472:	700b      	strb	r3, [r1, #0]
     474:	6843      	ldr	r3, [r0, #4]
     476:	0a1b      	lsrs	r3, r3, #8
     478:	704b      	strb	r3, [r1, #1]
     47a:	6843      	ldr	r3, [r0, #4]
     47c:	0c1b      	lsrs	r3, r3, #16
     47e:	708b      	strb	r3, [r1, #2]
     480:	6843      	ldr	r3, [r0, #4]
     482:	0e1b      	lsrs	r3, r3, #24
     484:	70cb      	strb	r3, [r1, #3]
     486:	7a03      	ldrb	r3, [r0, #8]
     488:	710b      	strb	r3, [r1, #4]
     48a:	6883      	ldr	r3, [r0, #8]
     48c:	0a1b      	lsrs	r3, r3, #8
     48e:	714b      	strb	r3, [r1, #5]
     490:	6883      	ldr	r3, [r0, #8]
     492:	0c1b      	lsrs	r3, r3, #16
     494:	718b      	strb	r3, [r1, #6]
     496:	6883      	ldr	r3, [r0, #8]
     498:	2008      	movs	r0, #8
     49a:	0e1b      	lsrs	r3, r3, #24
     49c:	71cb      	strb	r3, [r1, #7]
     49e:	4770      	bx	lr

000004a0 <std_msgs::Time::deserialize(unsigned char*)>:
     4a0:	780a      	ldrb	r2, [r1, #0]
     4a2:	6042      	str	r2, [r0, #4]
     4a4:	784b      	ldrb	r3, [r1, #1]
     4a6:	021b      	lsls	r3, r3, #8
     4a8:	431a      	orrs	r2, r3
     4aa:	6042      	str	r2, [r0, #4]
     4ac:	788b      	ldrb	r3, [r1, #2]
     4ae:	041b      	lsls	r3, r3, #16
     4b0:	4313      	orrs	r3, r2
     4b2:	6043      	str	r3, [r0, #4]
     4b4:	78ca      	ldrb	r2, [r1, #3]
     4b6:	0612      	lsls	r2, r2, #24
     4b8:	4313      	orrs	r3, r2
     4ba:	6043      	str	r3, [r0, #4]
     4bc:	790a      	ldrb	r2, [r1, #4]
     4be:	6082      	str	r2, [r0, #8]
     4c0:	794b      	ldrb	r3, [r1, #5]
     4c2:	021b      	lsls	r3, r3, #8
     4c4:	431a      	orrs	r2, r3
     4c6:	6082      	str	r2, [r0, #8]
     4c8:	798b      	ldrb	r3, [r1, #6]
     4ca:	041b      	lsls	r3, r3, #16
     4cc:	4313      	orrs	r3, r2
     4ce:	6083      	str	r3, [r0, #8]
     4d0:	79ca      	ldrb	r2, [r1, #7]
     4d2:	0612      	lsls	r2, r2, #24
     4d4:	4313      	orrs	r3, r2
     4d6:	6083      	str	r3, [r0, #8]
     4d8:	2008      	movs	r0, #8
     4da:	4770      	bx	lr

000004dc <std_msgs::Time::getType()>:
     4dc:	4800      	ldr	r0, [pc, #0]	; (4e0 <std_msgs::Time::getType()+0x4>)
     4de:	4770      	bx	lr
     4e0:	000074f8 	.word	0x000074f8

000004e4 <std_msgs::Time::getMD5()>:
     4e4:	4800      	ldr	r0, [pc, #0]	; (4e8 <std_msgs::Time::getMD5()+0x4>)
     4e6:	4770      	bx	lr
     4e8:	000074d7 	.word	0x000074d7

000004ec <rosserial_msgs::TopicInfo::getType()>:
     4ec:	4800      	ldr	r0, [pc, #0]	; (4f0 <rosserial_msgs::TopicInfo::getType()+0x4>)
     4ee:	4770      	bx	lr
     4f0:	00007469 	.word	0x00007469

000004f4 <rosserial_msgs::TopicInfo::getMD5()>:
     4f4:	4800      	ldr	r0, [pc, #0]	; (4f8 <rosserial_msgs::TopicInfo::getMD5()+0x4>)
     4f6:	4770      	bx	lr
     4f8:	00007448 	.word	0x00007448

000004fc <rosserial_msgs::Log::getType()>:
     4fc:	4800      	ldr	r0, [pc, #0]	; (500 <rosserial_msgs::Log::getType()+0x4>)
     4fe:	4770      	bx	lr
     500:	00007435 	.word	0x00007435

00000504 <rosserial_msgs::Log::getMD5()>:
     504:	4800      	ldr	r0, [pc, #0]	; (508 <rosserial_msgs::Log::getMD5()+0x4>)
     506:	4770      	bx	lr
     508:	00007414 	.word	0x00007414

0000050c <rosserial_msgs::RequestParamResponse::getType()>:
     50c:	4800      	ldr	r0, [pc, #0]	; (510 <rosserial_msgs::RequestParamResponse::getType()+0x4>)
     50e:	4770      	bx	lr
     510:	00007482 	.word	0x00007482

00000514 <rosserial_msgs::RequestParamResponse::getMD5()>:
     514:	4800      	ldr	r0, [pc, #0]	; (518 <rosserial_msgs::RequestParamResponse::getMD5()+0x4>)
     516:	4770      	bx	lr
     518:	000073f3 	.word	0x000073f3

0000051c <std_msgs::UInt16::serialize(unsigned char*) const>:
     51c:	8883      	ldrh	r3, [r0, #4]
     51e:	700b      	strb	r3, [r1, #0]
     520:	8883      	ldrh	r3, [r0, #4]
     522:	2002      	movs	r0, #2
     524:	0a1b      	lsrs	r3, r3, #8
     526:	704b      	strb	r3, [r1, #1]
     528:	4770      	bx	lr

0000052a <std_msgs::UInt16::deserialize(unsigned char*)>:
     52a:	780b      	ldrb	r3, [r1, #0]
     52c:	8083      	strh	r3, [r0, #4]
     52e:	784a      	ldrb	r2, [r1, #1]
     530:	0212      	lsls	r2, r2, #8
     532:	4313      	orrs	r3, r2
     534:	8083      	strh	r3, [r0, #4]
     536:	2002      	movs	r0, #2
     538:	4770      	bx	lr
	...

0000053c <std_msgs::UInt16::getType()>:
     53c:	4800      	ldr	r0, [pc, #0]	; (540 <std_msgs::UInt16::getType()+0x4>)
     53e:	4770      	bx	lr
     540:	00007527 	.word	0x00007527

00000544 <std_msgs::UInt16::getMD5()>:
     544:	4800      	ldr	r0, [pc, #0]	; (548 <std_msgs::UInt16::getMD5()+0x4>)
     546:	4770      	bx	lr
     548:	00007506 	.word	0x00007506

0000054c <ros::Subscriber<std_msgs::UInt16, void>::callback(unsigned char*)>:
     54c:	b570      	push	{r4, r5, r6, lr}
     54e:	0004      	movs	r4, r0
     550:	0005      	movs	r5, r0
     552:	340c      	adds	r4, #12
     554:	0020      	movs	r0, r4
     556:	f7ff ffe8 	bl	52a <std_msgs::UInt16::deserialize(unsigned char*)>
     55a:	696b      	ldr	r3, [r5, #20]
     55c:	0020      	movs	r0, r4
     55e:	4798      	blx	r3
     560:	bd70      	pop	{r4, r5, r6, pc}

00000562 <ros::Subscriber<std_msgs::UInt16, void>::getEndpointType()>:
     562:	6980      	ldr	r0, [r0, #24]
     564:	4770      	bx	lr
	...

00000568 <ros::Subscriber<std_msgs::UInt16, void>::getMsgType()>:
     568:	4800      	ldr	r0, [pc, #0]	; (56c <ros::Subscriber<std_msgs::UInt16, void>::getMsgType()+0x4>)
     56a:	4770      	bx	lr
     56c:	00007527 	.word	0x00007527

00000570 <ros::Subscriber<std_msgs::UInt16, void>::getMsgMD5()>:
     570:	4800      	ldr	r0, [pc, #0]	; (574 <ros::Subscriber<std_msgs::UInt16, void>::getMsgMD5()+0x4>)
     572:	4770      	bx	lr
     574:	00007506 	.word	0x00007506

00000578 <ros::NodeHandle_<MbedHardware, 25, 25, 512, 512>::connected()>:
     578:	4b01      	ldr	r3, [pc, #4]	; (580 <ros::NodeHandle_<MbedHardware, 25, 25, 512, 512>::connected()+0x8>)
     57a:	5cc0      	ldrb	r0, [r0, r3]
     57c:	4770      	bx	lr
     57e:	46c0      	nop			; (mov r8, r8)
     580:	0000055c 	.word	0x0000055c

00000584 <pump_cb(std_msgs::UInt16 const&)>:
     584:	b510      	push	{r4, lr}
     586:	8880      	ldrh	r0, [r0, #4]
     588:	f004 fe36 	bl	51f8 <__aeabi_ui2f>
     58c:	1c01      	adds	r1, r0, #0
     58e:	4807      	ldr	r0, [pc, #28]	; (5ac <pump_cb(std_msgs::UInt16 const&)+0x28>)
     590:	f000 fe2c 	bl	11ec <Servo::position(float)>
     594:	4b06      	ldr	r3, [pc, #24]	; (5b0 <pump_cb(std_msgs::UInt16 const&)+0x2c>)
     596:	695a      	ldr	r2, [r3, #20]
     598:	6811      	ldr	r1, [r2, #0]
     59a:	685a      	ldr	r2, [r3, #4]
     59c:	420a      	tst	r2, r1
     59e:	d102      	bne.n	5a6 <pump_cb(std_msgs::UInt16 const&)+0x22>
     5a0:	68db      	ldr	r3, [r3, #12]
     5a2:	601a      	str	r2, [r3, #0]
     5a4:	bd10      	pop	{r4, pc}
     5a6:	691b      	ldr	r3, [r3, #16]
     5a8:	e7fb      	b.n	5a2 <pump_cb(std_msgs::UInt16 const&)+0x1e>
     5aa:	46c0      	nop			; (mov r8, r8)
     5ac:	1ffff70c 	.word	0x1ffff70c
     5b0:	1ffff724 	.word	0x1ffff724

000005b4 <valve_cb(std_msgs::UInt16 const&)>:
     5b4:	b510      	push	{r4, lr}
     5b6:	8880      	ldrh	r0, [r0, #4]
     5b8:	f004 fe1e 	bl	51f8 <__aeabi_ui2f>
     5bc:	1c01      	adds	r1, r0, #0
     5be:	4807      	ldr	r0, [pc, #28]	; (5dc <valve_cb(std_msgs::UInt16 const&)+0x28>)
     5c0:	f000 fe14 	bl	11ec <Servo::position(float)>
     5c4:	4b06      	ldr	r3, [pc, #24]	; (5e0 <valve_cb(std_msgs::UInt16 const&)+0x2c>)
     5c6:	695a      	ldr	r2, [r3, #20]
     5c8:	6811      	ldr	r1, [r2, #0]
     5ca:	685a      	ldr	r2, [r3, #4]
     5cc:	420a      	tst	r2, r1
     5ce:	d102      	bne.n	5d6 <valve_cb(std_msgs::UInt16 const&)+0x22>
     5d0:	68db      	ldr	r3, [r3, #12]
     5d2:	601a      	str	r2, [r3, #0]
     5d4:	bd10      	pop	{r4, pc}
     5d6:	691b      	ldr	r3, [r3, #16]
     5d8:	e7fb      	b.n	5d2 <valve_cb(std_msgs::UInt16 const&)+0x1e>
     5da:	46c0      	nop			; (mov r8, r8)
     5dc:	1ffff758 	.word	0x1ffff758
     5e0:	1ffff770 	.word	0x1ffff770

000005e4 <void ros::Msg::varToArr<unsigned char*, unsigned long>(unsigned char*, unsigned long)>:
     5e4:	2300      	movs	r3, #0
     5e6:	b510      	push	{r4, lr}
     5e8:	000c      	movs	r4, r1
     5ea:	00da      	lsls	r2, r3, #3
     5ec:	40d4      	lsrs	r4, r2
     5ee:	54c4      	strb	r4, [r0, r3]
     5f0:	3301      	adds	r3, #1
     5f2:	2b04      	cmp	r3, #4
     5f4:	d1f8      	bne.n	5e8 <void ros::Msg::varToArr<unsigned char*, unsigned long>(unsigned char*, unsigned long)+0x4>
     5f6:	bd10      	pop	{r4, pc}

000005f8 <rosserial_msgs::RequestParamResponse::serialize(unsigned char*) const>:
     5f8:	7903      	ldrb	r3, [r0, #4]
     5fa:	b5f7      	push	{r0, r1, r2, r4, r5, r6, r7, lr}
     5fc:	700b      	strb	r3, [r1, #0]
     5fe:	6843      	ldr	r3, [r0, #4]
     600:	000d      	movs	r5, r1
     602:	0a1b      	lsrs	r3, r3, #8
     604:	704b      	strb	r3, [r1, #1]
     606:	6843      	ldr	r3, [r0, #4]
     608:	1d0a      	adds	r2, r1, #4
     60a:	0c1b      	lsrs	r3, r3, #16
     60c:	708b      	strb	r3, [r1, #2]
     60e:	6843      	ldr	r3, [r0, #4]
     610:	0004      	movs	r4, r0
     612:	0e1b      	lsrs	r3, r3, #24
     614:	70cb      	strb	r3, [r1, #3]
     616:	2100      	movs	r1, #0
     618:	6860      	ldr	r0, [r4, #4]
     61a:	1b53      	subs	r3, r2, r5
     61c:	4281      	cmp	r1, r0
     61e:	d20c      	bcs.n	63a <rosserial_msgs::RequestParamResponse::serialize(unsigned char*) const+0x42>
     620:	68e0      	ldr	r0, [r4, #12]
     622:	008b      	lsls	r3, r1, #2
     624:	581b      	ldr	r3, [r3, r0]
     626:	3101      	adds	r1, #1
     628:	0a18      	lsrs	r0, r3, #8
     62a:	7013      	strb	r3, [r2, #0]
     62c:	7050      	strb	r0, [r2, #1]
     62e:	0c18      	lsrs	r0, r3, #16
     630:	0e1b      	lsrs	r3, r3, #24
     632:	7090      	strb	r0, [r2, #2]
     634:	70d3      	strb	r3, [r2, #3]
     636:	3204      	adds	r2, #4
     638:	e7ee      	b.n	618 <rosserial_msgs::RequestParamResponse::serialize(unsigned char*) const+0x20>
     63a:	7c22      	ldrb	r2, [r4, #16]
     63c:	54ea      	strb	r2, [r5, r3]
     63e:	6921      	ldr	r1, [r4, #16]
     640:	18ea      	adds	r2, r5, r3
     642:	0a09      	lsrs	r1, r1, #8
     644:	7051      	strb	r1, [r2, #1]
     646:	6921      	ldr	r1, [r4, #16]
     648:	3304      	adds	r3, #4
     64a:	0c09      	lsrs	r1, r1, #16
     64c:	7091      	strb	r1, [r2, #2]
     64e:	6921      	ldr	r1, [r4, #16]
     650:	18eb      	adds	r3, r5, r3
     652:	0e09      	lsrs	r1, r1, #24
     654:	70d1      	strb	r1, [r2, #3]
     656:	2100      	movs	r1, #0
     658:	6922      	ldr	r2, [r4, #16]
     65a:	1b5e      	subs	r6, r3, r5
     65c:	4291      	cmp	r1, r2
     65e:	d20c      	bcs.n	67a <rosserial_msgs::RequestParamResponse::serialize(unsigned char*) const+0x82>
     660:	69a0      	ldr	r0, [r4, #24]
     662:	008a      	lsls	r2, r1, #2
     664:	5812      	ldr	r2, [r2, r0]
     666:	3101      	adds	r1, #1
     668:	0a10      	lsrs	r0, r2, #8
     66a:	701a      	strb	r2, [r3, #0]
     66c:	7058      	strb	r0, [r3, #1]
     66e:	0c10      	lsrs	r0, r2, #16
     670:	0e12      	lsrs	r2, r2, #24
     672:	7098      	strb	r0, [r3, #2]
     674:	70da      	strb	r2, [r3, #3]
     676:	3304      	adds	r3, #4
     678:	e7ee      	b.n	658 <rosserial_msgs::RequestParamResponse::serialize(unsigned char*) const+0x60>
     67a:	2700      	movs	r7, #0
     67c:	7f23      	ldrb	r3, [r4, #28]
     67e:	55ab      	strb	r3, [r5, r6]
     680:	69e2      	ldr	r2, [r4, #28]
     682:	19ab      	adds	r3, r5, r6
     684:	0a12      	lsrs	r2, r2, #8
     686:	705a      	strb	r2, [r3, #1]
     688:	69e2      	ldr	r2, [r4, #28]
     68a:	3604      	adds	r6, #4
     68c:	0c12      	lsrs	r2, r2, #16
     68e:	709a      	strb	r2, [r3, #2]
     690:	69e2      	ldr	r2, [r4, #28]
     692:	0e12      	lsrs	r2, r2, #24
     694:	70da      	strb	r2, [r3, #3]
     696:	69e3      	ldr	r3, [r4, #28]
     698:	429f      	cmp	r7, r3
     69a:	d215      	bcs.n	6c8 <rosserial_msgs::RequestParamResponse::serialize(unsigned char*) const+0xd0>
     69c:	6a63      	ldr	r3, [r4, #36]	; 0x24
     69e:	00ba      	lsls	r2, r7, #2
     6a0:	5898      	ldr	r0, [r3, r2]
     6a2:	f006 fc5b 	bl	6f5c <strlen>
     6a6:	9001      	str	r0, [sp, #4]
     6a8:	9901      	ldr	r1, [sp, #4]
     6aa:	19a8      	adds	r0, r5, r6
     6ac:	f7ff ff9a 	bl	5e4 <void ros::Msg::varToArr<unsigned char*, unsigned long>(unsigned char*, unsigned long)>
     6b0:	6a63      	ldr	r3, [r4, #36]	; 0x24
     6b2:	00ba      	lsls	r2, r7, #2
     6b4:	3604      	adds	r6, #4
     6b6:	5899      	ldr	r1, [r3, r2]
     6b8:	19a8      	adds	r0, r5, r6
     6ba:	9a01      	ldr	r2, [sp, #4]
     6bc:	f006 f96d 	bl	699a <memcpy>
     6c0:	9b01      	ldr	r3, [sp, #4]
     6c2:	3701      	adds	r7, #1
     6c4:	199e      	adds	r6, r3, r6
     6c6:	e7e6      	b.n	696 <rosserial_msgs::RequestParamResponse::serialize(unsigned char*) const+0x9e>
     6c8:	0030      	movs	r0, r6
     6ca:	bdfe      	pop	{r1, r2, r3, r4, r5, r6, r7, pc}

000006cc <rosserial_msgs::Log::serialize(unsigned char*) const>:
     6cc:	b570      	push	{r4, r5, r6, lr}
     6ce:	7903      	ldrb	r3, [r0, #4]
     6d0:	0006      	movs	r6, r0
     6d2:	700b      	strb	r3, [r1, #0]
     6d4:	6880      	ldr	r0, [r0, #8]
     6d6:	000d      	movs	r5, r1
     6d8:	f006 fc40 	bl	6f5c <strlen>
     6dc:	0004      	movs	r4, r0
     6de:	1c68      	adds	r0, r5, #1
     6e0:	0021      	movs	r1, r4
     6e2:	f7ff ff7f 	bl	5e4 <void ros::Msg::varToArr<unsigned char*, unsigned long>(unsigned char*, unsigned long)>
     6e6:	1d68      	adds	r0, r5, #5
     6e8:	68b1      	ldr	r1, [r6, #8]
     6ea:	0022      	movs	r2, r4
     6ec:	f006 f955 	bl	699a <memcpy>
     6f0:	1d60      	adds	r0, r4, #5
     6f2:	bd70      	pop	{r4, r5, r6, pc}

000006f4 <rosserial_msgs::TopicInfo::serialize(unsigned char*) const>:
     6f4:	b5f8      	push	{r3, r4, r5, r6, r7, lr}
     6f6:	8883      	ldrh	r3, [r0, #4]
     6f8:	0006      	movs	r6, r0
     6fa:	700b      	strb	r3, [r1, #0]
     6fc:	8883      	ldrh	r3, [r0, #4]
     6fe:	000c      	movs	r4, r1
     700:	0a1b      	lsrs	r3, r3, #8
     702:	704b      	strb	r3, [r1, #1]
     704:	6880      	ldr	r0, [r0, #8]
     706:	f006 fc29 	bl	6f5c <strlen>
     70a:	0005      	movs	r5, r0
     70c:	1ca0      	adds	r0, r4, #2
     70e:	0029      	movs	r1, r5
     710:	f7ff ff68 	bl	5e4 <void ros::Msg::varToArr<unsigned char*, unsigned long>(unsigned char*, unsigned long)>
     714:	002a      	movs	r2, r5
     716:	68b1      	ldr	r1, [r6, #8]
     718:	1da0      	adds	r0, r4, #6
     71a:	f006 f93e 	bl	699a <memcpy>
     71e:	68f0      	ldr	r0, [r6, #12]
     720:	f006 fc1c 	bl	6f5c <strlen>
     724:	0007      	movs	r7, r0
     726:	1dab      	adds	r3, r5, #6
     728:	18e0      	adds	r0, r4, r3
     72a:	0039      	movs	r1, r7
     72c:	350a      	adds	r5, #10
     72e:	f7ff ff59 	bl	5e4 <void ros::Msg::varToArr<unsigned char*, unsigned long>(unsigned char*, unsigned long)>
     732:	003a      	movs	r2, r7
     734:	68f1      	ldr	r1, [r6, #12]
     736:	1960      	adds	r0, r4, r5
     738:	f006 f92f 	bl	699a <memcpy>
     73c:	6930      	ldr	r0, [r6, #16]
     73e:	f006 fc0d 	bl	6f5c <strlen>
     742:	197d      	adds	r5, r7, r5
     744:	0007      	movs	r7, r0
     746:	1960      	adds	r0, r4, r5
     748:	0039      	movs	r1, r7
     74a:	3504      	adds	r5, #4
     74c:	f7ff ff4a 	bl	5e4 <void ros::Msg::varToArr<unsigned char*, unsigned long>(unsigned char*, unsigned long)>
     750:	1960      	adds	r0, r4, r5
     752:	003a      	movs	r2, r7
     754:	6931      	ldr	r1, [r6, #16]
     756:	f006 f920 	bl	699a <memcpy>
     75a:	6973      	ldr	r3, [r6, #20]
     75c:	197f      	adds	r7, r7, r5
     75e:	55e3      	strb	r3, [r4, r7]
     760:	0a1a      	lsrs	r2, r3, #8
     762:	19e4      	adds	r4, r4, r7
     764:	7062      	strb	r2, [r4, #1]
     766:	0c1a      	lsrs	r2, r3, #16
     768:	0e1b      	lsrs	r3, r3, #24
     76a:	1d38      	adds	r0, r7, #4
     76c:	70a2      	strb	r2, [r4, #2]
     76e:	70e3      	strb	r3, [r4, #3]
     770:	bdf8      	pop	{r3, r4, r5, r6, r7, pc}

00000772 <void ros::Msg::arrToVar<unsigned long, unsigned char*>(unsigned long&, unsigned char*)>:
     772:	2300      	movs	r3, #0
     774:	b510      	push	{r4, lr}
     776:	6003      	str	r3, [r0, #0]
     778:	5cca      	ldrb	r2, [r1, r3]
     77a:	00dc      	lsls	r4, r3, #3
     77c:	40a2      	lsls	r2, r4
     77e:	6804      	ldr	r4, [r0, #0]
     780:	3301      	adds	r3, #1
     782:	4322      	orrs	r2, r4
     784:	6002      	str	r2, [r0, #0]
     786:	2b04      	cmp	r3, #4
     788:	d1f6      	bne.n	778 <void ros::Msg::arrToVar<unsigned long, unsigned char*>(unsigned long&, unsigned char*)+0x6>
     78a:	bd10      	pop	{r4, pc}

0000078c <rosserial_msgs::Log::deserialize(unsigned char*)>:
     78c:	b5f7      	push	{r0, r1, r2, r4, r5, r6, r7, lr}
     78e:	000c      	movs	r4, r1
     790:	780b      	ldrb	r3, [r1, #0]
     792:	0005      	movs	r5, r0
     794:	7103      	strb	r3, [r0, #4]
     796:	3101      	adds	r1, #1
     798:	a801      	add	r0, sp, #4
     79a:	f7ff ffea 	bl	772 <void ros::Msg::arrToVar<unsigned long, unsigned char*>(unsigned long&, unsigned char*)>
     79e:	1d22      	adds	r2, r4, #4
     7a0:	0013      	movs	r3, r2
     7a2:	9901      	ldr	r1, [sp, #4]
     7a4:	1d48      	adds	r0, r1, #5
     7a6:	3301      	adds	r3, #1
     7a8:	1b1e      	subs	r6, r3, r4
     7aa:	42b0      	cmp	r0, r6
     7ac:	d903      	bls.n	7b6 <rosserial_msgs::Log::deserialize(unsigned char*)+0x2a>
     7ae:	781f      	ldrb	r7, [r3, #0]
     7b0:	1e5e      	subs	r6, r3, #1
     7b2:	7037      	strb	r7, [r6, #0]
     7b4:	e7f7      	b.n	7a6 <rosserial_msgs::Log::deserialize(unsigned char*)+0x1a>
     7b6:	2300      	movs	r3, #0
     7b8:	1864      	adds	r4, r4, r1
     7ba:	7123      	strb	r3, [r4, #4]
     7bc:	60aa      	str	r2, [r5, #8]
     7be:	bdfe      	pop	{r1, r2, r3, r4, r5, r6, r7, pc}

000007c0 <rosserial_msgs::TopicInfo::deserialize(unsigned char*)>:
     7c0:	b5f0      	push	{r4, r5, r6, r7, lr}
     7c2:	000c      	movs	r4, r1
     7c4:	780b      	ldrb	r3, [r1, #0]
     7c6:	b085      	sub	sp, #20
     7c8:	8083      	strh	r3, [r0, #4]
     7ca:	784a      	ldrb	r2, [r1, #1]
     7cc:	0006      	movs	r6, r0
     7ce:	0212      	lsls	r2, r2, #8
     7d0:	4313      	orrs	r3, r2
     7d2:	8083      	strh	r3, [r0, #4]
     7d4:	3102      	adds	r1, #2
     7d6:	a801      	add	r0, sp, #4
     7d8:	f7ff ffcb 	bl	772 <void ros::Msg::arrToVar<unsigned long, unsigned char*>(unsigned long&, unsigned char*)>
     7dc:	1d61      	adds	r1, r4, #5
     7de:	000b      	movs	r3, r1
     7e0:	9a01      	ldr	r2, [sp, #4]
     7e2:	1d95      	adds	r5, r2, #6
     7e4:	3301      	adds	r3, #1
     7e6:	1b18      	subs	r0, r3, r4
     7e8:	4285      	cmp	r5, r0
     7ea:	d903      	bls.n	7f4 <rosserial_msgs::TopicInfo::deserialize(unsigned char*)+0x34>
     7ec:	781f      	ldrb	r7, [r3, #0]
     7ee:	1e58      	subs	r0, r3, #1
     7f0:	7007      	strb	r7, [r0, #0]
     7f2:	e7f7      	b.n	7e4 <rosserial_msgs::TopicInfo::deserialize(unsigned char*)+0x24>
     7f4:	2300      	movs	r3, #0
     7f6:	18a2      	adds	r2, r4, r2
     7f8:	7153      	strb	r3, [r2, #5]
     7fa:	a802      	add	r0, sp, #8
     7fc:	60b1      	str	r1, [r6, #8]
     7fe:	1961      	adds	r1, r4, r5
     800:	f7ff ffb7 	bl	772 <void ros::Msg::arrToVar<unsigned long, unsigned char*>(unsigned long&, unsigned char*)>
     804:	9a02      	ldr	r2, [sp, #8]
     806:	1d2b      	adds	r3, r5, #4
     808:	189d      	adds	r5, r3, r2
     80a:	001a      	movs	r2, r3
     80c:	42aa      	cmp	r2, r5
     80e:	d204      	bcs.n	81a <rosserial_msgs::TopicInfo::deserialize(unsigned char*)+0x5a>
     810:	5ca0      	ldrb	r0, [r4, r2]
     812:	1e51      	subs	r1, r2, #1
     814:	5460      	strb	r0, [r4, r1]
     816:	3201      	adds	r2, #1
     818:	e7f8      	b.n	80c <rosserial_msgs::TopicInfo::deserialize(unsigned char*)+0x4c>
     81a:	2000      	movs	r0, #0
     81c:	1961      	adds	r1, r4, r5
     81e:	3b01      	subs	r3, #1
     820:	18e3      	adds	r3, r4, r3
     822:	1e4a      	subs	r2, r1, #1
     824:	7010      	strb	r0, [r2, #0]
     826:	60f3      	str	r3, [r6, #12]
     828:	a803      	add	r0, sp, #12
     82a:	f7ff ffa2 	bl	772 <void ros::Msg::arrToVar<unsigned long, unsigned char*>(unsigned long&, unsigned char*)>
     82e:	9b03      	ldr	r3, [sp, #12]
     830:	3504      	adds	r5, #4
     832:	18e8      	adds	r0, r5, r3
     834:	002b      	movs	r3, r5
     836:	4283      	cmp	r3, r0
     838:	d204      	bcs.n	844 <rosserial_msgs::TopicInfo::deserialize(unsigned char*)+0x84>
     83a:	5ce1      	ldrb	r1, [r4, r3]
     83c:	1e5a      	subs	r2, r3, #1
     83e:	54a1      	strb	r1, [r4, r2]
     840:	3301      	adds	r3, #1
     842:	e7f8      	b.n	836 <rosserial_msgs::TopicInfo::deserialize(unsigned char*)+0x76>
     844:	2100      	movs	r1, #0
     846:	1822      	adds	r2, r4, r0
     848:	3d01      	subs	r5, #1
     84a:	1e53      	subs	r3, r2, #1
     84c:	1965      	adds	r5, r4, r5
     84e:	7019      	strb	r1, [r3, #0]
     850:	6135      	str	r5, [r6, #16]
     852:	7853      	ldrb	r3, [r2, #1]
     854:	7891      	ldrb	r1, [r2, #2]
     856:	021b      	lsls	r3, r3, #8
     858:	0409      	lsls	r1, r1, #16
     85a:	78d2      	ldrb	r2, [r2, #3]
     85c:	430b      	orrs	r3, r1
     85e:	5c21      	ldrb	r1, [r4, r0]
     860:	0612      	lsls	r2, r2, #24
     862:	430b      	orrs	r3, r1
     864:	4313      	orrs	r3, r2
     866:	3004      	adds	r0, #4
     868:	6173      	str	r3, [r6, #20]
     86a:	b005      	add	sp, #20
     86c:	bdf0      	pop	{r4, r5, r6, r7, pc}

0000086e <rosserial_msgs::RequestParamResponse::deserialize(unsigned char*)>:
     86e:	b5f7      	push	{r0, r1, r2, r4, r5, r6, r7, lr}
     870:	784b      	ldrb	r3, [r1, #1]
     872:	780e      	ldrb	r6, [r1, #0]
     874:	021b      	lsls	r3, r3, #8
     876:	4333      	orrs	r3, r6
     878:	788e      	ldrb	r6, [r1, #2]
     87a:	0004      	movs	r4, r0
     87c:	0436      	lsls	r6, r6, #16
     87e:	4333      	orrs	r3, r6
     880:	78ce      	ldrb	r6, [r1, #3]
     882:	000d      	movs	r5, r1
     884:	0636      	lsls	r6, r6, #24
     886:	431e      	orrs	r6, r3
     888:	6843      	ldr	r3, [r0, #4]
     88a:	429e      	cmp	r6, r3
     88c:	d904      	bls.n	898 <rosserial_msgs::RequestParamResponse::deserialize(unsigned char*)+0x2a>
     88e:	00b1      	lsls	r1, r6, #2
     890:	68c0      	ldr	r0, [r0, #12]
     892:	f006 fafb 	bl	6e8c <realloc>
     896:	60e0      	str	r0, [r4, #12]
     898:	2300      	movs	r3, #0
     89a:	6066      	str	r6, [r4, #4]
     89c:	1d2f      	adds	r7, r5, #4
     89e:	6862      	ldr	r2, [r4, #4]
     8a0:	1c5e      	adds	r6, r3, #1
     8a2:	00b0      	lsls	r0, r6, #2
     8a4:	4293      	cmp	r3, r2
     8a6:	d215      	bcs.n	8d4 <rosserial_msgs::RequestParamResponse::deserialize(unsigned char*)+0x66>
     8a8:	0021      	movs	r1, r4
     8aa:	787b      	ldrb	r3, [r7, #1]
     8ac:	78ba      	ldrb	r2, [r7, #2]
     8ae:	021b      	lsls	r3, r3, #8
     8b0:	0412      	lsls	r2, r2, #16
     8b2:	4313      	orrs	r3, r2
     8b4:	783a      	ldrb	r2, [r7, #0]
     8b6:	3804      	subs	r0, #4
     8b8:	4313      	orrs	r3, r2
     8ba:	78fa      	ldrb	r2, [r7, #3]
     8bc:	3108      	adds	r1, #8
     8be:	0612      	lsls	r2, r2, #24
     8c0:	4313      	orrs	r3, r2
     8c2:	60a3      	str	r3, [r4, #8]
     8c4:	68e3      	ldr	r3, [r4, #12]
     8c6:	2204      	movs	r2, #4
     8c8:	1818      	adds	r0, r3, r0
     8ca:	f006 f866 	bl	699a <memcpy>
     8ce:	3704      	adds	r7, #4
     8d0:	0033      	movs	r3, r6
     8d2:	e7e4      	b.n	89e <rosserial_msgs::RequestParamResponse::deserialize(unsigned char*)+0x30>
     8d4:	182a      	adds	r2, r5, r0
     8d6:	7857      	ldrb	r7, [r2, #1]
     8d8:	7893      	ldrb	r3, [r2, #2]
     8da:	5c29      	ldrb	r1, [r5, r0]
     8dc:	041b      	lsls	r3, r3, #16
     8de:	023f      	lsls	r7, r7, #8
     8e0:	431f      	orrs	r7, r3
     8e2:	4339      	orrs	r1, r7
     8e4:	78d7      	ldrb	r7, [r2, #3]
     8e6:	6923      	ldr	r3, [r4, #16]
     8e8:	063f      	lsls	r7, r7, #24
     8ea:	430f      	orrs	r7, r1
     8ec:	1d06      	adds	r6, r0, #4
     8ee:	429f      	cmp	r7, r3
     8f0:	d904      	bls.n	8fc <rosserial_msgs::RequestParamResponse::deserialize(unsigned char*)+0x8e>
     8f2:	00b9      	lsls	r1, r7, #2
     8f4:	69a0      	ldr	r0, [r4, #24]
     8f6:	f006 fac9 	bl	6e8c <realloc>
     8fa:	61a0      	str	r0, [r4, #24]
     8fc:	6127      	str	r7, [r4, #16]
     8fe:	2700      	movs	r7, #0
     900:	19ae      	adds	r6, r5, r6
     902:	6923      	ldr	r3, [r4, #16]
     904:	1b72      	subs	r2, r6, r5
     906:	429f      	cmp	r7, r3
     908:	d215      	bcs.n	936 <rosserial_msgs::RequestParamResponse::deserialize(unsigned char*)+0xc8>
     90a:	0021      	movs	r1, r4
     90c:	7873      	ldrb	r3, [r6, #1]
     90e:	78b2      	ldrb	r2, [r6, #2]
     910:	021b      	lsls	r3, r3, #8
     912:	0412      	lsls	r2, r2, #16
     914:	4313      	orrs	r3, r2
     916:	7832      	ldrb	r2, [r6, #0]
     918:	00b8      	lsls	r0, r7, #2
     91a:	4313      	orrs	r3, r2
     91c:	78f2      	ldrb	r2, [r6, #3]
     91e:	3114      	adds	r1, #20
     920:	0612      	lsls	r2, r2, #24
     922:	4313      	orrs	r3, r2
     924:	6163      	str	r3, [r4, #20]
     926:	69a3      	ldr	r3, [r4, #24]
     928:	2204      	movs	r2, #4
     92a:	1818      	adds	r0, r3, r0
     92c:	f006 f835 	bl	699a <memcpy>
     930:	3701      	adds	r7, #1
     932:	3604      	adds	r6, #4
     934:	e7e5      	b.n	902 <rosserial_msgs::RequestParamResponse::deserialize(unsigned char*)+0x94>
     936:	18a9      	adds	r1, r5, r2
     938:	784f      	ldrb	r7, [r1, #1]
     93a:	788b      	ldrb	r3, [r1, #2]
     93c:	5ca8      	ldrb	r0, [r5, r2]
     93e:	041b      	lsls	r3, r3, #16
     940:	023f      	lsls	r7, r7, #8
     942:	431f      	orrs	r7, r3
     944:	4338      	orrs	r0, r7
     946:	78cf      	ldrb	r7, [r1, #3]
     948:	69e3      	ldr	r3, [r4, #28]
     94a:	063f      	lsls	r7, r7, #24
     94c:	4307      	orrs	r7, r0
     94e:	1d16      	adds	r6, r2, #4
     950:	429f      	cmp	r7, r3
     952:	d904      	bls.n	95e <rosserial_msgs::RequestParamResponse::deserialize(unsigned char*)+0xf0>
     954:	00b9      	lsls	r1, r7, #2
     956:	6a60      	ldr	r0, [r4, #36]	; 0x24
     958:	f006 fa98 	bl	6e8c <realloc>
     95c:	6260      	str	r0, [r4, #36]	; 0x24
     95e:	61e7      	str	r7, [r4, #28]
     960:	2700      	movs	r7, #0
     962:	69e3      	ldr	r3, [r4, #28]
     964:	429f      	cmp	r7, r3
     966:	d21f      	bcs.n	9a8 <rosserial_msgs::RequestParamResponse::deserialize(unsigned char*)+0x13a>
     968:	19a9      	adds	r1, r5, r6
     96a:	a801      	add	r0, sp, #4
     96c:	f7ff ff01 	bl	772 <void ros::Msg::arrToVar<unsigned long, unsigned char*>(unsigned long&, unsigned char*)>
     970:	9a01      	ldr	r2, [sp, #4]
     972:	1d33      	adds	r3, r6, #4
     974:	189e      	adds	r6, r3, r2
     976:	001a      	movs	r2, r3
     978:	42b2      	cmp	r2, r6
     97a:	d204      	bcs.n	986 <rosserial_msgs::RequestParamResponse::deserialize(unsigned char*)+0x118>
     97c:	5ca8      	ldrb	r0, [r5, r2]
     97e:	1e51      	subs	r1, r2, #1
     980:	5468      	strb	r0, [r5, r1]
     982:	3201      	adds	r2, #1
     984:	e7f8      	b.n	978 <rosserial_msgs::RequestParamResponse::deserialize(unsigned char*)+0x10a>
     986:	2100      	movs	r1, #0
     988:	19aa      	adds	r2, r5, r6
     98a:	3a01      	subs	r2, #1
     98c:	7011      	strb	r1, [r2, #0]
     98e:	0021      	movs	r1, r4
     990:	3b01      	subs	r3, #1
     992:	18eb      	adds	r3, r5, r3
     994:	6223      	str	r3, [r4, #32]
     996:	6a63      	ldr	r3, [r4, #36]	; 0x24
     998:	00b8      	lsls	r0, r7, #2
     99a:	1818      	adds	r0, r3, r0
     99c:	2204      	movs	r2, #4
     99e:	3120      	adds	r1, #32
     9a0:	f005 fffb 	bl	699a <memcpy>
     9a4:	3701      	adds	r7, #1
     9a6:	e7dc      	b.n	962 <rosserial_msgs::RequestParamResponse::deserialize(unsigned char*)+0xf4>
     9a8:	0030      	movs	r0, r6
     9aa:	bdfe      	pop	{r1, r2, r3, r4, r5, r6, r7, pc}

000009ac <ros::NodeHandle_<MbedHardware, 25, 25, 512, 512>::requestSyncTime()>:
     9ac:	b51f      	push	{r0, r1, r2, r3, r4, lr}
     9ae:	4b08      	ldr	r3, [pc, #32]	; (9d0 <ros::NodeHandle_<MbedHardware, 25, 25, 512, 512>::requestSyncTime()+0x24>)
     9b0:	0004      	movs	r4, r0
     9b2:	9301      	str	r3, [sp, #4]
     9b4:	2300      	movs	r3, #0
     9b6:	9302      	str	r3, [sp, #8]
     9b8:	9303      	str	r3, [sp, #12]
     9ba:	6803      	ldr	r3, [r0, #0]
     9bc:	aa01      	add	r2, sp, #4
     9be:	681b      	ldr	r3, [r3, #0]
     9c0:	210a      	movs	r1, #10
     9c2:	4798      	blx	r3
     9c4:	0020      	movs	r0, r4
     9c6:	3060      	adds	r0, #96	; 0x60
     9c8:	f003 f895 	bl	3af6 <mbed::Timer::read_ms()>
     9cc:	6720      	str	r0, [r4, #112]	; 0x70
     9ce:	bd1f      	pop	{r0, r1, r2, r3, r4, pc}
     9d0:	0000734c 	.word	0x0000734c

000009d4 <ros::NodeHandle_<MbedHardware, 25, 25, 512, 512>::negotiateTopics()>:
     9d4:	2200      	movs	r2, #0
     9d6:	b5f0      	push	{r4, r5, r6, r7, lr}
     9d8:	4b2d      	ldr	r3, [pc, #180]	; (a90 <ros::NodeHandle_<MbedHardware, 25, 25, 512, 512>::negotiateTopics()+0xbc>)
     9da:	b089      	sub	sp, #36	; 0x24
     9dc:	9302      	str	r3, [sp, #8]
     9de:	ab02      	add	r3, sp, #8
     9e0:	809a      	strh	r2, [r3, #4]
     9e2:	4b2c      	ldr	r3, [pc, #176]	; (a94 <ros::NodeHandle_<MbedHardware, 25, 25, 512, 512>::negotiateTopics()+0xc0>)
     9e4:	2780      	movs	r7, #128	; 0x80
     9e6:	9304      	str	r3, [sp, #16]
     9e8:	9305      	str	r3, [sp, #20]
     9ea:	9306      	str	r3, [sp, #24]
     9ec:	2390      	movs	r3, #144	; 0x90
     9ee:	0005      	movs	r5, r0
     9f0:	00db      	lsls	r3, r3, #3
     9f2:	18c4      	adds	r4, r0, r3
     9f4:	4b28      	ldr	r3, [pc, #160]	; (a98 <ros::NodeHandle_<MbedHardware, 25, 25, 512, 512>::negotiateTopics()+0xc4>)
     9f6:	9207      	str	r2, [sp, #28]
     9f8:	18c6      	adds	r6, r0, r3
     9fa:	00bf      	lsls	r7, r7, #2
     9fc:	6823      	ldr	r3, [r4, #0]
     9fe:	2b00      	cmp	r3, #0
     a00:	d017      	beq.n	a32 <ros::NodeHandle_<MbedHardware, 25, 25, 512, 512>::negotiateTopics()+0x5e>
     a02:	8919      	ldrh	r1, [r3, #8]
     a04:	6858      	ldr	r0, [r3, #4]
     a06:	aa02      	add	r2, sp, #8
     a08:	8091      	strh	r1, [r2, #4]
     a0a:	681a      	ldr	r2, [r3, #0]
     a0c:	6803      	ldr	r3, [r0, #0]
     a0e:	9204      	str	r2, [sp, #16]
     a10:	689b      	ldr	r3, [r3, #8]
     a12:	4798      	blx	r3
     a14:	6823      	ldr	r3, [r4, #0]
     a16:	9005      	str	r0, [sp, #20]
     a18:	6858      	ldr	r0, [r3, #4]
     a1a:	6803      	ldr	r3, [r0, #0]
     a1c:	68db      	ldr	r3, [r3, #12]
     a1e:	4798      	blx	r3
     a20:	6821      	ldr	r1, [r4, #0]
     a22:	682b      	ldr	r3, [r5, #0]
     a24:	9006      	str	r0, [sp, #24]
     a26:	9707      	str	r7, [sp, #28]
     a28:	681b      	ldr	r3, [r3, #0]
     a2a:	aa02      	add	r2, sp, #8
     a2c:	6909      	ldr	r1, [r1, #16]
     a2e:	0028      	movs	r0, r5
     a30:	4798      	blx	r3
     a32:	3404      	adds	r4, #4
     a34:	42b4      	cmp	r4, r6
     a36:	d1e1      	bne.n	9fc <ros::NodeHandle_<MbedHardware, 25, 25, 512, 512>::negotiateTopics()+0x28>
     a38:	23a9      	movs	r3, #169	; 0xa9
     a3a:	2680      	movs	r6, #128	; 0x80
     a3c:	00db      	lsls	r3, r3, #3
     a3e:	18eb      	adds	r3, r5, r3
     a40:	9301      	str	r3, [sp, #4]
     a42:	00b6      	lsls	r6, r6, #2
     a44:	6820      	ldr	r0, [r4, #0]
     a46:	2800      	cmp	r0, #0
     a48:	d018      	beq.n	a7c <ros::NodeHandle_<MbedHardware, 25, 25, 512, 512>::negotiateTopics()+0xa8>
     a4a:	8882      	ldrh	r2, [r0, #4]
     a4c:	ab02      	add	r3, sp, #8
     a4e:	809a      	strh	r2, [r3, #4]
     a50:	6883      	ldr	r3, [r0, #8]
     a52:	9304      	str	r3, [sp, #16]
     a54:	6803      	ldr	r3, [r0, #0]
     a56:	689b      	ldr	r3, [r3, #8]
     a58:	4798      	blx	r3
     a5a:	9005      	str	r0, [sp, #20]
     a5c:	6820      	ldr	r0, [r4, #0]
     a5e:	6803      	ldr	r3, [r0, #0]
     a60:	68db      	ldr	r3, [r3, #12]
     a62:	4798      	blx	r3
     a64:	682b      	ldr	r3, [r5, #0]
     a66:	9006      	str	r0, [sp, #24]
     a68:	6820      	ldr	r0, [r4, #0]
     a6a:	681f      	ldr	r7, [r3, #0]
     a6c:	6803      	ldr	r3, [r0, #0]
     a6e:	9607      	str	r6, [sp, #28]
     a70:	685b      	ldr	r3, [r3, #4]
     a72:	4798      	blx	r3
     a74:	aa02      	add	r2, sp, #8
     a76:	0001      	movs	r1, r0
     a78:	0028      	movs	r0, r5
     a7a:	47b8      	blx	r7
     a7c:	9b01      	ldr	r3, [sp, #4]
     a7e:	3404      	adds	r4, #4
     a80:	42a3      	cmp	r3, r4
     a82:	d1df      	bne.n	a44 <ros::NodeHandle_<MbedHardware, 25, 25, 512, 512>::negotiateTopics()+0x70>
     a84:	2201      	movs	r2, #1
     a86:	4b05      	ldr	r3, [pc, #20]	; (a9c <ros::NodeHandle_<MbedHardware, 25, 25, 512, 512>::negotiateTopics()+0xc8>)
     a88:	54ea      	strb	r2, [r5, r3]
     a8a:	b009      	add	sp, #36	; 0x24
     a8c:	bdf0      	pop	{r4, r5, r6, r7, pc}
     a8e:	46c0      	nop			; (mov r8, r8)
     a90:	00007364 	.word	0x00007364
     a94:	000075bb 	.word	0x000075bb
     a98:	000004e4 	.word	0x000004e4
     a9c:	0000055c 	.word	0x0000055c

00000aa0 <ros::NodeHandle_<MbedHardware, 25, 25, 512, 512>::syncTime(unsigned char*)>:
     aa0:	b5f0      	push	{r4, r5, r6, r7, lr}
     aa2:	4b26      	ldr	r3, [pc, #152]	; (b3c <ros::NodeHandle_<MbedHardware, 25, 25, 512, 512>::syncTime(unsigned char*)+0x9c>)
     aa4:	0006      	movs	r6, r0
     aa6:	b087      	sub	sp, #28
     aa8:	9303      	str	r3, [sp, #12]
     aaa:	2300      	movs	r3, #0
     aac:	0004      	movs	r4, r0
     aae:	3660      	adds	r6, #96	; 0x60
     ab0:	0030      	movs	r0, r6
     ab2:	000f      	movs	r7, r1
     ab4:	9304      	str	r3, [sp, #16]
     ab6:	9305      	str	r3, [sp, #20]
     ab8:	f003 f81d 	bl	3af6 <mbed::Timer::read_ms()>
     abc:	6f23      	ldr	r3, [r4, #112]	; 0x70
     abe:	0039      	movs	r1, r7
     ac0:	1ac5      	subs	r5, r0, r3
     ac2:	a803      	add	r0, sp, #12
     ac4:	f7ff fcec 	bl	4a0 <std_msgs::Time::deserialize(unsigned char*)>
     ac8:	21fa      	movs	r1, #250	; 0xfa
     aca:	0028      	movs	r0, r5
     acc:	0089      	lsls	r1, r1, #2
     ace:	f003 fb1d 	bl	410c <__udivsi3>
     ad2:	21fa      	movs	r1, #250	; 0xfa
     ad4:	9b04      	ldr	r3, [sp, #16]
     ad6:	0089      	lsls	r1, r1, #2
     ad8:	1818      	adds	r0, r3, r0
     ada:	9004      	str	r0, [sp, #16]
     adc:	0028      	movs	r0, r5
     ade:	9301      	str	r3, [sp, #4]
     ae0:	f003 fb9a 	bl	4218 <__aeabi_uidivmod>
     ae4:	4b16      	ldr	r3, [pc, #88]	; (b40 <ros::NodeHandle_<MbedHardware, 25, 25, 512, 512>::syncTime(unsigned char*)+0xa0>)
     ae6:	0030      	movs	r0, r6
     ae8:	4359      	muls	r1, r3
     aea:	9b05      	ldr	r3, [sp, #20]
     aec:	18c9      	adds	r1, r1, r3
     aee:	9301      	str	r3, [sp, #4]
     af0:	9105      	str	r1, [sp, #20]
     af2:	f003 f800 	bl	3af6 <mbed::Timer::read_ms()>
     af6:	21fa      	movs	r1, #250	; 0xfa
     af8:	9b04      	ldr	r3, [sp, #16]
     afa:	0089      	lsls	r1, r1, #2
     afc:	0007      	movs	r7, r0
     afe:	9301      	str	r3, [sp, #4]
     b00:	1e5d      	subs	r5, r3, #1
     b02:	f003 fb03 	bl	410c <__udivsi3>
     b06:	21fa      	movs	r1, #250	; 0xfa
     b08:	1a2d      	subs	r5, r5, r0
     b0a:	6765      	str	r5, [r4, #116]	; 0x74
     b0c:	4b0d      	ldr	r3, [pc, #52]	; (b44 <ros::NodeHandle_<MbedHardware, 25, 25, 512, 512>::syncTime(unsigned char*)+0xa4>)
     b0e:	9d05      	ldr	r5, [sp, #20]
     b10:	0038      	movs	r0, r7
     b12:	0089      	lsls	r1, r1, #2
     b14:	18ed      	adds	r5, r5, r3
     b16:	f003 fb7f 	bl	4218 <__aeabi_uidivmod>
     b1a:	4b09      	ldr	r3, [pc, #36]	; (b40 <ros::NodeHandle_<MbedHardware, 25, 25, 512, 512>::syncTime(unsigned char*)+0xa0>)
     b1c:	0020      	movs	r0, r4
     b1e:	4359      	muls	r1, r3
     b20:	1a69      	subs	r1, r5, r1
     b22:	67a1      	str	r1, [r4, #120]	; 0x78
     b24:	0021      	movs	r1, r4
     b26:	3074      	adds	r0, #116	; 0x74
     b28:	3178      	adds	r1, #120	; 0x78
     b2a:	f000 fbab 	bl	1284 <ros::normalizeSecNSec(unsigned long&, unsigned long&)>
     b2e:	0030      	movs	r0, r6
     b30:	f002 ffe1 	bl	3af6 <mbed::Timer::read_ms()>
     b34:	4b04      	ldr	r3, [pc, #16]	; (b48 <ros::NodeHandle_<MbedHardware, 25, 25, 512, 512>::syncTime(unsigned char*)+0xa8>)
     b36:	50e0      	str	r0, [r4, r3]
     b38:	b007      	add	sp, #28
     b3a:	bdf0      	pop	{r4, r5, r6, r7, pc}
     b3c:	0000734c 	.word	0x0000734c
     b40:	000f4240 	.word	0x000f4240
     b44:	3b9aca00 	.word	0x3b9aca00
     b48:	00000564 	.word	0x00000564

00000b4c <_GLOBAL__sub_I_nh>:
     b4c:	b573      	push	{r0, r1, r4, r5, r6, lr}
     b4e:	4c4e      	ldr	r4, [pc, #312]	; (c88 <_GLOBAL__sub_I_nh+0x13c>)
     b50:	4b4e      	ldr	r3, [pc, #312]	; (c8c <_GLOBAL__sub_I_nh+0x140>)
     b52:	0020      	movs	r0, r4
     b54:	2500      	movs	r5, #0
     b56:	2204      	movs	r2, #4
     b58:	c008      	stmia	r0!, {r3}
     b5a:	0026      	movs	r6, r4
     b5c:	2380      	movs	r3, #128	; 0x80
     b5e:	9200      	str	r2, [sp, #0]
     b60:	2108      	movs	r1, #8
     b62:	9501      	str	r5, [sp, #4]
     b64:	005b      	lsls	r3, r3, #1
     b66:	3660      	adds	r6, #96	; 0x60
     b68:	f000 fc64 	bl	1434 <BufferedSerial::BufferedSerial(PinName, PinName, unsigned long, unsigned long, char const*)>
     b6c:	0030      	movs	r0, r6
     b6e:	f002 ffd7 	bl	3b20 <mbed::Timer::Timer()>
     b72:	23e1      	movs	r3, #225	; 0xe1
     b74:	021b      	lsls	r3, r3, #8
     b76:	65e3      	str	r3, [r4, #92]	; 0x5c
     b78:	0030      	movs	r0, r6
     b7a:	2680      	movs	r6, #128	; 0x80
     b7c:	f002 ff8e 	bl	3a9c <mbed::Timer::start()>
     b80:	0020      	movs	r0, r4
     b82:	00b6      	lsls	r6, r6, #2
     b84:	0029      	movs	r1, r5
     b86:	0032      	movs	r2, r6
     b88:	3080      	adds	r0, #128	; 0x80
     b8a:	6725      	str	r5, [r4, #112]	; 0x70
     b8c:	6765      	str	r5, [r4, #116]	; 0x74
     b8e:	67a5      	str	r5, [r4, #120]	; 0x78
     b90:	67e5      	str	r5, [r4, #124]	; 0x7c
     b92:	f005 ff1d 	bl	69d0 <memset>
     b96:	23a0      	movs	r3, #160	; 0xa0
     b98:	009b      	lsls	r3, r3, #2
     b9a:	0029      	movs	r1, r5
     b9c:	18e0      	adds	r0, r4, r3
     b9e:	0032      	movs	r2, r6
     ba0:	f005 ff16 	bl	69d0 <memset>
     ba4:	2390      	movs	r3, #144	; 0x90
     ba6:	3e9d      	subs	r6, #157	; 0x9d
     ba8:	00db      	lsls	r3, r3, #3
     baa:	3eff      	subs	r6, #255	; 0xff
     bac:	0029      	movs	r1, r5
     bae:	18e0      	adds	r0, r4, r3
     bb0:	0032      	movs	r2, r6
     bb2:	f005 ff0d 	bl	69d0 <memset>
     bb6:	4b36      	ldr	r3, [pc, #216]	; (c90 <_GLOBAL__sub_I_nh+0x144>)
     bb8:	0029      	movs	r1, r5
     bba:	18e0      	adds	r0, r4, r3
     bbc:	0032      	movs	r2, r6
     bbe:	f005 ff07 	bl	69d0 <memset>
     bc2:	23a9      	movs	r3, #169	; 0xa9
     bc4:	00db      	lsls	r3, r3, #3
     bc6:	50e5      	str	r5, [r4, r3]
     bc8:	4b32      	ldr	r3, [pc, #200]	; (c94 <_GLOBAL__sub_I_nh+0x148>)
     bca:	4a33      	ldr	r2, [pc, #204]	; (c98 <_GLOBAL__sub_I_nh+0x14c>)
     bcc:	50e5      	str	r5, [r4, r3]
     bce:	3304      	adds	r3, #4
     bd0:	50e5      	str	r5, [r4, r3]
     bd2:	4b32      	ldr	r3, [pc, #200]	; (c9c <_GLOBAL__sub_I_nh+0x150>)
     bd4:	4932      	ldr	r1, [pc, #200]	; (ca0 <_GLOBAL__sub_I_nh+0x154>)
     bd6:	50e5      	str	r5, [r4, r3]
     bd8:	3304      	adds	r3, #4
     bda:	50e5      	str	r5, [r4, r3]
     bdc:	4b31      	ldr	r3, [pc, #196]	; (ca4 <_GLOBAL__sub_I_nh+0x158>)
     bde:	0020      	movs	r0, r4
     be0:	54e5      	strb	r5, [r4, r3]
     be2:	3304      	adds	r3, #4
     be4:	50e5      	str	r5, [r4, r3]
     be6:	4b30      	ldr	r3, [pc, #192]	; (ca8 <_GLOBAL__sub_I_nh+0x15c>)
     be8:	3e4c      	subs	r6, #76	; 0x4c
     bea:	50e5      	str	r5, [r4, r3]
     bec:	3304      	adds	r3, #4
     bee:	50e5      	str	r5, [r4, r3]
     bf0:	4b2e      	ldr	r3, [pc, #184]	; (cac <_GLOBAL__sub_I_nh+0x160>)
     bf2:	54e5      	strb	r5, [r4, r3]
     bf4:	3304      	adds	r3, #4
     bf6:	50e2      	str	r2, [r4, r3]
     bf8:	2200      	movs	r2, #0
     bfa:	4b2d      	ldr	r3, [pc, #180]	; (cb0 <_GLOBAL__sub_I_nh+0x164>)
     bfc:	50e5      	str	r5, [r4, r3]
     bfe:	3304      	adds	r3, #4
     c00:	50e5      	str	r5, [r4, r3]
     c02:	4b2c      	ldr	r3, [pc, #176]	; (cb4 <_GLOBAL__sub_I_nh+0x168>)
     c04:	50e5      	str	r5, [r4, r3]
     c06:	3304      	adds	r3, #4
     c08:	50e5      	str	r5, [r4, r3]
     c0a:	4b2b      	ldr	r3, [pc, #172]	; (cb8 <_GLOBAL__sub_I_nh+0x16c>)
     c0c:	50e2      	str	r2, [r4, r3]
     c0e:	3304      	adds	r3, #4
     c10:	50e5      	str	r5, [r4, r3]
     c12:	4b2a      	ldr	r3, [pc, #168]	; (cbc <_GLOBAL__sub_I_nh+0x170>)
     c14:	4a2a      	ldr	r2, [pc, #168]	; (cc0 <_GLOBAL__sub_I_nh+0x174>)
     c16:	50e5      	str	r5, [r4, r3]
     c18:	3304      	adds	r3, #4
     c1a:	50e5      	str	r5, [r4, r3]
     c1c:	4b29      	ldr	r3, [pc, #164]	; (cc4 <_GLOBAL__sub_I_nh+0x178>)
     c1e:	50e5      	str	r5, [r4, r3]
     c20:	f003 f992 	bl	3f48 <__aeabi_atexit>
     c24:	2134      	movs	r1, #52	; 0x34
     c26:	4828      	ldr	r0, [pc, #160]	; (cc8 <_GLOBAL__sub_I_nh+0x17c>)
     c28:	f000 fabc 	bl	11a4 <Servo::Servo(PinName)>
     c2c:	4927      	ldr	r1, [pc, #156]	; (ccc <_GLOBAL__sub_I_nh+0x180>)
     c2e:	4828      	ldr	r0, [pc, #160]	; (cd0 <_GLOBAL__sub_I_nh+0x184>)
     c30:	f000 fab8 	bl	11a4 <Servo::Servo(PinName)>
     c34:	4c27      	ldr	r4, [pc, #156]	; (cd4 <_GLOBAL__sub_I_nh+0x188>)
     c36:	0032      	movs	r2, r6
     c38:	0029      	movs	r1, r5
     c3a:	0020      	movs	r0, r4
     c3c:	f005 fec8 	bl	69d0 <memset>
     c40:	0020      	movs	r0, r4
     c42:	4925      	ldr	r1, [pc, #148]	; (cd8 <_GLOBAL__sub_I_nh+0x18c>)
     c44:	f000 fd2b 	bl	169e <gpio_init_out>
     c48:	4c24      	ldr	r4, [pc, #144]	; (cdc <_GLOBAL__sub_I_nh+0x190>)
     c4a:	0032      	movs	r2, r6
     c4c:	0029      	movs	r1, r5
     c4e:	0020      	movs	r0, r4
     c50:	f005 febe 	bl	69d0 <memset>
     c54:	0020      	movs	r0, r4
     c56:	4922      	ldr	r1, [pc, #136]	; (ce0 <_GLOBAL__sub_I_nh+0x194>)
     c58:	f000 fd21 	bl	169e <gpio_init_out>
     c5c:	4b21      	ldr	r3, [pc, #132]	; (ce4 <_GLOBAL__sub_I_nh+0x198>)
     c5e:	4a22      	ldr	r2, [pc, #136]	; (ce8 <_GLOBAL__sub_I_nh+0x19c>)
     c60:	4922      	ldr	r1, [pc, #136]	; (cec <_GLOBAL__sub_I_nh+0x1a0>)
     c62:	615a      	str	r2, [r3, #20]
     c64:	2201      	movs	r2, #1
     c66:	4822      	ldr	r0, [pc, #136]	; (cf0 <_GLOBAL__sub_I_nh+0x1a4>)
     c68:	4c22      	ldr	r4, [pc, #136]	; (cf4 <_GLOBAL__sub_I_nh+0x1a8>)
     c6a:	60d9      	str	r1, [r3, #12]
     c6c:	821d      	strh	r5, [r3, #16]
     c6e:	619a      	str	r2, [r3, #24]
     c70:	6018      	str	r0, [r3, #0]
     c72:	609c      	str	r4, [r3, #8]
     c74:	4b20      	ldr	r3, [pc, #128]	; (cf8 <_GLOBAL__sub_I_nh+0x1ac>)
     c76:	60d9      	str	r1, [r3, #12]
     c78:	619a      	str	r2, [r3, #24]
     c7a:	4920      	ldr	r1, [pc, #128]	; (cfc <_GLOBAL__sub_I_nh+0x1b0>)
     c7c:	4a20      	ldr	r2, [pc, #128]	; (d00 <_GLOBAL__sub_I_nh+0x1b4>)
     c7e:	821d      	strh	r5, [r3, #16]
     c80:	6018      	str	r0, [r3, #0]
     c82:	6159      	str	r1, [r3, #20]
     c84:	609a      	str	r2, [r3, #8]
     c86:	bd73      	pop	{r0, r1, r4, r5, r6, pc}
     c88:	1ffff174 	.word	0x1ffff174
     c8c:	000073c4 	.word	0x000073c4
     c90:	000004e4 	.word	0x000004e4
     c94:	0000054c 	.word	0x0000054c
     c98:	00007394 	.word	0x00007394
     c9c:	00000554 	.word	0x00000554
     ca0:	000010e1 	.word	0x000010e1
     ca4:	0000055c 	.word	0x0000055c
     ca8:	00000564 	.word	0x00000564
     cac:	0000056c 	.word	0x0000056c
     cb0:	00000574 	.word	0x00000574
     cb4:	0000057c 	.word	0x0000057c
     cb8:	00000584 	.word	0x00000584
     cbc:	0000058c 	.word	0x0000058c
     cc0:	1ffff0c0 	.word	0x1ffff0c0
     cc4:	00000594 	.word	0x00000594
     cc8:	1ffff70c 	.word	0x1ffff70c
     ccc:	00003014 	.word	0x00003014
     cd0:	1ffff758 	.word	0x1ffff758
     cd4:	1ffff770 	.word	0x1ffff770
     cd8:	0000104c 	.word	0x0000104c
     cdc:	1ffff724 	.word	0x1ffff724
     ce0:	00001048 	.word	0x00001048
     ce4:	1ffff73c 	.word	0x1ffff73c
     ce8:	00000585 	.word	0x00000585
     cec:	000073ac 	.word	0x000073ac
     cf0:	000073d8 	.word	0x000073d8
     cf4:	000073e8 	.word	0x000073e8
     cf8:	1ffff788 	.word	0x1ffff788
     cfc:	000005b5 	.word	0x000005b5
     d00:	000073ed 	.word	0x000073ed

00000d04 <ros::NodeHandle_<MbedHardware, 25, 25, 512, 512>::spinOnce()>:
     d04:	0003      	movs	r3, r0
     d06:	b5f0      	push	{r4, r5, r6, r7, lr}
     d08:	3360      	adds	r3, #96	; 0x60
     d0a:	0004      	movs	r4, r0
     d0c:	b087      	sub	sp, #28
     d0e:	0018      	movs	r0, r3
     d10:	9302      	str	r3, [sp, #8]
     d12:	f002 fef0 	bl	3af6 <mbed::Timer::read_ms()>
     d16:	4a8b      	ldr	r2, [pc, #556]	; (f44 <ros::NodeHandle_<MbedHardware, 25, 25, 512, 512>::spinOnce()+0x240>)
     d18:	498b      	ldr	r1, [pc, #556]	; (f48 <ros::NodeHandle_<MbedHardware, 25, 25, 512, 512>::spinOnce()+0x244>)
     d1a:	58a3      	ldr	r3, [r4, r2]
     d1c:	0007      	movs	r7, r0
     d1e:	1ac3      	subs	r3, r0, r3
     d20:	9205      	str	r2, [sp, #20]
     d22:	428b      	cmp	r3, r1
     d24:	d902      	bls.n	d2c <ros::NodeHandle_<MbedHardware, 25, 25, 512, 512>::spinOnce()+0x28>
     d26:	2200      	movs	r2, #0
     d28:	4b88      	ldr	r3, [pc, #544]	; (f4c <ros::NodeHandle_<MbedHardware, 25, 25, 512, 512>::spinOnce()+0x248>)
     d2a:	54e2      	strb	r2, [r4, r3]
     d2c:	23a9      	movs	r3, #169	; 0xa9
     d2e:	00db      	lsls	r3, r3, #3
     d30:	58e2      	ldr	r2, [r4, r3]
     d32:	2a00      	cmp	r2, #0
     d34:	d006      	beq.n	d44 <ros::NodeHandle_<MbedHardware, 25, 25, 512, 512>::spinOnce()+0x40>
     d36:	22ad      	movs	r2, #173	; 0xad
     d38:	00d2      	lsls	r2, r2, #3
     d3a:	58a2      	ldr	r2, [r4, r2]
     d3c:	42ba      	cmp	r2, r7
     d3e:	d201      	bcs.n	d44 <ros::NodeHandle_<MbedHardware, 25, 25, 512, 512>::spinOnce()+0x40>
     d40:	2200      	movs	r2, #0
     d42:	50e2      	str	r2, [r4, r3]
     d44:	2300      	movs	r3, #0
     d46:	25a9      	movs	r5, #169	; 0xa9
     d48:	9303      	str	r3, [sp, #12]
     d4a:	9301      	str	r3, [sp, #4]
     d4c:	00ed      	lsls	r5, r5, #3
     d4e:	6fe3      	ldr	r3, [r4, #124]	; 0x7c
     d50:	2b00      	cmp	r3, #0
     d52:	d11e      	bne.n	d92 <ros::NodeHandle_<MbedHardware, 25, 25, 512, 512>::spinOnce()+0x8e>
     d54:	1d26      	adds	r6, r4, #4
     d56:	0030      	movs	r0, r6
     d58:	f000 faa8 	bl	12ac <BufferedSerial::readable()>
     d5c:	2800      	cmp	r0, #0
     d5e:	d121      	bne.n	da4 <ros::NodeHandle_<MbedHardware, 25, 25, 512, 512>::spinOnce()+0xa0>
     d60:	4b7a      	ldr	r3, [pc, #488]	; (f4c <ros::NodeHandle_<MbedHardware, 25, 25, 512, 512>::spinOnce()+0x248>)
     d62:	5ce3      	ldrb	r3, [r4, r3]
     d64:	2b00      	cmp	r3, #0
     d66:	d00a      	beq.n	d7e <ros::NodeHandle_<MbedHardware, 25, 25, 512, 512>::spinOnce()+0x7a>
     d68:	25ac      	movs	r5, #172	; 0xac
     d6a:	00ed      	lsls	r5, r5, #3
     d6c:	5963      	ldr	r3, [r4, r5]
     d6e:	4a78      	ldr	r2, [pc, #480]	; (f50 <ros::NodeHandle_<MbedHardware, 25, 25, 512, 512>::spinOnce()+0x24c>)
     d70:	1afb      	subs	r3, r7, r3
     d72:	4293      	cmp	r3, r2
     d74:	d903      	bls.n	d7e <ros::NodeHandle_<MbedHardware, 25, 25, 512, 512>::spinOnce()+0x7a>
     d76:	0020      	movs	r0, r4
     d78:	f7ff fe18 	bl	9ac <ros::NodeHandle_<MbedHardware, 25, 25, 512, 512>::requestSyncTime()>
     d7c:	5167      	str	r7, [r4, r5]
     d7e:	9b03      	ldr	r3, [sp, #12]
     d80:	2b00      	cmp	r3, #0
     d82:	d000      	beq.n	d86 <ros::NodeHandle_<MbedHardware, 25, 25, 512, 512>::spinOnce()+0x82>
     d84:	e0dc      	b.n	f40 <ros::NodeHandle_<MbedHardware, 25, 25, 512, 512>::spinOnce()+0x23c>
     d86:	9b01      	ldr	r3, [sp, #4]
     d88:	1e18      	subs	r0, r3, #0
     d8a:	d100      	bne.n	d8e <ros::NodeHandle_<MbedHardware, 25, 25, 512, 512>::spinOnce()+0x8a>
     d8c:	e0aa      	b.n	ee4 <ros::NodeHandle_<MbedHardware, 25, 25, 512, 512>::spinOnce()+0x1e0>
     d8e:	2003      	movs	r0, #3
     d90:	e0a7      	b.n	ee2 <ros::NodeHandle_<MbedHardware, 25, 25, 512, 512>::spinOnce()+0x1de>
     d92:	9802      	ldr	r0, [sp, #8]
     d94:	f002 feaf 	bl	3af6 <mbed::Timer::read_ms()>
     d98:	6fe3      	ldr	r3, [r4, #124]	; 0x7c
     d9a:	1bc0      	subs	r0, r0, r7
     d9c:	4298      	cmp	r0, r3
     d9e:	d9d9      	bls.n	d54 <ros::NodeHandle_<MbedHardware, 25, 25, 512, 512>::spinOnce()+0x50>
     da0:	2002      	movs	r0, #2
     da2:	e09e      	b.n	ee2 <ros::NodeHandle_<MbedHardware, 25, 25, 512, 512>::spinOnce()+0x1de>
     da4:	0030      	movs	r0, r6
     da6:	f000 fa89 	bl	12bc <BufferedSerial::getc()>
     daa:	2800      	cmp	r0, #0
     dac:	dbd8      	blt.n	d60 <ros::NodeHandle_<MbedHardware, 25, 25, 512, 512>::spinOnce()+0x5c>
     dae:	23ab      	movs	r3, #171	; 0xab
     db0:	22ab      	movs	r2, #171	; 0xab
     db2:	00db      	lsls	r3, r3, #3
     db4:	58e3      	ldr	r3, [r4, r3]
     db6:	5966      	ldr	r6, [r4, r5]
     db8:	9304      	str	r3, [sp, #16]
     dba:	00d2      	lsls	r2, r2, #3
     dbc:	18c3      	adds	r3, r0, r3
     dbe:	50a3      	str	r3, [r4, r2]
     dc0:	2e07      	cmp	r6, #7
     dc2:	d10e      	bne.n	de2 <ros::NodeHandle_<MbedHardware, 25, 25, 512, 512>::spinOnce()+0xde>
     dc4:	4a63      	ldr	r2, [pc, #396]	; (f54 <ros::NodeHandle_<MbedHardware, 25, 25, 512, 512>::spinOnce()+0x250>)
     dc6:	58a3      	ldr	r3, [r4, r2]
     dc8:	1c59      	adds	r1, r3, #1
     dca:	18e3      	adds	r3, r4, r3
     dcc:	50a1      	str	r1, [r4, r2]
     dce:	3380      	adds	r3, #128	; 0x80
     dd0:	4a61      	ldr	r2, [pc, #388]	; (f58 <ros::NodeHandle_<MbedHardware, 25, 25, 512, 512>::spinOnce()+0x254>)
     dd2:	7018      	strb	r0, [r3, #0]
     dd4:	58a3      	ldr	r3, [r4, r2]
     dd6:	3b01      	subs	r3, #1
     dd8:	50a3      	str	r3, [r4, r2]
     dda:	2b00      	cmp	r3, #0
     ddc:	d1b7      	bne.n	d4e <ros::NodeHandle_<MbedHardware, 25, 25, 512, 512>::spinOnce()+0x4a>
     dde:	3308      	adds	r3, #8
     de0:	e01a      	b.n	e18 <ros::NodeHandle_<MbedHardware, 25, 25, 512, 512>::spinOnce()+0x114>
     de2:	2e00      	cmp	r6, #0
     de4:	d113      	bne.n	e0e <ros::NodeHandle_<MbedHardware, 25, 25, 512, 512>::spinOnce()+0x10a>
     de6:	28ff      	cmp	r0, #255	; 0xff
     de8:	d107      	bne.n	dfa <ros::NodeHandle_<MbedHardware, 25, 25, 512, 512>::spinOnce()+0xf6>
     dea:	2301      	movs	r3, #1
     dec:	22ad      	movs	r2, #173	; 0xad
     dee:	5163      	str	r3, [r4, r5]
     df0:	003b      	movs	r3, r7
     df2:	00d2      	lsls	r2, r2, #3
     df4:	3314      	adds	r3, #20
     df6:	50a3      	str	r3, [r4, r2]
     df8:	e7a9      	b.n	d4e <ros::NodeHandle_<MbedHardware, 25, 25, 512, 512>::spinOnce()+0x4a>
     dfa:	9802      	ldr	r0, [sp, #8]
     dfc:	f002 fe7b 	bl	3af6 <mbed::Timer::read_ms()>
     e00:	4b56      	ldr	r3, [pc, #344]	; (f5c <ros::NodeHandle_<MbedHardware, 25, 25, 512, 512>::spinOnce()+0x258>)
     e02:	1bc0      	subs	r0, r0, r7
     e04:	4298      	cmp	r0, r3
     e06:	d9a2      	bls.n	d4e <ros::NodeHandle_<MbedHardware, 25, 25, 512, 512>::spinOnce()+0x4a>
     e08:	4b50      	ldr	r3, [pc, #320]	; (f4c <ros::NodeHandle_<MbedHardware, 25, 25, 512, 512>::spinOnce()+0x248>)
     e0a:	54e6      	strb	r6, [r4, r3]
     e0c:	e7c8      	b.n	da0 <ros::NodeHandle_<MbedHardware, 25, 25, 512, 512>::spinOnce()+0x9c>
     e0e:	2e01      	cmp	r6, #1
     e10:	d10e      	bne.n	e30 <ros::NodeHandle_<MbedHardware, 25, 25, 512, 512>::spinOnce()+0x12c>
     e12:	28fe      	cmp	r0, #254	; 0xfe
     e14:	d102      	bne.n	e1c <ros::NodeHandle_<MbedHardware, 25, 25, 512, 512>::spinOnce()+0x118>
     e16:	2302      	movs	r3, #2
     e18:	5163      	str	r3, [r4, r5]
     e1a:	e798      	b.n	d4e <ros::NodeHandle_<MbedHardware, 25, 25, 512, 512>::spinOnce()+0x4a>
     e1c:	2300      	movs	r3, #0
     e1e:	5163      	str	r3, [r4, r5]
     e20:	4b4a      	ldr	r3, [pc, #296]	; (f4c <ros::NodeHandle_<MbedHardware, 25, 25, 512, 512>::spinOnce()+0x248>)
     e22:	5ce3      	ldrb	r3, [r4, r3]
     e24:	2b00      	cmp	r3, #0
     e26:	d192      	bne.n	d4e <ros::NodeHandle_<MbedHardware, 25, 25, 512, 512>::spinOnce()+0x4a>
     e28:	0020      	movs	r0, r4
     e2a:	f7ff fdbf 	bl	9ac <ros::NodeHandle_<MbedHardware, 25, 25, 512, 512>::requestSyncTime()>
     e2e:	e78e      	b.n	d4e <ros::NodeHandle_<MbedHardware, 25, 25, 512, 512>::spinOnce()+0x4a>
     e30:	2e02      	cmp	r6, #2
     e32:	d10a      	bne.n	e4a <ros::NodeHandle_<MbedHardware, 25, 25, 512, 512>::spinOnce()+0x146>
     e34:	2200      	movs	r2, #0
     e36:	4b48      	ldr	r3, [pc, #288]	; (f58 <ros::NodeHandle_<MbedHardware, 25, 25, 512, 512>::spinOnce()+0x254>)
     e38:	50e0      	str	r0, [r4, r3]
     e3a:	4b46      	ldr	r3, [pc, #280]	; (f54 <ros::NodeHandle_<MbedHardware, 25, 25, 512, 512>::spinOnce()+0x250>)
     e3c:	50e2      	str	r2, [r4, r3]
     e3e:	2303      	movs	r3, #3
     e40:	5163      	str	r3, [r4, r5]
     e42:	23ab      	movs	r3, #171	; 0xab
     e44:	00db      	lsls	r3, r3, #3
     e46:	50e0      	str	r0, [r4, r3]
     e48:	e781      	b.n	d4e <ros::NodeHandle_<MbedHardware, 25, 25, 512, 512>::spinOnce()+0x4a>
     e4a:	2e03      	cmp	r6, #3
     e4c:	d106      	bne.n	e5c <ros::NodeHandle_<MbedHardware, 25, 25, 512, 512>::spinOnce()+0x158>
     e4e:	4b42      	ldr	r3, [pc, #264]	; (f58 <ros::NodeHandle_<MbedHardware, 25, 25, 512, 512>::spinOnce()+0x254>)
     e50:	0200      	lsls	r0, r0, #8
     e52:	58e2      	ldr	r2, [r4, r3]
     e54:	1810      	adds	r0, r2, r0
     e56:	50e0      	str	r0, [r4, r3]
     e58:	2304      	movs	r3, #4
     e5a:	e7dd      	b.n	e18 <ros::NodeHandle_<MbedHardware, 25, 25, 512, 512>::spinOnce()+0x114>
     e5c:	2e04      	cmp	r6, #4
     e5e:	d10c      	bne.n	e7a <ros::NodeHandle_<MbedHardware, 25, 25, 512, 512>::spinOnce()+0x176>
     e60:	4a3f      	ldr	r2, [pc, #252]	; (f60 <ros::NodeHandle_<MbedHardware, 25, 25, 512, 512>::spinOnce()+0x25c>)
     e62:	4013      	ands	r3, r2
     e64:	d503      	bpl.n	e6e <ros::NodeHandle_<MbedHardware, 25, 25, 512, 512>::spinOnce()+0x16a>
     e66:	4a3f      	ldr	r2, [pc, #252]	; (f64 <ros::NodeHandle_<MbedHardware, 25, 25, 512, 512>::spinOnce()+0x260>)
     e68:	3b01      	subs	r3, #1
     e6a:	4313      	orrs	r3, r2
     e6c:	3301      	adds	r3, #1
     e6e:	2bff      	cmp	r3, #255	; 0xff
     e70:	d101      	bne.n	e76 <ros::NodeHandle_<MbedHardware, 25, 25, 512, 512>::spinOnce()+0x172>
     e72:	3bfa      	subs	r3, #250	; 0xfa
     e74:	e7d0      	b.n	e18 <ros::NodeHandle_<MbedHardware, 25, 25, 512, 512>::spinOnce()+0x114>
     e76:	2300      	movs	r3, #0
     e78:	e7ce      	b.n	e18 <ros::NodeHandle_<MbedHardware, 25, 25, 512, 512>::spinOnce()+0x114>
     e7a:	2e05      	cmp	r6, #5
     e7c:	d104      	bne.n	e88 <ros::NodeHandle_<MbedHardware, 25, 25, 512, 512>::spinOnce()+0x184>
     e7e:	23aa      	movs	r3, #170	; 0xaa
     e80:	00db      	lsls	r3, r3, #3
     e82:	50e0      	str	r0, [r4, r3]
     e84:	2306      	movs	r3, #6
     e86:	e7db      	b.n	e40 <ros::NodeHandle_<MbedHardware, 25, 25, 512, 512>::spinOnce()+0x13c>
     e88:	2e06      	cmp	r6, #6
     e8a:	d10a      	bne.n	ea2 <ros::NodeHandle_<MbedHardware, 25, 25, 512, 512>::spinOnce()+0x19e>
     e8c:	23aa      	movs	r3, #170	; 0xaa
     e8e:	00db      	lsls	r3, r3, #3
     e90:	58e2      	ldr	r2, [r4, r3]
     e92:	0200      	lsls	r0, r0, #8
     e94:	1810      	adds	r0, r2, r0
     e96:	50e0      	str	r0, [r4, r3]
     e98:	2307      	movs	r3, #7
     e9a:	5163      	str	r3, [r4, r5]
     e9c:	4b2e      	ldr	r3, [pc, #184]	; (f58 <ros::NodeHandle_<MbedHardware, 25, 25, 512, 512>::spinOnce()+0x254>)
     e9e:	58e3      	ldr	r3, [r4, r3]
     ea0:	e79b      	b.n	dda <ros::NodeHandle_<MbedHardware, 25, 25, 512, 512>::spinOnce()+0xd6>
     ea2:	2e08      	cmp	r6, #8
     ea4:	d000      	beq.n	ea8 <ros::NodeHandle_<MbedHardware, 25, 25, 512, 512>::spinOnce()+0x1a4>
     ea6:	e752      	b.n	d4e <ros::NodeHandle_<MbedHardware, 25, 25, 512, 512>::spinOnce()+0x4a>
     ea8:	2200      	movs	r2, #0
     eaa:	5162      	str	r2, [r4, r5]
     eac:	4a2c      	ldr	r2, [pc, #176]	; (f60 <ros::NodeHandle_<MbedHardware, 25, 25, 512, 512>::spinOnce()+0x25c>)
     eae:	4013      	ands	r3, r2
     eb0:	d503      	bpl.n	eba <ros::NodeHandle_<MbedHardware, 25, 25, 512, 512>::spinOnce()+0x1b6>
     eb2:	4a2c      	ldr	r2, [pc, #176]	; (f64 <ros::NodeHandle_<MbedHardware, 25, 25, 512, 512>::spinOnce()+0x260>)
     eb4:	3b01      	subs	r3, #1
     eb6:	4313      	orrs	r3, r2
     eb8:	3301      	adds	r3, #1
     eba:	2bff      	cmp	r3, #255	; 0xff
     ebc:	d000      	beq.n	ec0 <ros::NodeHandle_<MbedHardware, 25, 25, 512, 512>::spinOnce()+0x1bc>
     ebe:	e746      	b.n	d4e <ros::NodeHandle_<MbedHardware, 25, 25, 512, 512>::spinOnce()+0x4a>
     ec0:	23aa      	movs	r3, #170	; 0xaa
     ec2:	00db      	lsls	r3, r3, #3
     ec4:	58e3      	ldr	r3, [r4, r3]
     ec6:	2b00      	cmp	r3, #0
     ec8:	d10e      	bne.n	ee8 <ros::NodeHandle_<MbedHardware, 25, 25, 512, 512>::spinOnce()+0x1e4>
     eca:	0020      	movs	r0, r4
     ecc:	f7ff fd6e 	bl	9ac <ros::NodeHandle_<MbedHardware, 25, 25, 512, 512>::requestSyncTime()>
     ed0:	0020      	movs	r0, r4
     ed2:	f7ff fd7f 	bl	9d4 <ros::NodeHandle_<MbedHardware, 25, 25, 512, 512>::negotiateTopics()>
     ed6:	23ac      	movs	r3, #172	; 0xac
     ed8:	2001      	movs	r0, #1
     eda:	00db      	lsls	r3, r3, #3
     edc:	50e7      	str	r7, [r4, r3]
     ede:	9b05      	ldr	r3, [sp, #20]
     ee0:	50e7      	str	r7, [r4, r3]
     ee2:	4240      	negs	r0, r0
     ee4:	b007      	add	sp, #28
     ee6:	bdf0      	pop	{r4, r5, r6, r7, pc}
     ee8:	2b0a      	cmp	r3, #10
     eea:	d107      	bne.n	efc <ros::NodeHandle_<MbedHardware, 25, 25, 512, 512>::spinOnce()+0x1f8>
     eec:	0021      	movs	r1, r4
     eee:	0020      	movs	r0, r4
     ef0:	3180      	adds	r1, #128	; 0x80
     ef2:	f7ff fdd5 	bl	aa0 <ros::NodeHandle_<MbedHardware, 25, 25, 512, 512>::syncTime(unsigned char*)>
     ef6:	2301      	movs	r3, #1
     ef8:	9303      	str	r3, [sp, #12]
     efa:	e728      	b.n	d4e <ros::NodeHandle_<MbedHardware, 25, 25, 512, 512>::spinOnce()+0x4a>
     efc:	2b06      	cmp	r3, #6
     efe:	d10a      	bne.n	f16 <ros::NodeHandle_<MbedHardware, 25, 25, 512, 512>::spinOnce()+0x212>
     f00:	23ae      	movs	r3, #174	; 0xae
     f02:	0021      	movs	r1, r4
     f04:	00db      	lsls	r3, r3, #3
     f06:	18e0      	adds	r0, r4, r3
     f08:	3180      	adds	r1, #128	; 0x80
     f0a:	f7ff fcb0 	bl	86e <rosserial_msgs::RequestParamResponse::deserialize(unsigned char*)>
     f0e:	2201      	movs	r2, #1
     f10:	4b15      	ldr	r3, [pc, #84]	; (f68 <ros::NodeHandle_<MbedHardware, 25, 25, 512, 512>::spinOnce()+0x264>)
     f12:	54e2      	strb	r2, [r4, r3]
     f14:	e71b      	b.n	d4e <ros::NodeHandle_<MbedHardware, 25, 25, 512, 512>::spinOnce()+0x4a>
     f16:	2b0b      	cmp	r3, #11
     f18:	d105      	bne.n	f26 <ros::NodeHandle_<MbedHardware, 25, 25, 512, 512>::spinOnce()+0x222>
     f1a:	2200      	movs	r2, #0
     f1c:	4b0b      	ldr	r3, [pc, #44]	; (f4c <ros::NodeHandle_<MbedHardware, 25, 25, 512, 512>::spinOnce()+0x248>)
     f1e:	54e2      	strb	r2, [r4, r3]
     f20:	2301      	movs	r3, #1
     f22:	9301      	str	r3, [sp, #4]
     f24:	e713      	b.n	d4e <ros::NodeHandle_<MbedHardware, 25, 25, 512, 512>::spinOnce()+0x4a>
     f26:	33d4      	adds	r3, #212	; 0xd4
     f28:	009b      	lsls	r3, r3, #2
     f2a:	18e3      	adds	r3, r4, r3
     f2c:	6858      	ldr	r0, [r3, #4]
     f2e:	2800      	cmp	r0, #0
     f30:	d100      	bne.n	f34 <ros::NodeHandle_<MbedHardware, 25, 25, 512, 512>::spinOnce()+0x230>
     f32:	e70c      	b.n	d4e <ros::NodeHandle_<MbedHardware, 25, 25, 512, 512>::spinOnce()+0x4a>
     f34:	0021      	movs	r1, r4
     f36:	6803      	ldr	r3, [r0, #0]
     f38:	3180      	adds	r1, #128	; 0x80
     f3a:	681b      	ldr	r3, [r3, #0]
     f3c:	4798      	blx	r3
     f3e:	e706      	b.n	d4e <ros::NodeHandle_<MbedHardware, 25, 25, 512, 512>::spinOnce()+0x4a>
     f40:	2004      	movs	r0, #4
     f42:	e7ce      	b.n	ee2 <ros::NodeHandle_<MbedHardware, 25, 25, 512, 512>::spinOnce()+0x1de>
     f44:	00000564 	.word	0x00000564
     f48:	00002af8 	.word	0x00002af8
     f4c:	0000055c 	.word	0x0000055c
     f50:	000009c4 	.word	0x000009c4
     f54:	00000554 	.word	0x00000554
     f58:	0000054c 	.word	0x0000054c
     f5c:	00001388 	.word	0x00001388
     f60:	800000ff 	.word	0x800000ff
     f64:	ffffff00 	.word	0xffffff00
     f68:	0000056c 	.word	0x0000056c

00000f6c <main>:
     f6c:	b510      	push	{r4, lr}
     f6e:	4c1e      	ldr	r4, [pc, #120]	; (fe8 <main+0x7c>)
     f70:	1d20      	adds	r0, r4, #4
     f72:	6de1      	ldr	r1, [r4, #92]	; 0x5c
     f74:	f002 fe33 	bl	3bde <mbed::SerialBase::baud(int)>
     f78:	22a9      	movs	r2, #169	; 0xa9
     f7a:	2300      	movs	r3, #0
     f7c:	00d2      	lsls	r2, r2, #3
     f7e:	50a3      	str	r3, [r4, r2]
     f80:	4a1a      	ldr	r2, [pc, #104]	; (fec <main+0x80>)
     f82:	50a3      	str	r3, [r4, r2]
     f84:	4a1a      	ldr	r2, [pc, #104]	; (ff0 <main+0x84>)
     f86:	50a3      	str	r3, [r4, r2]
     f88:	3a04      	subs	r2, #4
     f8a:	50a3      	str	r3, [r4, r2]
     f8c:	4919      	ldr	r1, [pc, #100]	; (ff4 <main+0x88>)
     f8e:	009a      	lsls	r2, r3, #2
     f90:	1852      	adds	r2, r2, r1
     f92:	58a2      	ldr	r2, [r4, r2]
     f94:	2a00      	cmp	r2, #0
     f96:	d11f      	bne.n	fd8 <main+0x6c>
     f98:	001a      	movs	r2, r3
     f9a:	3239      	adds	r2, #57	; 0x39
     f9c:	32ff      	adds	r2, #255	; 0xff
     f9e:	4916      	ldr	r1, [pc, #88]	; (ff8 <main+0x8c>)
     fa0:	0092      	lsls	r2, r2, #2
     fa2:	18a2      	adds	r2, r4, r2
     fa4:	3364      	adds	r3, #100	; 0x64
     fa6:	6051      	str	r1, [r2, #4]
     fa8:	604b      	str	r3, [r1, #4]
     faa:	2300      	movs	r3, #0
     fac:	4911      	ldr	r1, [pc, #68]	; (ff4 <main+0x88>)
     fae:	009a      	lsls	r2, r3, #2
     fb0:	1852      	adds	r2, r2, r1
     fb2:	58a2      	ldr	r2, [r4, r2]
     fb4:	2a00      	cmp	r2, #0
     fb6:	d113      	bne.n	fe0 <main+0x74>
     fb8:	001a      	movs	r2, r3
     fba:	3239      	adds	r2, #57	; 0x39
     fbc:	32ff      	adds	r2, #255	; 0xff
     fbe:	490f      	ldr	r1, [pc, #60]	; (ffc <main+0x90>)
     fc0:	0092      	lsls	r2, r2, #2
     fc2:	18a2      	adds	r2, r4, r2
     fc4:	3364      	adds	r3, #100	; 0x64
     fc6:	6051      	str	r1, [r2, #4]
     fc8:	604b      	str	r3, [r1, #4]
     fca:	0020      	movs	r0, r4
     fcc:	f7ff fe9a 	bl	d04 <ros::NodeHandle_<MbedHardware, 25, 25, 512, 512>::spinOnce()>
     fd0:	2001      	movs	r0, #1
     fd2:	f002 fead 	bl	3d30 <wait_ms>
     fd6:	e7f8      	b.n	fca <main+0x5e>
     fd8:	3301      	adds	r3, #1
     fda:	2b19      	cmp	r3, #25
     fdc:	d1d6      	bne.n	f8c <main+0x20>
     fde:	e7e4      	b.n	faa <main+0x3e>
     fe0:	3301      	adds	r3, #1
     fe2:	2b19      	cmp	r3, #25
     fe4:	d1e2      	bne.n	fac <main+0x40>
     fe6:	e7f0      	b.n	fca <main+0x5e>
     fe8:	1ffff174 	.word	0x1ffff174
     fec:	0000054c 	.word	0x0000054c
     ff0:	00000554 	.word	0x00000554
     ff4:	000004e4 	.word	0x000004e4
     ff8:	1ffff73c 	.word	0x1ffff73c
     ffc:	1ffff788 	.word	0x1ffff788

00001000 <ros::NodeHandle_<MbedHardware, 25, 25, 512, 512>::publish(int, ros::Msg const*)>:
    1000:	b5f0      	push	{r4, r5, r6, r7, lr}
    1002:	0004      	movs	r4, r0
    1004:	b085      	sub	sp, #20
    1006:	000e      	movs	r6, r1
    1008:	2963      	cmp	r1, #99	; 0x63
    100a:	dd04      	ble.n	1016 <ros::NodeHandle_<MbedHardware, 25, 25, 512, 512>::publish(int, ros::Msg const*)+0x16>
    100c:	2500      	movs	r5, #0
    100e:	4b2b      	ldr	r3, [pc, #172]	; (10bc <ros::NodeHandle_<MbedHardware, 25, 25, 512, 512>::publish(int, ros::Msg const*)+0xbc>)
    1010:	5cc3      	ldrb	r3, [r0, r3]
    1012:	42ab      	cmp	r3, r5
    1014:	d04e      	beq.n	10b4 <ros::NodeHandle_<MbedHardware, 25, 25, 512, 512>::publish(int, ros::Msg const*)+0xb4>
    1016:	6813      	ldr	r3, [r2, #0]
    1018:	4929      	ldr	r1, [pc, #164]	; (10c0 <ros::NodeHandle_<MbedHardware, 25, 25, 512, 512>::publish(int, ros::Msg const*)+0xc0>)
    101a:	681b      	ldr	r3, [r3, #0]
    101c:	1861      	adds	r1, r4, r1
    101e:	0010      	movs	r0, r2
    1020:	4798      	blx	r3
    1022:	23a0      	movs	r3, #160	; 0xa0
    1024:	22ff      	movs	r2, #255	; 0xff
    1026:	009b      	lsls	r3, r3, #2
    1028:	54e2      	strb	r2, [r4, r3]
    102a:	4b26      	ldr	r3, [pc, #152]	; (10c4 <ros::NodeHandle_<MbedHardware, 25, 25, 512, 512>::publish(int, ros::Msg const*)+0xc4>)
    102c:	3a01      	subs	r2, #1
    102e:	54e2      	strb	r2, [r4, r3]
    1030:	4a25      	ldr	r2, [pc, #148]	; (10c8 <ros::NodeHandle_<MbedHardware, 25, 25, 512, 512>::publish(int, ros::Msg const*)+0xc8>)
    1032:	b2c3      	uxtb	r3, r0
    1034:	54a3      	strb	r3, [r4, r2]
    1036:	4925      	ldr	r1, [pc, #148]	; (10cc <ros::NodeHandle_<MbedHardware, 25, 25, 512, 512>::publish(int, ros::Msg const*)+0xcc>)
    1038:	1202      	asrs	r2, r0, #8
    103a:	b2d2      	uxtb	r2, r2
    103c:	5462      	strb	r2, [r4, r1]
    103e:	189b      	adds	r3, r3, r2
    1040:	22a1      	movs	r2, #161	; 0xa1
    1042:	43db      	mvns	r3, r3
    1044:	0092      	lsls	r2, r2, #2
    1046:	54a3      	strb	r3, [r4, r2]
    1048:	4b21      	ldr	r3, [pc, #132]	; (10d0 <ros::NodeHandle_<MbedHardware, 25, 25, 512, 512>::publish(int, ros::Msg const*)+0xd0>)
    104a:	2205      	movs	r2, #5
    104c:	54e6      	strb	r6, [r4, r3]
    104e:	4b21      	ldr	r3, [pc, #132]	; (10d4 <ros::NodeHandle_<MbedHardware, 25, 25, 512, 512>::publish(int, ros::Msg const*)+0xd4>)
    1050:	0a36      	lsrs	r6, r6, #8
    1052:	54e6      	strb	r6, [r4, r3]
    1054:	2300      	movs	r3, #0
    1056:	1d85      	adds	r5, r0, #6
    1058:	42aa      	cmp	r2, r5
    105a:	dc06      	bgt.n	106a <ros::NodeHandle_<MbedHardware, 25, 25, 512, 512>::publish(int, ros::Msg const*)+0x6a>
    105c:	21a0      	movs	r1, #160	; 0xa0
    105e:	0089      	lsls	r1, r1, #2
    1060:	1851      	adds	r1, r2, r1
    1062:	5c61      	ldrb	r1, [r4, r1]
    1064:	3201      	adds	r2, #1
    1066:	185b      	adds	r3, r3, r1
    1068:	e7f6      	b.n	1058 <ros::NodeHandle_<MbedHardware, 25, 25, 512, 512>::publish(int, ros::Msg const*)+0x58>
    106a:	43db      	mvns	r3, r3
    106c:	4a14      	ldr	r2, [pc, #80]	; (10c0 <ros::NodeHandle_<MbedHardware, 25, 25, 512, 512>::publish(int, ros::Msg const*)+0xc0>)
    106e:	0005      	movs	r5, r0
    1070:	1820      	adds	r0, r4, r0
    1072:	1880      	adds	r0, r0, r2
    1074:	7003      	strb	r3, [r0, #0]
    1076:	2380      	movs	r3, #128	; 0x80
    1078:	3508      	adds	r5, #8
    107a:	009b      	lsls	r3, r3, #2
    107c:	429d      	cmp	r5, r3
    107e:	dc0b      	bgt.n	1098 <ros::NodeHandle_<MbedHardware, 25, 25, 512, 512>::publish(int, ros::Msg const*)+0x98>
    1080:	3380      	adds	r3, #128	; 0x80
    1082:	18e7      	adds	r7, r4, r3
    1084:	003e      	movs	r6, r7
    1086:	1bf3      	subs	r3, r6, r7
    1088:	429d      	cmp	r5, r3
    108a:	dd13      	ble.n	10b4 <ros::NodeHandle_<MbedHardware, 25, 25, 512, 512>::publish(int, ros::Msg const*)+0xb4>
    108c:	7831      	ldrb	r1, [r6, #0]
    108e:	1d20      	adds	r0, r4, #4
    1090:	f000 fa39 	bl	1506 <BufferedSerial::putc(int)>
    1094:	3601      	adds	r6, #1
    1096:	e7f6      	b.n	1086 <ros::NodeHandle_<MbedHardware, 25, 25, 512, 512>::publish(int, ros::Msg const*)+0x86>
    1098:	4b0f      	ldr	r3, [pc, #60]	; (10d8 <ros::NodeHandle_<MbedHardware, 25, 25, 512, 512>::publish(int, ros::Msg const*)+0xd8>)
    109a:	aa01      	add	r2, sp, #4
    109c:	9301      	str	r3, [sp, #4]
    109e:	2303      	movs	r3, #3
    10a0:	7113      	strb	r3, [r2, #4]
    10a2:	4b0e      	ldr	r3, [pc, #56]	; (10dc <ros::NodeHandle_<MbedHardware, 25, 25, 512, 512>::publish(int, ros::Msg const*)+0xdc>)
    10a4:	2107      	movs	r1, #7
    10a6:	6093      	str	r3, [r2, #8]
    10a8:	6823      	ldr	r3, [r4, #0]
    10aa:	0020      	movs	r0, r4
    10ac:	681b      	ldr	r3, [r3, #0]
    10ae:	2501      	movs	r5, #1
    10b0:	4798      	blx	r3
    10b2:	426d      	negs	r5, r5
    10b4:	0028      	movs	r0, r5
    10b6:	b005      	add	sp, #20
    10b8:	bdf0      	pop	{r4, r5, r6, r7, pc}
    10ba:	46c0      	nop			; (mov r8, r8)
    10bc:	0000055c 	.word	0x0000055c
    10c0:	00000287 	.word	0x00000287
    10c4:	00000281 	.word	0x00000281
    10c8:	00000282 	.word	0x00000282
    10cc:	00000283 	.word	0x00000283
    10d0:	00000285 	.word	0x00000285
    10d4:	00000286 	.word	0x00000286
    10d8:	0000737c 	.word	0x0000737c
    10dc:	0000749e 	.word	0x0000749e

000010e0 <ros::NodeHandle_<MbedHardware, 25, 25, 512, 512>::~NodeHandle_()>:
    10e0:	b510      	push	{r4, lr}
    10e2:	0004      	movs	r4, r0
    10e4:	4b02      	ldr	r3, [pc, #8]	; (10f0 <ros::NodeHandle_<MbedHardware, 25, 25, 512, 512>::~NodeHandle_()+0x10>)
    10e6:	c008      	stmia	r0!, {r3}
    10e8:	f000 f934 	bl	1354 <BufferedSerial::~BufferedSerial()>
    10ec:	0020      	movs	r0, r4
    10ee:	bd10      	pop	{r4, pc}
    10f0:	000073c4 	.word	0x000073c4

000010f4 <Servo::write(float)>:
    10f4:	b5f7      	push	{r0, r1, r2, r4, r5, r6, r7, lr}
    10f6:	68c7      	ldr	r7, [r0, #12]
    10f8:	0006      	movs	r6, r0
    10fa:	1c38      	adds	r0, r7, #0
    10fc:	1c0c      	adds	r4, r1, #0
    10fe:	f005 f967 	bl	63d0 <__aeabi_f2d>
    1102:	0002      	movs	r2, r0
    1104:	000b      	movs	r3, r1
    1106:	f004 f8bd 	bl	5284 <__aeabi_dadd>
    110a:	9000      	str	r0, [sp, #0]
    110c:	9101      	str	r1, [sp, #4]
    110e:	1c20      	adds	r0, r4, #0
    1110:	f005 f95e 	bl	63d0 <__aeabi_f2d>
    1114:	2200      	movs	r2, #0
    1116:	4b20      	ldr	r3, [pc, #128]	; (1198 <Servo::write(float)+0xa4>)
    1118:	f004 fe44 	bl	5da4 <__aeabi_dsub>
    111c:	000b      	movs	r3, r1
    111e:	0002      	movs	r2, r0
    1120:	9800      	ldr	r0, [sp, #0]
    1122:	9901      	ldr	r1, [sp, #4]
    1124:	f004 fbbe 	bl	58a4 <__aeabi_dmul>
    1128:	f005 f9a4 	bl	6474 <__aeabi_d2f>
    112c:	2380      	movs	r3, #128	; 0x80
    112e:	061b      	lsls	r3, r3, #24
    1130:	18fd      	adds	r5, r7, r3
    1132:	1c29      	adds	r1, r5, #0
    1134:	9000      	str	r0, [sp, #0]
    1136:	f003 f971 	bl	441c <__aeabi_fcmplt>
    113a:	2800      	cmp	r0, #0
    113c:	d107      	bne.n	114e <Servo::write(float)+0x5a>
    113e:	9900      	ldr	r1, [sp, #0]
    1140:	1c38      	adds	r0, r7, #0
    1142:	f003 f96b 	bl	441c <__aeabi_fcmplt>
    1146:	1c3d      	adds	r5, r7, #0
    1148:	2800      	cmp	r0, #0
    114a:	d100      	bne.n	114e <Servo::write(float)+0x5a>
    114c:	9d00      	ldr	r5, [sp, #0]
    114e:	f000 fb33 	bl	17b8 <core_util_critical_section_enter>
    1152:	1c28      	adds	r0, r5, #0
    1154:	f005 f93c 	bl	63d0 <__aeabi_f2d>
    1158:	4a10      	ldr	r2, [pc, #64]	; (119c <Servo::write(float)+0xa8>)
    115a:	4b11      	ldr	r3, [pc, #68]	; (11a0 <Servo::write(float)+0xac>)
    115c:	f004 f892 	bl	5284 <__aeabi_dadd>
    1160:	f005 f988 	bl	6474 <__aeabi_d2f>
    1164:	1c01      	adds	r1, r0, #0
    1166:	0030      	movs	r0, r6
    1168:	f002 f978 	bl	345c <pwmout_pulsewidth>
    116c:	f000 fb3a 	bl	17e4 <core_util_critical_section_exit>
    1170:	2100      	movs	r1, #0
    1172:	1c20      	adds	r0, r4, #0
    1174:	f003 f952 	bl	441c <__aeabi_fcmplt>
    1178:	2800      	cmp	r0, #0
    117a:	d108      	bne.n	118e <Servo::write(float)+0x9a>
    117c:	21fe      	movs	r1, #254	; 0xfe
    117e:	1c20      	adds	r0, r4, #0
    1180:	0589      	lsls	r1, r1, #22
    1182:	f003 f95f 	bl	4444 <__aeabi_fcmpgt>
    1186:	2800      	cmp	r0, #0
    1188:	d103      	bne.n	1192 <Servo::write(float)+0x9e>
    118a:	6174      	str	r4, [r6, #20]
    118c:	bdf7      	pop	{r0, r1, r2, r4, r5, r6, r7, pc}
    118e:	2400      	movs	r4, #0
    1190:	e7fb      	b.n	118a <Servo::write(float)+0x96>
    1192:	24fe      	movs	r4, #254	; 0xfe
    1194:	05a4      	lsls	r4, r4, #22
    1196:	e7f8      	b.n	118a <Servo::write(float)+0x96>
    1198:	3fe00000 	.word	0x3fe00000
    119c:	bc6a7efa 	.word	0xbc6a7efa
    11a0:	3f589374 	.word	0x3f589374

000011a4 <Servo::Servo(PinName)>:
    11a4:	b570      	push	{r4, r5, r6, lr}
    11a6:	0004      	movs	r4, r0
    11a8:	000d      	movs	r5, r1
    11aa:	f000 fb05 	bl	17b8 <core_util_critical_section_enter>
    11ae:	0029      	movs	r1, r5
    11b0:	0020      	movs	r0, r4
    11b2:	f002 f84d 	bl	3250 <pwmout_init>
    11b6:	f000 fb15 	bl	17e4 <core_util_critical_section_exit>
    11ba:	4b09      	ldr	r3, [pc, #36]	; (11e0 <Servo::Servo(PinName)+0x3c>)
    11bc:	60e3      	str	r3, [r4, #12]
    11be:	4b09      	ldr	r3, [pc, #36]	; (11e4 <Servo::Servo(PinName)+0x40>)
    11c0:	6123      	str	r3, [r4, #16]
    11c2:	f000 faf9 	bl	17b8 <core_util_critical_section_enter>
    11c6:	0020      	movs	r0, r4
    11c8:	4907      	ldr	r1, [pc, #28]	; (11e8 <Servo::Servo(PinName)+0x44>)
    11ca:	f002 f831 	bl	3230 <pwmout_period>
    11ce:	f000 fb09 	bl	17e4 <core_util_critical_section_exit>
    11d2:	21fc      	movs	r1, #252	; 0xfc
    11d4:	0020      	movs	r0, r4
    11d6:	0589      	lsls	r1, r1, #22
    11d8:	f7ff ff8c 	bl	10f4 <Servo::write(float)>
    11dc:	0020      	movs	r0, r4
    11de:	bd70      	pop	{r4, r5, r6, pc}
    11e0:	3a03126f 	.word	0x3a03126f
    11e4:	43340000 	.word	0x43340000
    11e8:	3ca3d70a 	.word	0x3ca3d70a

000011ec <Servo::position(float)>:
    11ec:	b5f8      	push	{r3, r4, r5, r6, r7, lr}
    11ee:	0006      	movs	r6, r0
    11f0:	1c08      	adds	r0, r1, #0
    11f2:	6931      	ldr	r1, [r6, #16]
    11f4:	f003 fae4 	bl	47c0 <__aeabi_fdiv>
    11f8:	1c01      	adds	r1, r0, #0
    11fa:	f003 f94f 	bl	449c <__aeabi_fadd>
    11fe:	21fe      	movs	r1, #254	; 0xfe
    1200:	68f5      	ldr	r5, [r6, #12]
    1202:	0589      	lsls	r1, r1, #22
    1204:	f003 fdec 	bl	4de0 <__aeabi_fsub>
    1208:	1c29      	adds	r1, r5, #0
    120a:	f003 fcc9 	bl	4ba0 <__aeabi_fmul>
    120e:	2380      	movs	r3, #128	; 0x80
    1210:	061b      	lsls	r3, r3, #24
    1212:	18ec      	adds	r4, r5, r3
    1214:	1c21      	adds	r1, r4, #0
    1216:	1c07      	adds	r7, r0, #0
    1218:	f003 f900 	bl	441c <__aeabi_fcmplt>
    121c:	2800      	cmp	r0, #0
    121e:	d107      	bne.n	1230 <Servo::position(float)+0x44>
    1220:	1c39      	adds	r1, r7, #0
    1222:	1c28      	adds	r0, r5, #0
    1224:	f003 f8fa 	bl	441c <__aeabi_fcmplt>
    1228:	1c2c      	adds	r4, r5, #0
    122a:	2800      	cmp	r0, #0
    122c:	d100      	bne.n	1230 <Servo::position(float)+0x44>
    122e:	1c3c      	adds	r4, r7, #0
    1230:	f000 fac2 	bl	17b8 <core_util_critical_section_enter>
    1234:	1c20      	adds	r0, r4, #0
    1236:	f005 f8cb 	bl	63d0 <__aeabi_f2d>
    123a:	4a06      	ldr	r2, [pc, #24]	; (1254 <Servo::position(float)+0x68>)
    123c:	4b06      	ldr	r3, [pc, #24]	; (1258 <Servo::position(float)+0x6c>)
    123e:	f004 f821 	bl	5284 <__aeabi_dadd>
    1242:	f005 f917 	bl	6474 <__aeabi_d2f>
    1246:	1c01      	adds	r1, r0, #0
    1248:	0030      	movs	r0, r6
    124a:	f002 f907 	bl	345c <pwmout_pulsewidth>
    124e:	f000 fac9 	bl	17e4 <core_util_critical_section_exit>
    1252:	bdf8      	pop	{r3, r4, r5, r6, r7, pc}
    1254:	bc6a7efa 	.word	0xbc6a7efa
    1258:	3f589374 	.word	0x3f589374

0000125c <_start>:
    125c:	4807      	ldr	r0, [pc, #28]	; (127c <_start+0x20>)
    125e:	4a08      	ldr	r2, [pc, #32]	; (1280 <_start+0x24>)
    1260:	b510      	push	{r4, lr}
    1262:	1a12      	subs	r2, r2, r0
    1264:	2100      	movs	r1, #0
    1266:	f005 fbb3 	bl	69d0 <memset>
    126a:	f002 fe25 	bl	3eb8 <software_init_hook>
    126e:	f005 fb51 	bl	6914 <__libc_init_array>
    1272:	f002 fe28 	bl	3ec6 <__wrap_main>
    1276:	f002 fe69 	bl	3f4c <__wrap_exit>
    127a:	46c0      	nop			; (mov r8, r8)
    127c:	1ffff158 	.word	0x1ffff158
    1280:	200011b4 	.word	0x200011b4

00001284 <ros::normalizeSecNSec(unsigned long&, unsigned long&)>:
    1284:	b570      	push	{r4, r5, r6, lr}
    1286:	680d      	ldr	r5, [r1, #0]
    1288:	0006      	movs	r6, r0
    128a:	000c      	movs	r4, r1
    128c:	0028      	movs	r0, r5
    128e:	4906      	ldr	r1, [pc, #24]	; (12a8 <ros::normalizeSecNSec(unsigned long&, unsigned long&)+0x24>)
    1290:	f002 ff3c 	bl	410c <__udivsi3>
    1294:	6833      	ldr	r3, [r6, #0]
    1296:	4904      	ldr	r1, [pc, #16]	; (12a8 <ros::normalizeSecNSec(unsigned long&, unsigned long&)+0x24>)
    1298:	1818      	adds	r0, r3, r0
    129a:	6030      	str	r0, [r6, #0]
    129c:	0028      	movs	r0, r5
    129e:	f002 ffbb 	bl	4218 <__aeabi_uidivmod>
    12a2:	6021      	str	r1, [r4, #0]
    12a4:	bd70      	pop	{r4, r5, r6, pc}
    12a6:	46c0      	nop			; (mov r8, r8)
    12a8:	3b9aca00 	.word	0x3b9aca00

000012ac <BufferedSerial::readable()>:
    12ac:	6b43      	ldr	r3, [r0, #52]	; 0x34
    12ae:	6b80      	ldr	r0, [r0, #56]	; 0x38
    12b0:	1a18      	subs	r0, r3, r0
    12b2:	1e43      	subs	r3, r0, #1
    12b4:	4198      	sbcs	r0, r3
    12b6:	4770      	bx	lr

000012b8 <BufferedSerial::writeable()>:
    12b8:	2001      	movs	r0, #1
    12ba:	4770      	bx	lr

000012bc <BufferedSerial::getc()>:
    12bc:	b570      	push	{r4, r5, r6, lr}
    12be:	0004      	movs	r4, r0
    12c0:	6b83      	ldr	r3, [r0, #56]	; 0x38
    12c2:	1c5a      	adds	r2, r3, #1
    12c4:	6382      	str	r2, [r0, #56]	; 0x38
    12c6:	6b02      	ldr	r2, [r0, #48]	; 0x30
    12c8:	6b80      	ldr	r0, [r0, #56]	; 0x38
    12ca:	5cd5      	ldrb	r5, [r2, r3]
    12cc:	6be3      	ldr	r3, [r4, #60]	; 0x3c
    12ce:	1e59      	subs	r1, r3, #1
    12d0:	f002 ffa2 	bl	4218 <__aeabi_uidivmod>
    12d4:	0028      	movs	r0, r5
    12d6:	63a1      	str	r1, [r4, #56]	; 0x38
    12d8:	bd70      	pop	{r4, r5, r6, pc}

000012da <void mbed::Callback<void ()>::function_move<mbed::Callback<void ()>::method_context<BufferedSerial, void (BufferedSerial::*)()> >(void*, void const*)>:
    12da:	b510      	push	{r4, lr}
    12dc:	2800      	cmp	r0, #0
    12de:	d001      	beq.n	12e4 <void mbed::Callback<void ()>::function_move<mbed::Callback<void ()>::method_context<BufferedSerial, void (BufferedSerial::*)()> >(void*, void const*)+0xa>
    12e0:	c91c      	ldmia	r1!, {r2, r3, r4}
    12e2:	c01c      	stmia	r0!, {r2, r3, r4}
    12e4:	bd10      	pop	{r4, pc}

000012e6 <void mbed::Callback<void ()>::function_dtor<mbed::Callback<void ()>::method_context<BufferedSerial, void (BufferedSerial::*)()> >(void*)>:
    12e6:	4770      	bx	lr

000012e8 <void mbed::Callback<void ()>::function_call<mbed::Callback<void ()>::method_context<BufferedSerial, void (BufferedSerial::*)()> >(void const*)>:
    12e8:	b510      	push	{r4, lr}
    12ea:	6844      	ldr	r4, [r0, #4]
    12ec:	6883      	ldr	r3, [r0, #8]
    12ee:	1061      	asrs	r1, r4, #1
    12f0:	6802      	ldr	r2, [r0, #0]
    12f2:	07e0      	lsls	r0, r4, #31
    12f4:	d501      	bpl.n	12fa <void mbed::Callback<void ()>::function_call<mbed::Callback<void ()>::method_context<BufferedSerial, void (BufferedSerial::*)()> >(void const*)+0x12>
    12f6:	5858      	ldr	r0, [r3, r1]
    12f8:	5882      	ldr	r2, [r0, r2]
    12fa:	1858      	adds	r0, r3, r1
    12fc:	4790      	blx	r2
    12fe:	bd10      	pop	{r4, pc}

00001300 <mbed::Callback<void ()>::~Callback()>:
    1300:	68c3      	ldr	r3, [r0, #12]
    1302:	b510      	push	{r4, lr}
    1304:	0004      	movs	r4, r0
    1306:	2b00      	cmp	r3, #0
    1308:	d001      	beq.n	130e <mbed::Callback<void ()>::~Callback()+0xe>
    130a:	689b      	ldr	r3, [r3, #8]
    130c:	4798      	blx	r3
    130e:	0020      	movs	r0, r4
    1310:	bd10      	pop	{r4, pc}
	...

00001314 <mbed::SerialBase::~SerialBase()>:
    1314:	b570      	push	{r4, r5, r6, lr}
    1316:	0006      	movs	r6, r0
    1318:	4b08      	ldr	r3, [pc, #32]	; (133c <mbed::SerialBase::~SerialBase()+0x28>)
    131a:	360c      	adds	r6, #12
    131c:	0004      	movs	r4, r0
    131e:	6003      	str	r3, [r0, #0]
    1320:	2e00      	cmp	r6, #0
    1322:	d008      	beq.n	1336 <mbed::SerialBase::~SerialBase()+0x22>
    1324:	0005      	movs	r5, r0
    1326:	352c      	adds	r5, #44	; 0x2c
    1328:	42b5      	cmp	r5, r6
    132a:	d004      	beq.n	1336 <mbed::SerialBase::~SerialBase()+0x22>
    132c:	3d10      	subs	r5, #16
    132e:	0028      	movs	r0, r5
    1330:	f7ff ffe6 	bl	1300 <mbed::Callback<void ()>::~Callback()>
    1334:	e7f8      	b.n	1328 <mbed::SerialBase::~SerialBase()+0x14>
    1336:	0020      	movs	r0, r4
    1338:	bd70      	pop	{r4, r5, r6, pc}
    133a:	46c0      	nop			; (mov r8, r8)
    133c:	00007984 	.word	0x00007984

00001340 <mbed::SerialBase::~SerialBase()>:
    1340:	b510      	push	{r4, lr}
    1342:	0004      	movs	r4, r0
    1344:	f7ff ffe6 	bl	1314 <mbed::SerialBase::~SerialBase()>
    1348:	0020      	movs	r0, r4
    134a:	f002 fe1d 	bl	3f88 <operator delete(void*)>
    134e:	0020      	movs	r0, r4
    1350:	bd10      	pop	{r4, pc}
	...

00001354 <BufferedSerial::~BufferedSerial()>:
    1354:	b530      	push	{r4, r5, lr}
    1356:	2500      	movs	r5, #0
    1358:	0004      	movs	r4, r0
    135a:	4b12      	ldr	r3, [pc, #72]	; (13a4 <BufferedSerial::~BufferedSerial()+0x50>)
    135c:	b085      	sub	sp, #20
    135e:	3308      	adds	r3, #8
    1360:	6003      	str	r3, [r0, #0]
    1362:	002a      	movs	r2, r5
    1364:	4669      	mov	r1, sp
    1366:	9503      	str	r5, [sp, #12]
    1368:	f002 fc88 	bl	3c7c <mbed::SerialBase::attach(mbed::Callback<void ()>, mbed::SerialBase::IrqType)>
    136c:	4668      	mov	r0, sp
    136e:	f7ff ffc7 	bl	1300 <mbed::Callback<void ()>::~Callback()>
    1372:	2201      	movs	r2, #1
    1374:	4669      	mov	r1, sp
    1376:	0020      	movs	r0, r4
    1378:	9503      	str	r5, [sp, #12]
    137a:	f002 fc7f 	bl	3c7c <mbed::SerialBase::attach(mbed::Callback<void ()>, mbed::SerialBase::IrqType)>
    137e:	4668      	mov	r0, sp
    1380:	f7ff ffbe 	bl	1300 <mbed::Callback<void ()>::~Callback()>
    1384:	0020      	movs	r0, r4
    1386:	3040      	adds	r0, #64	; 0x40
    1388:	f000 f932 	bl	15f0 <Buffer<char>::~Buffer()>
    138c:	0020      	movs	r0, r4
    138e:	3030      	adds	r0, #48	; 0x30
    1390:	f000 f92e 	bl	15f0 <Buffer<char>::~Buffer()>
    1394:	4b04      	ldr	r3, [pc, #16]	; (13a8 <BufferedSerial::~BufferedSerial()+0x54>)
    1396:	0020      	movs	r0, r4
    1398:	6023      	str	r3, [r4, #0]
    139a:	f7ff ffbb 	bl	1314 <mbed::SerialBase::~SerialBase()>
    139e:	0020      	movs	r0, r4
    13a0:	b005      	add	sp, #20
    13a2:	bd30      	pop	{r4, r5, pc}
    13a4:	000075bc 	.word	0x000075bc
    13a8:	0000796c 	.word	0x0000796c

000013ac <BufferedSerial::~BufferedSerial()>:
    13ac:	b510      	push	{r4, lr}
    13ae:	0004      	movs	r4, r0
    13b0:	f7ff ffd0 	bl	1354 <BufferedSerial::~BufferedSerial()>
    13b4:	0020      	movs	r0, r4
    13b6:	f002 fde7 	bl	3f88 <operator delete(void*)>
    13ba:	0020      	movs	r0, r4
    13bc:	bd10      	pop	{r4, pc}

000013be <BufferedSerial::txIrq()>:
    13be:	b57f      	push	{r0, r1, r2, r3, r4, r5, r6, lr}
    13c0:	0004      	movs	r4, r0
    13c2:	1d25      	adds	r5, r4, #4
    13c4:	0028      	movs	r0, r5
    13c6:	f002 fade 	bl	3986 <serial_writable>
    13ca:	2800      	cmp	r0, #0
    13cc:	d01d      	beq.n	140a <BufferedSerial::txIrq()+0x4c>
    13ce:	6c62      	ldr	r2, [r4, #68]	; 0x44
    13d0:	6ca3      	ldr	r3, [r4, #72]	; 0x48
    13d2:	429a      	cmp	r2, r3
    13d4:	d00f      	beq.n	13f6 <BufferedSerial::txIrq()+0x38>
    13d6:	6ca3      	ldr	r3, [r4, #72]	; 0x48
    13d8:	1c5a      	adds	r2, r3, #1
    13da:	64a2      	str	r2, [r4, #72]	; 0x48
    13dc:	6c22      	ldr	r2, [r4, #64]	; 0x40
    13de:	6ca0      	ldr	r0, [r4, #72]	; 0x48
    13e0:	5cd6      	ldrb	r6, [r2, r3]
    13e2:	6ce3      	ldr	r3, [r4, #76]	; 0x4c
    13e4:	1e59      	subs	r1, r3, #1
    13e6:	f002 ff17 	bl	4218 <__aeabi_uidivmod>
    13ea:	0028      	movs	r0, r5
    13ec:	64a1      	str	r1, [r4, #72]	; 0x48
    13ee:	0031      	movs	r1, r6
    13f0:	f002 fad5 	bl	399e <serial_putc>
    13f4:	e7e5      	b.n	13c2 <BufferedSerial::txIrq()+0x4>
    13f6:	2300      	movs	r3, #0
    13f8:	0020      	movs	r0, r4
    13fa:	2201      	movs	r2, #1
    13fc:	4669      	mov	r1, sp
    13fe:	9303      	str	r3, [sp, #12]
    1400:	f002 fc3c 	bl	3c7c <mbed::SerialBase::attach(mbed::Callback<void ()>, mbed::SerialBase::IrqType)>
    1404:	4668      	mov	r0, sp
    1406:	f7ff ff7b 	bl	1300 <mbed::Callback<void ()>::~Callback()>
    140a:	bd7f      	pop	{r0, r1, r2, r3, r4, r5, r6, pc}

0000140c <void mbed::SerialBase::attach<BufferedSerial>(BufferedSerial*, void (BufferedSerial::*)(), mbed::SerialBase::IrqType)>:
    140c:	b510      	push	{r4, lr}
    140e:	0014      	movs	r4, r2
    1410:	b086      	sub	sp, #24
    1412:	9303      	str	r3, [sp, #12]
    1414:	aa08      	add	r2, sp, #32
    1416:	4b06      	ldr	r3, [pc, #24]	; (1430 <void mbed::SerialBase::attach<BufferedSerial>(BufferedSerial*, void (BufferedSerial::*)(), mbed::SerialBase::IrqType)+0x24>)
    1418:	7812      	ldrb	r2, [r2, #0]
    141a:	9104      	str	r1, [sp, #16]
    141c:	a902      	add	r1, sp, #8
    141e:	9305      	str	r3, [sp, #20]
    1420:	9402      	str	r4, [sp, #8]
    1422:	f002 fc2b 	bl	3c7c <mbed::SerialBase::attach(mbed::Callback<void ()>, mbed::SerialBase::IrqType)>
    1426:	a802      	add	r0, sp, #8
    1428:	f7ff ff6a 	bl	1300 <mbed::Callback<void ()>::~Callback()>
    142c:	b006      	add	sp, #24
    142e:	bd10      	pop	{r4, pc}
    1430:	00007538 	.word	0x00007538

00001434 <BufferedSerial::BufferedSerial(PinName, PinName, unsigned long, unsigned long, char const*)>:
    1434:	b57f      	push	{r0, r1, r2, r3, r4, r5, r6, lr}
    1436:	001d      	movs	r5, r3
    1438:	2396      	movs	r3, #150	; 0x96
    143a:	0004      	movs	r4, r0
    143c:	019b      	lsls	r3, r3, #6
    143e:	9e08      	ldr	r6, [sp, #32]
    1440:	f002 fbb2 	bl	3ba8 <mbed::RawSerial::RawSerial(PinName, PinName, int)>
    1444:	0020      	movs	r0, r4
    1446:	4b0c      	ldr	r3, [pc, #48]	; (1478 <BufferedSerial::BufferedSerial(PinName, PinName, unsigned long, unsigned long, char const*)+0x44>)
    1448:	0029      	movs	r1, r5
    144a:	3308      	adds	r3, #8
    144c:	6023      	str	r3, [r4, #0]
    144e:	3030      	adds	r0, #48	; 0x30
    1450:	f000 f8e1 	bl	1616 <Buffer<char>::Buffer(unsigned long)>
    1454:	0031      	movs	r1, r6
    1456:	0020      	movs	r0, r4
    1458:	4369      	muls	r1, r5
    145a:	3040      	adds	r0, #64	; 0x40
    145c:	f000 f8db 	bl	1616 <Buffer<char>::Buffer(unsigned long)>
    1460:	2300      	movs	r3, #0
    1462:	0020      	movs	r0, r4
    1464:	9300      	str	r3, [sp, #0]
    1466:	4a05      	ldr	r2, [pc, #20]	; (147c <BufferedSerial::BufferedSerial(PinName, PinName, unsigned long, unsigned long, char const*)+0x48>)
    1468:	0021      	movs	r1, r4
    146a:	f7ff ffcf 	bl	140c <void mbed::SerialBase::attach<BufferedSerial>(BufferedSerial*, void (BufferedSerial::*)(), mbed::SerialBase::IrqType)>
    146e:	0020      	movs	r0, r4
    1470:	6525      	str	r5, [r4, #80]	; 0x50
    1472:	6566      	str	r6, [r4, #84]	; 0x54
    1474:	b004      	add	sp, #16
    1476:	bd70      	pop	{r4, r5, r6, pc}
    1478:	000075bc 	.word	0x000075bc
    147c:	000014e5 	.word	0x000014e5

00001480 <BufferedSerial::prime()>:
    1480:	b530      	push	{r4, r5, lr}
    1482:	0004      	movs	r4, r0
    1484:	b087      	sub	sp, #28
    1486:	3004      	adds	r0, #4
    1488:	f002 fa7d 	bl	3986 <serial_writable>
    148c:	2800      	cmp	r0, #0
    148e:	d016      	beq.n	14be <BufferedSerial::prime()+0x3e>
    1490:	2500      	movs	r5, #0
    1492:	2201      	movs	r2, #1
    1494:	a902      	add	r1, sp, #8
    1496:	0020      	movs	r0, r4
    1498:	9505      	str	r5, [sp, #20]
    149a:	f002 fbef 	bl	3c7c <mbed::SerialBase::attach(mbed::Callback<void ()>, mbed::SerialBase::IrqType)>
    149e:	a802      	add	r0, sp, #8
    14a0:	f7ff ff2e 	bl	1300 <mbed::Callback<void ()>::~Callback()>
    14a4:	0020      	movs	r0, r4
    14a6:	f7ff ff8a 	bl	13be <BufferedSerial::txIrq()>
    14aa:	2301      	movs	r3, #1
    14ac:	4a05      	ldr	r2, [pc, #20]	; (14c4 <BufferedSerial::prime()+0x44>)
    14ae:	9300      	str	r3, [sp, #0]
    14b0:	0021      	movs	r1, r4
    14b2:	002b      	movs	r3, r5
    14b4:	0020      	movs	r0, r4
    14b6:	9202      	str	r2, [sp, #8]
    14b8:	9503      	str	r5, [sp, #12]
    14ba:	f7ff ffa7 	bl	140c <void mbed::SerialBase::attach<BufferedSerial>(BufferedSerial*, void (BufferedSerial::*)(), mbed::SerialBase::IrqType)>
    14be:	b007      	add	sp, #28
    14c0:	bd30      	pop	{r4, r5, pc}
    14c2:	46c0      	nop			; (mov r8, r8)
    14c4:	000013bf 	.word	0x000013bf

000014c8 <Buffer<char>::put(char)>:
    14c8:	b510      	push	{r4, lr}
    14ca:	0004      	movs	r4, r0
    14cc:	6843      	ldr	r3, [r0, #4]
    14ce:	1c5a      	adds	r2, r3, #1
    14d0:	6042      	str	r2, [r0, #4]
    14d2:	6802      	ldr	r2, [r0, #0]
    14d4:	54d1      	strb	r1, [r2, r3]
    14d6:	68e3      	ldr	r3, [r4, #12]
    14d8:	6840      	ldr	r0, [r0, #4]
    14da:	1e59      	subs	r1, r3, #1
    14dc:	f002 fe9c 	bl	4218 <__aeabi_uidivmod>
    14e0:	6061      	str	r1, [r4, #4]
    14e2:	bd10      	pop	{r4, pc}

000014e4 <BufferedSerial::rxIrq()>:
    14e4:	b570      	push	{r4, r5, r6, lr}
    14e6:	1d05      	adds	r5, r0, #4
    14e8:	0004      	movs	r4, r0
    14ea:	0028      	movs	r0, r5
    14ec:	f002 fa34 	bl	3958 <serial_readable>
    14f0:	2800      	cmp	r0, #0
    14f2:	d007      	beq.n	1504 <BufferedSerial::rxIrq()+0x20>
    14f4:	0028      	movs	r0, r5
    14f6:	f002 fa3b 	bl	3970 <serial_getc>
    14fa:	b2c1      	uxtb	r1, r0
    14fc:	0020      	movs	r0, r4
    14fe:	3030      	adds	r0, #48	; 0x30
    1500:	f7ff ffe2 	bl	14c8 <Buffer<char>::put(char)>
    1504:	bd70      	pop	{r4, r5, r6, pc}

00001506 <BufferedSerial::putc(int)>:
    1506:	b570      	push	{r4, r5, r6, lr}
    1508:	0005      	movs	r5, r0
    150a:	000c      	movs	r4, r1
    150c:	3040      	adds	r0, #64	; 0x40
    150e:	b2c9      	uxtb	r1, r1
    1510:	f7ff ffda 	bl	14c8 <Buffer<char>::put(char)>
    1514:	0028      	movs	r0, r5
    1516:	f7ff ffb3 	bl	1480 <BufferedSerial::prime()>
    151a:	0020      	movs	r0, r4
    151c:	bd70      	pop	{r4, r5, r6, pc}

0000151e <BufferedSerial::puts(char const*)>:
    151e:	b570      	push	{r4, r5, r6, lr}
    1520:	0006      	movs	r6, r0
    1522:	000d      	movs	r5, r1
    1524:	1e08      	subs	r0, r1, #0
    1526:	d011      	beq.n	154c <BufferedSerial::puts(char const*)+0x2e>
    1528:	000c      	movs	r4, r1
    152a:	0030      	movs	r0, r6
    152c:	7821      	ldrb	r1, [r4, #0]
    152e:	3040      	adds	r0, #64	; 0x40
    1530:	2900      	cmp	r1, #0
    1532:	d003      	beq.n	153c <BufferedSerial::puts(char const*)+0x1e>
    1534:	3401      	adds	r4, #1
    1536:	f7ff ffc7 	bl	14c8 <Buffer<char>::put(char)>
    153a:	e7f6      	b.n	152a <BufferedSerial::puts(char const*)+0xc>
    153c:	210a      	movs	r1, #10
    153e:	f7ff ffc3 	bl	14c8 <Buffer<char>::put(char)>
    1542:	0030      	movs	r0, r6
    1544:	f7ff ff9c 	bl	1480 <BufferedSerial::prime()>
    1548:	1b60      	subs	r0, r4, r5
    154a:	3001      	adds	r0, #1
    154c:	bd70      	pop	{r4, r5, r6, pc}

0000154e <BufferedSerial::write(void const*, unsigned int)>:
    154e:	b5f8      	push	{r3, r4, r5, r6, r7, lr}
    1550:	0005      	movs	r5, r0
    1552:	000e      	movs	r6, r1
    1554:	1e08      	subs	r0, r1, #0
    1556:	d012      	beq.n	157e <BufferedSerial::write(void const*, unsigned int)+0x30>
    1558:	2000      	movs	r0, #0
    155a:	4282      	cmp	r2, r0
    155c:	d00f      	beq.n	157e <BufferedSerial::write(void const*, unsigned int)+0x30>
    155e:	000c      	movs	r4, r1
    1560:	188f      	adds	r7, r1, r2
    1562:	42bc      	cmp	r4, r7
    1564:	d006      	beq.n	1574 <BufferedSerial::write(void const*, unsigned int)+0x26>
    1566:	0028      	movs	r0, r5
    1568:	7821      	ldrb	r1, [r4, #0]
    156a:	3040      	adds	r0, #64	; 0x40
    156c:	f7ff ffac 	bl	14c8 <Buffer<char>::put(char)>
    1570:	3401      	adds	r4, #1
    1572:	e7f6      	b.n	1562 <BufferedSerial::write(void const*, unsigned int)+0x14>
    1574:	0028      	movs	r0, r5
    1576:	1ba4      	subs	r4, r4, r6
    1578:	f7ff ff82 	bl	1480 <BufferedSerial::prime()>
    157c:	0020      	movs	r0, r4
    157e:	bdf8      	pop	{r3, r4, r5, r6, r7, pc}

00001580 <BufferedSerial::printf(char const*, ...)>:
    1580:	b40e      	push	{r1, r2, r3}
    1582:	2208      	movs	r2, #8
    1584:	231c      	movs	r3, #28
    1586:	b5f0      	push	{r4, r5, r6, r7, lr}
    1588:	b086      	sub	sp, #24
    158a:	af02      	add	r7, sp, #8
    158c:	18ba      	adds	r2, r7, r2
    158e:	18d4      	adds	r4, r2, r3
    1590:	466a      	mov	r2, sp
    1592:	cc08      	ldmia	r4!, {r3}
    1594:	0005      	movs	r5, r0
    1596:	607b      	str	r3, [r7, #4]
    1598:	6d03      	ldr	r3, [r0, #80]	; 0x50
    159a:	2100      	movs	r1, #0
    159c:	3307      	adds	r3, #7
    159e:	08db      	lsrs	r3, r3, #3
    15a0:	00db      	lsls	r3, r3, #3
    15a2:	1ad3      	subs	r3, r2, r3
    15a4:	469d      	mov	sp, r3
    15a6:	ae02      	add	r6, sp, #8
    15a8:	6d02      	ldr	r2, [r0, #80]	; 0x50
    15aa:	0030      	movs	r0, r6
    15ac:	f005 fa10 	bl	69d0 <memset>
    15b0:	0022      	movs	r2, r4
    15b2:	6879      	ldr	r1, [r7, #4]
    15b4:	0030      	movs	r0, r6
    15b6:	60fc      	str	r4, [r7, #12]
    15b8:	f005 fcf0 	bl	6f9c <vsiprintf>
    15bc:	6d2b      	ldr	r3, [r5, #80]	; 0x50
    15be:	0002      	movs	r2, r0
    15c0:	4283      	cmp	r3, r0
    15c2:	d20c      	bcs.n	15de <BufferedSerial::printf(char const*, ...)+0x5e>
    15c4:	9000      	str	r0, [sp, #0]
    15c6:	225d      	movs	r2, #93	; 0x5d
    15c8:	4807      	ldr	r0, [pc, #28]	; (15e8 <BufferedSerial::printf(char const*, ...)+0x68>)
    15ca:	4908      	ldr	r1, [pc, #32]	; (15ec <BufferedSerial::printf(char const*, ...)+0x6c>)
    15cc:	f000 f934 	bl	1838 <error>
    15d0:	2000      	movs	r0, #0
    15d2:	46bd      	mov	sp, r7
    15d4:	b004      	add	sp, #16
    15d6:	bcf0      	pop	{r4, r5, r6, r7}
    15d8:	bc08      	pop	{r3}
    15da:	b003      	add	sp, #12
    15dc:	4718      	bx	r3
    15de:	0031      	movs	r1, r6
    15e0:	0028      	movs	r0, r5
    15e2:	f7ff ffb4 	bl	154e <BufferedSerial::write(void const*, unsigned int)>
    15e6:	e7f4      	b.n	15d2 <BufferedSerial::printf(char const*, ...)+0x52>
    15e8:	00007582 	.word	0x00007582
    15ec:	00007544 	.word	0x00007544

000015f0 <Buffer<char>::~Buffer()>:
    15f0:	b510      	push	{r4, lr}
    15f2:	0004      	movs	r4, r0
    15f4:	6800      	ldr	r0, [r0, #0]
    15f6:	2800      	cmp	r0, #0
    15f8:	d001      	beq.n	15fe <Buffer<char>::~Buffer()+0xe>
    15fa:	f002 fcbf 	bl	3f7c <operator delete[](void*)>
    15fe:	0020      	movs	r0, r4
    1600:	bd10      	pop	{r4, pc}

00001602 <Buffer<char>::clear()>:
    1602:	0003      	movs	r3, r0
    1604:	2100      	movs	r1, #0
    1606:	b510      	push	{r4, lr}
    1608:	68da      	ldr	r2, [r3, #12]
    160a:	6041      	str	r1, [r0, #4]
    160c:	6081      	str	r1, [r0, #8]
    160e:	6800      	ldr	r0, [r0, #0]
    1610:	f005 f9de 	bl	69d0 <memset>
    1614:	bd10      	pop	{r4, pc}

00001616 <Buffer<char>::Buffer(unsigned long)>:
    1616:	b570      	push	{r4, r5, r6, lr}
    1618:	0004      	movs	r4, r0
    161a:	0008      	movs	r0, r1
    161c:	000d      	movs	r5, r1
    161e:	f002 fca1 	bl	3f64 <operator new[](unsigned int)>
    1622:	60e5      	str	r5, [r4, #12]
    1624:	6020      	str	r0, [r4, #0]
    1626:	0020      	movs	r0, r4
    1628:	f7ff ffeb 	bl	1602 <Buffer<char>::clear()>
    162c:	0020      	movs	r0, r4
    162e:	bd70      	pop	{r4, r5, r6, pc}

00001630 <_gpio_init_in>:
    1630:	b570      	push	{r4, r5, r6, lr}
    1632:	000d      	movs	r5, r1
    1634:	0004      	movs	r4, r0
    1636:	0016      	movs	r6, r2
    1638:	f001 fbde 	bl	2df8 <gpio_init>
    163c:	1c6b      	adds	r3, r5, #1
    163e:	d007      	beq.n	1650 <_gpio_init_in+0x20>
    1640:	2100      	movs	r1, #0
    1642:	0020      	movs	r0, r4
    1644:	f001 fbf8 	bl	2e38 <gpio_dir>
    1648:	0031      	movs	r1, r6
    164a:	0020      	movs	r0, r4
    164c:	f001 fbee 	bl	2e2c <gpio_mode>
    1650:	bd70      	pop	{r4, r5, r6, pc}

00001652 <_gpio_init_out.part.1>:
    1652:	b570      	push	{r4, r5, r6, lr}
    1654:	6843      	ldr	r3, [r0, #4]
    1656:	0004      	movs	r4, r0
    1658:	000d      	movs	r5, r1
    165a:	2a00      	cmp	r2, #0
    165c:	d00a      	beq.n	1674 <_gpio_init_out.part.1+0x22>
    165e:	68c2      	ldr	r2, [r0, #12]
    1660:	6013      	str	r3, [r2, #0]
    1662:	0020      	movs	r0, r4
    1664:	2101      	movs	r1, #1
    1666:	f001 fbe7 	bl	2e38 <gpio_dir>
    166a:	0029      	movs	r1, r5
    166c:	0020      	movs	r0, r4
    166e:	f001 fbdd 	bl	2e2c <gpio_mode>
    1672:	bd70      	pop	{r4, r5, r6, pc}
    1674:	6902      	ldr	r2, [r0, #16]
    1676:	e7f3      	b.n	1660 <_gpio_init_out.part.1+0xe>

00001678 <gpio_init_in>:
    1678:	b510      	push	{r4, lr}
    167a:	2202      	movs	r2, #2
    167c:	f7ff ffd8 	bl	1630 <_gpio_init_in>
    1680:	bd10      	pop	{r4, pc}

00001682 <gpio_init_out_ex>:
    1682:	b570      	push	{r4, r5, r6, lr}
    1684:	000d      	movs	r5, r1
    1686:	0004      	movs	r4, r0
    1688:	0016      	movs	r6, r2
    168a:	f001 fbb5 	bl	2df8 <gpio_init>
    168e:	1c6b      	adds	r3, r5, #1
    1690:	d004      	beq.n	169c <gpio_init_out_ex+0x1a>
    1692:	0032      	movs	r2, r6
    1694:	2100      	movs	r1, #0
    1696:	0020      	movs	r0, r4
    1698:	f7ff ffdb 	bl	1652 <_gpio_init_out.part.1>
    169c:	bd70      	pop	{r4, r5, r6, pc}

0000169e <gpio_init_out>:
    169e:	b510      	push	{r4, lr}
    16a0:	2200      	movs	r2, #0
    16a2:	f7ff ffee 	bl	1682 <gpio_init_out_ex>
    16a6:	bd10      	pop	{r4, pc}

000016a8 <get_us_ticker_data>:
    16a8:	4800      	ldr	r0, [pc, #0]	; (16ac <get_us_ticker_data+0x4>)
    16aa:	4770      	bx	lr
    16ac:	000075f0 	.word	0x000075f0

000016b0 <us_ticker_irq_handler>:
    16b0:	b510      	push	{r4, lr}
    16b2:	4802      	ldr	r0, [pc, #8]	; (16bc <us_ticker_irq_handler+0xc>)
    16b4:	f000 f804 	bl	16c0 <ticker_irq_handler>
    16b8:	bd10      	pop	{r4, pc}
    16ba:	46c0      	nop			; (mov r8, r8)
    16bc:	000075f0 	.word	0x000075f0

000016c0 <ticker_irq_handler>:
    16c0:	6803      	ldr	r3, [r0, #0]
    16c2:	b570      	push	{r4, r5, r6, lr}
    16c4:	68db      	ldr	r3, [r3, #12]
    16c6:	0004      	movs	r4, r0
    16c8:	4798      	blx	r3
    16ca:	6863      	ldr	r3, [r4, #4]
    16cc:	685a      	ldr	r2, [r3, #4]
    16ce:	6823      	ldr	r3, [r4, #0]
    16d0:	2a00      	cmp	r2, #0
    16d2:	d102      	bne.n	16da <ticker_irq_handler+0x1a>
    16d4:	689b      	ldr	r3, [r3, #8]
    16d6:	4798      	blx	r3
    16d8:	bd70      	pop	{r4, r5, r6, pc}
    16da:	685b      	ldr	r3, [r3, #4]
    16dc:	6815      	ldr	r5, [r2, #0]
    16de:	4798      	blx	r3
    16e0:	6863      	ldr	r3, [r4, #4]
    16e2:	1a2d      	subs	r5, r5, r0
    16e4:	685a      	ldr	r2, [r3, #4]
    16e6:	2d00      	cmp	r5, #0
    16e8:	dc07      	bgt.n	16fa <ticker_irq_handler+0x3a>
    16ea:	6891      	ldr	r1, [r2, #8]
    16ec:	6059      	str	r1, [r3, #4]
    16ee:	681b      	ldr	r3, [r3, #0]
    16f0:	2b00      	cmp	r3, #0
    16f2:	d0ea      	beq.n	16ca <ticker_irq_handler+0xa>
    16f4:	6850      	ldr	r0, [r2, #4]
    16f6:	4798      	blx	r3
    16f8:	e7e7      	b.n	16ca <ticker_irq_handler+0xa>
    16fa:	6823      	ldr	r3, [r4, #0]
    16fc:	6810      	ldr	r0, [r2, #0]
    16fe:	691b      	ldr	r3, [r3, #16]
    1700:	4798      	blx	r3
    1702:	e7e9      	b.n	16d8 <ticker_irq_handler+0x18>

00001704 <ticker_read>:
    1704:	b510      	push	{r4, lr}
    1706:	6803      	ldr	r3, [r0, #0]
    1708:	685b      	ldr	r3, [r3, #4]
    170a:	4798      	blx	r3
    170c:	bd10      	pop	{r4, pc}
	...

00001710 <pinmap_pinout>:
    1710:	b510      	push	{r4, lr}
    1712:	0004      	movs	r4, r0
    1714:	1c43      	adds	r3, r0, #1
    1716:	d10c      	bne.n	1732 <pinmap_pinout+0x22>
    1718:	bd10      	pop	{r4, pc}
    171a:	429c      	cmp	r4, r3
    171c:	d108      	bne.n	1730 <pinmap_pinout+0x20>
    171e:	0020      	movs	r0, r4
    1720:	6889      	ldr	r1, [r1, #8]
    1722:	f001 feab 	bl	347c <pin_function>
    1726:	2100      	movs	r1, #0
    1728:	0020      	movs	r0, r4
    172a:	f001 fec7 	bl	34bc <pin_mode>
    172e:	e7f3      	b.n	1718 <pinmap_pinout+0x8>
    1730:	310c      	adds	r1, #12
    1732:	2200      	movs	r2, #0
    1734:	5e8b      	ldrsh	r3, [r1, r2]
    1736:	1c5a      	adds	r2, r3, #1
    1738:	d1ef      	bne.n	171a <pinmap_pinout+0xa>
    173a:	4802      	ldr	r0, [pc, #8]	; (1744 <pinmap_pinout+0x34>)
    173c:	f000 f87c 	bl	1838 <error>
    1740:	e7ea      	b.n	1718 <pinmap_pinout+0x8>
    1742:	46c0      	nop			; (mov r8, r8)
    1744:	0000763d 	.word	0x0000763d

00001748 <pinmap_merge>:
    1748:	b510      	push	{r4, lr}
    174a:	4288      	cmp	r0, r1
    174c:	d008      	beq.n	1760 <pinmap_merge+0x18>
    174e:	1c43      	adds	r3, r0, #1
    1750:	d006      	beq.n	1760 <pinmap_merge+0x18>
    1752:	1c4b      	adds	r3, r1, #1
    1754:	d006      	beq.n	1764 <pinmap_merge+0x1c>
    1756:	4804      	ldr	r0, [pc, #16]	; (1768 <pinmap_merge+0x20>)
    1758:	f000 f86e 	bl	1838 <error>
    175c:	2101      	movs	r1, #1
    175e:	4249      	negs	r1, r1
    1760:	0008      	movs	r0, r1
    1762:	bd10      	pop	{r4, pc}
    1764:	0001      	movs	r1, r0
    1766:	e7fb      	b.n	1760 <pinmap_merge+0x18>
    1768:	0000760c 	.word	0x0000760c

0000176c <pinmap_find_peripheral>:
    176c:	2200      	movs	r2, #0
    176e:	5e8b      	ldrsh	r3, [r1, r2]
    1770:	1c5a      	adds	r2, r3, #1
    1772:	d101      	bne.n	1778 <pinmap_find_peripheral+0xc>
    1774:	0018      	movs	r0, r3
    1776:	e002      	b.n	177e <pinmap_find_peripheral+0x12>
    1778:	4283      	cmp	r3, r0
    177a:	d101      	bne.n	1780 <pinmap_find_peripheral+0x14>
    177c:	6848      	ldr	r0, [r1, #4]
    177e:	4770      	bx	lr
    1780:	310c      	adds	r1, #12
    1782:	e7f3      	b.n	176c <pinmap_find_peripheral>

00001784 <pinmap_peripheral>:
    1784:	b510      	push	{r4, lr}
    1786:	0004      	movs	r4, r0
    1788:	1c43      	adds	r3, r0, #1
    178a:	d007      	beq.n	179c <pinmap_peripheral+0x18>
    178c:	f7ff ffee 	bl	176c <pinmap_find_peripheral>
    1790:	0004      	movs	r4, r0
    1792:	1c43      	adds	r3, r0, #1
    1794:	d102      	bne.n	179c <pinmap_peripheral+0x18>
    1796:	4802      	ldr	r0, [pc, #8]	; (17a0 <pinmap_peripheral+0x1c>)
    1798:	f000 f84e 	bl	1838 <error>
    179c:	0020      	movs	r0, r4
    179e:	bd10      	pop	{r4, pc}
    17a0:	0000761d 	.word	0x0000761d

000017a4 <mbed_interface_connected>:
    17a4:	b510      	push	{r4, lr}
    17a6:	f000 f841 	bl	182c <semihost_connected>
    17aa:	bd10      	pop	{r4, pc}

000017ac <core_util_are_interrupts_enabled>:
    17ac:	f3ef 8310 	mrs	r3, PRIMASK
    17b0:	2001      	movs	r0, #1
    17b2:	4398      	bics	r0, r3
    17b4:	4770      	bx	lr
	...

000017b8 <core_util_critical_section_enter>:
    17b8:	b510      	push	{r4, lr}
    17ba:	f7ff fff7 	bl	17ac <core_util_are_interrupts_enabled>
    17be:	b672      	cpsid	i
    17c0:	4a06      	ldr	r2, [pc, #24]	; (17dc <core_util_critical_section_enter+0x24>)
    17c2:	6813      	ldr	r3, [r2, #0]
    17c4:	2b00      	cmp	r3, #0
    17c6:	d104      	bne.n	17d2 <core_util_critical_section_enter+0x1a>
    17c8:	3301      	adds	r3, #1
    17ca:	4058      	eors	r0, r3
    17cc:	4b04      	ldr	r3, [pc, #16]	; (17e0 <core_util_critical_section_enter+0x28>)
    17ce:	b2c0      	uxtb	r0, r0
    17d0:	7018      	strb	r0, [r3, #0]
    17d2:	6813      	ldr	r3, [r2, #0]
    17d4:	6813      	ldr	r3, [r2, #0]
    17d6:	3301      	adds	r3, #1
    17d8:	6013      	str	r3, [r2, #0]
    17da:	bd10      	pop	{r4, pc}
    17dc:	1ffff7b0 	.word	0x1ffff7b0
    17e0:	1ffff7ac 	.word	0x1ffff7ac

000017e4 <core_util_critical_section_exit>:
    17e4:	b510      	push	{r4, lr}
    17e6:	4c09      	ldr	r4, [pc, #36]	; (180c <core_util_critical_section_exit+0x28>)
    17e8:	6823      	ldr	r3, [r4, #0]
    17ea:	2b00      	cmp	r3, #0
    17ec:	d00c      	beq.n	1808 <core_util_critical_section_exit+0x24>
    17ee:	f7ff ffdd 	bl	17ac <core_util_are_interrupts_enabled>
    17f2:	6823      	ldr	r3, [r4, #0]
    17f4:	3b01      	subs	r3, #1
    17f6:	6023      	str	r3, [r4, #0]
    17f8:	6823      	ldr	r3, [r4, #0]
    17fa:	2b00      	cmp	r3, #0
    17fc:	d104      	bne.n	1808 <core_util_critical_section_exit+0x24>
    17fe:	4b04      	ldr	r3, [pc, #16]	; (1810 <core_util_critical_section_exit+0x2c>)
    1800:	781b      	ldrb	r3, [r3, #0]
    1802:	2b00      	cmp	r3, #0
    1804:	d100      	bne.n	1808 <core_util_critical_section_exit+0x24>
    1806:	b662      	cpsie	i
    1808:	bd10      	pop	{r4, pc}
    180a:	46c0      	nop			; (mov r8, r8)
    180c:	1ffff7b0 	.word	0x1ffff7b0
    1810:	1ffff7ac 	.word	0x1ffff7ac

00001814 <semihost_exit>:
    1814:	b530      	push	{r4, r5, lr}
    1816:	b085      	sub	sp, #20
    1818:	466d      	mov	r5, sp
    181a:	2418      	movs	r4, #24
    181c:	1c20      	adds	r0, r4, #0
    181e:	1c29      	adds	r1, r5, #0
    1820:	beab      	bkpt	0x00ab
    1822:	1c04      	adds	r4, r0, #0
    1824:	0020      	movs	r0, r4
    1826:	b005      	add	sp, #20
    1828:	bd30      	pop	{r4, r5, pc}
	...

0000182c <semihost_connected>:
    182c:	4b01      	ldr	r3, [pc, #4]	; (1834 <semihost_connected+0x8>)
    182e:	6818      	ldr	r0, [r3, #0]
    1830:	4770      	bx	lr
    1832:	46c0      	nop			; (mov r8, r8)
    1834:	1ffff0c4 	.word	0x1ffff0c4

00001838 <error>:
    1838:	b40f      	push	{r0, r1, r2, r3}
    183a:	2001      	movs	r0, #1
    183c:	b510      	push	{r4, lr}
    183e:	f002 fb85 	bl	3f4c <__wrap_exit>
	...

00001844 <mbed_die>:
    1844:	b510      	push	{r4, lr}
    1846:	b088      	sub	sp, #32
    1848:	f7ff ffb6 	bl	17b8 <core_util_critical_section_enter>
    184c:	4909      	ldr	r1, [pc, #36]	; (1874 <mbed_die+0x30>)
    184e:	a802      	add	r0, sp, #8
    1850:	f7ff ff25 	bl	169e <gpio_init_out>
    1854:	2496      	movs	r4, #150	; 0x96
    1856:	9a03      	ldr	r2, [sp, #12]
    1858:	9b05      	ldr	r3, [sp, #20]
    185a:	0020      	movs	r0, r4
    185c:	601a      	str	r2, [r3, #0]
    185e:	9201      	str	r2, [sp, #4]
    1860:	f002 fa66 	bl	3d30 <wait_ms>
    1864:	9a03      	ldr	r2, [sp, #12]
    1866:	9b06      	ldr	r3, [sp, #24]
    1868:	0020      	movs	r0, r4
    186a:	601a      	str	r2, [r3, #0]
    186c:	9201      	str	r2, [sp, #4]
    186e:	f002 fa5f 	bl	3d30 <wait_ms>
    1872:	e7f0      	b.n	1856 <mbed_die+0x12>
    1874:	00001048 	.word	0x00001048

00001878 <default_idle_hook>:
    1878:	b510      	push	{r4, lr}
    187a:	f001 faed 	bl	2e58 <hal_sleep>
    187e:	bd10      	pop	{r4, pc}

00001880 <rtos_idle_loop>:
    1880:	b510      	push	{r4, lr}
    1882:	4b02      	ldr	r3, [pc, #8]	; (188c <rtos_idle_loop+0xc>)
    1884:	681b      	ldr	r3, [r3, #0]
    1886:	4798      	blx	r3
    1888:	e7fb      	b.n	1882 <rtos_idle_loop+0x2>
    188a:	46c0      	nop			; (mov r8, r8)
    188c:	1ffff0c8 	.word	0x1ffff0c8

00001890 <pre_main>:
    1890:	b510      	push	{r4, lr}
    1892:	480c      	ldr	r0, [pc, #48]	; (18c4 <pre_main+0x34>)
    1894:	f000 fdd4 	bl	2440 <osMutexCreate>
    1898:	0002      	movs	r2, r0
    189a:	4b0b      	ldr	r3, [pc, #44]	; (18c8 <pre_main+0x38>)
    189c:	480b      	ldr	r0, [pc, #44]	; (18cc <pre_main+0x3c>)
    189e:	601a      	str	r2, [r3, #0]
    18a0:	f000 fdce 	bl	2440 <osMutexCreate>
    18a4:	0002      	movs	r2, r0
    18a6:	4b0a      	ldr	r3, [pc, #40]	; (18d0 <pre_main+0x40>)
    18a8:	480a      	ldr	r0, [pc, #40]	; (18d4 <pre_main+0x44>)
    18aa:	601a      	str	r2, [r3, #0]
    18ac:	f000 fdc8 	bl	2440 <osMutexCreate>
    18b0:	4b09      	ldr	r3, [pc, #36]	; (18d8 <pre_main+0x48>)
    18b2:	6018      	str	r0, [r3, #0]
    18b4:	f005 f82e 	bl	6914 <__libc_init_array>
    18b8:	2100      	movs	r1, #0
    18ba:	2000      	movs	r0, #0
    18bc:	f002 fb03 	bl	3ec6 <__wrap_main>
    18c0:	bd10      	pop	{r4, pc}
    18c2:	46c0      	nop			; (mov r8, r8)
    18c4:	0000769c 	.word	0x0000769c
    18c8:	20000c1c 	.word	0x20000c1c
    18cc:	00007698 	.word	0x00007698
    18d0:	1ffff7bc 	.word	0x1ffff7bc
    18d4:	00007694 	.word	0x00007694
    18d8:	1ffff7b4 	.word	0x1ffff7b4

000018dc <os_idle_demon>:
    18dc:	b510      	push	{r4, lr}
    18de:	f7ff ffcf 	bl	1880 <rtos_idle_loop>
    18e2:	bd10      	pop	{r4, pc}

000018e4 <os_error>:
    18e4:	b510      	push	{r4, lr}
    18e6:	0004      	movs	r4, r0
    18e8:	f000 fd0a 	bl	2300 <svcThreadGetId>
    18ec:	0021      	movs	r1, r4
    18ee:	0002      	movs	r2, r0
    18f0:	4801      	ldr	r0, [pc, #4]	; (18f8 <os_error+0x14>)
    18f2:	f7ff ffa1 	bl	1838 <error>
    18f6:	bd10      	pop	{r4, pc}
    18f8:	0000765c 	.word	0x0000765c

000018fc <sysThreadTerminate>:
    18fc:	b510      	push	{r4, lr}
    18fe:	f002 fb47 	bl	3f90 <thread_terminate_hook>
    1902:	bd10      	pop	{r4, pc}

00001904 <set_stack_heap>:
    1904:	2280      	movs	r2, #128	; 0x80
    1906:	490a      	ldr	r1, [pc, #40]	; (1930 <set_stack_heap+0x2c>)
    1908:	4b0a      	ldr	r3, [pc, #40]	; (1934 <set_stack_heap+0x30>)
    190a:	b510      	push	{r4, lr}
    190c:	1a5b      	subs	r3, r3, r1
    190e:	0092      	lsls	r2, r2, #2
    1910:	0018      	movs	r0, r3
    1912:	4293      	cmp	r3, r2
    1914:	d900      	bls.n	1918 <set_stack_heap+0x14>
    1916:	0010      	movs	r0, r2
    1918:	4a07      	ldr	r2, [pc, #28]	; (1938 <set_stack_heap+0x34>)
    191a:	1a1b      	subs	r3, r3, r0
    191c:	4c07      	ldr	r4, [pc, #28]	; (193c <set_stack_heap+0x38>)
    191e:	6013      	str	r3, [r2, #0]
    1920:	18cb      	adds	r3, r1, r3
    1922:	4a07      	ldr	r2, [pc, #28]	; (1940 <set_stack_heap+0x3c>)
    1924:	6023      	str	r3, [r4, #0]
    1926:	4b07      	ldr	r3, [pc, #28]	; (1944 <set_stack_heap+0x40>)
    1928:	6010      	str	r0, [r2, #0]
    192a:	6019      	str	r1, [r3, #0]
    192c:	bd10      	pop	{r4, pc}
    192e:	46c0      	nop			; (mov r8, r8)
    1930:	200011b8 	.word	0x200011b8
    1934:	20003000 	.word	0x20003000
    1938:	20000950 	.word	0x20000950
    193c:	1ffff7c4 	.word	0x1ffff7c4
    1940:	1ffff7c0 	.word	0x1ffff7c0
    1944:	20000954 	.word	0x20000954

00001948 <software_init_hook_rtos>:
    1948:	f000 fe60 	bl	260c <osKernelInitialize>
    194c:	f7ff ffda 	bl	1904 <set_stack_heap>
    1950:	4803      	ldr	r0, [pc, #12]	; (1960 <software_init_hook_rtos+0x18>)
    1952:	2100      	movs	r1, #0
    1954:	f000 fe06 	bl	2564 <osThreadCreate>
    1958:	f000 fc4a 	bl	21f0 <osKernelStart>
    195c:	e7fe      	b.n	195c <software_init_hook_rtos+0x14>
    195e:	0000      	.short	0x0000
    1960:	1ffff0cc 	.word	0x1ffff0cc

00001964 <__rtos_malloc_lock>:
    1964:	2101      	movs	r1, #1
    1966:	b510      	push	{r4, lr}
    1968:	4b02      	ldr	r3, [pc, #8]	; (1974 <__rtos_malloc_lock+0x10>)
    196a:	4249      	negs	r1, r1
    196c:	6818      	ldr	r0, [r3, #0]
    196e:	f000 fd89 	bl	2484 <osMutexWait>
    1972:	bd10      	pop	{r4, pc}
    1974:	1ffff7bc 	.word	0x1ffff7bc

00001978 <__rtos_malloc_unlock>:
    1978:	b510      	push	{r4, lr}
    197a:	4b02      	ldr	r3, [pc, #8]	; (1984 <__rtos_malloc_unlock+0xc>)
    197c:	6818      	ldr	r0, [r3, #0]
    197e:	f000 fdab 	bl	24d8 <osMutexRelease>
    1982:	bd10      	pop	{r4, pc}
    1984:	1ffff7bc 	.word	0x1ffff7bc

00001988 <rt_put_prio>:
    1988:	7802      	ldrb	r2, [r0, #0]
    198a:	b530      	push	{r4, r5, lr}
    198c:	3a01      	subs	r2, #1
    198e:	788c      	ldrb	r4, [r1, #2]
    1990:	6843      	ldr	r3, [r0, #4]
    1992:	b2d2      	uxtb	r2, r2
    1994:	2b00      	cmp	r3, #0
    1996:	d002      	beq.n	199e <rt_put_prio+0x16>
    1998:	789d      	ldrb	r5, [r3, #2]
    199a:	42a5      	cmp	r5, r4
    199c:	d208      	bcs.n	19b0 <rt_put_prio+0x28>
    199e:	604b      	str	r3, [r1, #4]
    19a0:	6041      	str	r1, [r0, #4]
    19a2:	2a02      	cmp	r2, #2
    19a4:	d807      	bhi.n	19b6 <rt_put_prio+0x2e>
    19a6:	2b00      	cmp	r3, #0
    19a8:	d000      	beq.n	19ac <rt_put_prio+0x24>
    19aa:	6099      	str	r1, [r3, #8]
    19ac:	6088      	str	r0, [r1, #8]
    19ae:	bd30      	pop	{r4, r5, pc}
    19b0:	0018      	movs	r0, r3
    19b2:	685b      	ldr	r3, [r3, #4]
    19b4:	e7ee      	b.n	1994 <rt_put_prio+0xc>
    19b6:	2300      	movs	r3, #0
    19b8:	608b      	str	r3, [r1, #8]
    19ba:	e7f8      	b.n	19ae <rt_put_prio+0x26>

000019bc <rt_get_first>:
    19bc:	6843      	ldr	r3, [r0, #4]
    19be:	b510      	push	{r4, lr}
    19c0:	7804      	ldrb	r4, [r0, #0]
    19c2:	6859      	ldr	r1, [r3, #4]
    19c4:	3c01      	subs	r4, #1
    19c6:	6041      	str	r1, [r0, #4]
    19c8:	2200      	movs	r2, #0
    19ca:	2c02      	cmp	r4, #2
    19cc:	d806      	bhi.n	19dc <rt_get_first+0x20>
    19ce:	4291      	cmp	r1, r2
    19d0:	d001      	beq.n	19d6 <rt_get_first+0x1a>
    19d2:	6088      	str	r0, [r1, #8]
    19d4:	605a      	str	r2, [r3, #4]
    19d6:	609a      	str	r2, [r3, #8]
    19d8:	0018      	movs	r0, r3
    19da:	bd10      	pop	{r4, pc}
    19dc:	605a      	str	r2, [r3, #4]
    19de:	e7fb      	b.n	19d8 <rt_get_first+0x1c>

000019e0 <rt_put_rdy_first>:
    19e0:	4b03      	ldr	r3, [pc, #12]	; (19f0 <rt_put_rdy_first+0x10>)
    19e2:	685a      	ldr	r2, [r3, #4]
    19e4:	6042      	str	r2, [r0, #4]
    19e6:	2200      	movs	r2, #0
    19e8:	6058      	str	r0, [r3, #4]
    19ea:	6082      	str	r2, [r0, #8]
    19ec:	4770      	bx	lr
    19ee:	46c0      	nop			; (mov r8, r8)
    19f0:	20001110 	.word	0x20001110

000019f4 <rt_put_dly>:
    19f4:	4a12      	ldr	r2, [pc, #72]	; (1a40 <rt_put_dly+0x4c>)
    19f6:	b510      	push	{r4, lr}
    19f8:	68d3      	ldr	r3, [r2, #12]
    19fa:	2b00      	cmp	r3, #0
    19fc:	d013      	beq.n	1a26 <rt_put_dly+0x32>
    19fe:	8a93      	ldrh	r3, [r2, #20]
    1a00:	68d4      	ldr	r4, [r2, #12]
    1a02:	428b      	cmp	r3, r1
    1a04:	d30d      	bcc.n	1a22 <rt_put_dly+0x2e>
    1a06:	60c4      	str	r4, [r0, #12]
    1a08:	60d0      	str	r0, [r2, #12]
    1a0a:	68c4      	ldr	r4, [r0, #12]
    1a0c:	6102      	str	r2, [r0, #16]
    1a0e:	2c00      	cmp	r4, #0
    1a10:	d000      	beq.n	1a14 <rt_put_dly+0x20>
    1a12:	6120      	str	r0, [r4, #16]
    1a14:	1a5b      	subs	r3, r3, r1
    1a16:	b29b      	uxth	r3, r3
    1a18:	8283      	strh	r3, [r0, #20]
    1a1a:	8a91      	ldrh	r1, [r2, #20]
    1a1c:	1acb      	subs	r3, r1, r3
    1a1e:	8293      	strh	r3, [r2, #20]
    1a20:	e008      	b.n	1a34 <rt_put_dly+0x40>
    1a22:	2c00      	cmp	r4, #0
    1a24:	d107      	bne.n	1a36 <rt_put_dly+0x42>
    1a26:	2400      	movs	r4, #0
    1a28:	1acb      	subs	r3, r1, r3
    1a2a:	60c4      	str	r4, [r0, #12]
    1a2c:	60d0      	str	r0, [r2, #12]
    1a2e:	6102      	str	r2, [r0, #16]
    1a30:	8293      	strh	r3, [r2, #20]
    1a32:	8284      	strh	r4, [r0, #20]
    1a34:	bd10      	pop	{r4, pc}
    1a36:	8aa2      	ldrh	r2, [r4, #20]
    1a38:	189b      	adds	r3, r3, r2
    1a3a:	0022      	movs	r2, r4
    1a3c:	e7e0      	b.n	1a00 <rt_put_dly+0xc>
    1a3e:	46c0      	nop			; (mov r8, r8)
    1a40:	20001128 	.word	0x20001128

00001a44 <rt_dec_dly>:
    1a44:	b570      	push	{r4, r5, r6, lr}
    1a46:	4d19      	ldr	r5, [pc, #100]	; (1aac <rt_dec_dly+0x68>)
    1a48:	68eb      	ldr	r3, [r5, #12]
    1a4a:	2b00      	cmp	r3, #0
    1a4c:	d009      	beq.n	1a62 <rt_dec_dly+0x1e>
    1a4e:	2601      	movs	r6, #1
    1a50:	8aab      	ldrh	r3, [r5, #20]
    1a52:	3b01      	subs	r3, #1
    1a54:	82ab      	strh	r3, [r5, #20]
    1a56:	8aaa      	ldrh	r2, [r5, #20]
    1a58:	2a00      	cmp	r2, #0
    1a5a:	d102      	bne.n	1a62 <rt_dec_dly+0x1e>
    1a5c:	68ec      	ldr	r4, [r5, #12]
    1a5e:	2c00      	cmp	r4, #0
    1a60:	d100      	bne.n	1a64 <rt_dec_dly+0x20>
    1a62:	bd70      	pop	{r4, r5, r6, pc}
    1a64:	68a3      	ldr	r3, [r4, #8]
    1a66:	2b00      	cmp	r3, #0
    1a68:	d008      	beq.n	1a7c <rt_dec_dly+0x38>
    1a6a:	6861      	ldr	r1, [r4, #4]
    1a6c:	6059      	str	r1, [r3, #4]
    1a6e:	6861      	ldr	r1, [r4, #4]
    1a70:	2900      	cmp	r1, #0
    1a72:	d001      	beq.n	1a78 <rt_dec_dly+0x34>
    1a74:	608b      	str	r3, [r1, #8]
    1a76:	6062      	str	r2, [r4, #4]
    1a78:	2300      	movs	r3, #0
    1a7a:	60a3      	str	r3, [r4, #8]
    1a7c:	0021      	movs	r1, r4
    1a7e:	480c      	ldr	r0, [pc, #48]	; (1ab0 <rt_dec_dly+0x6c>)
    1a80:	f7ff ff82 	bl	1988 <rt_put_prio>
    1a84:	8aa3      	ldrh	r3, [r4, #20]
    1a86:	82ab      	strh	r3, [r5, #20]
    1a88:	7863      	ldrb	r3, [r4, #1]
    1a8a:	2b04      	cmp	r3, #4
    1a8c:	d104      	bne.n	1a98 <rt_dec_dly+0x54>
    1a8e:	4b09      	ldr	r3, [pc, #36]	; (1ab4 <rt_dec_dly+0x70>)
    1a90:	8ae2      	ldrh	r2, [r4, #22]
    1a92:	681b      	ldr	r3, [r3, #0]
    1a94:	189b      	adds	r3, r3, r2
    1a96:	82a3      	strh	r3, [r4, #20]
    1a98:	2200      	movs	r2, #0
    1a9a:	68e3      	ldr	r3, [r4, #12]
    1a9c:	7066      	strb	r6, [r4, #1]
    1a9e:	60eb      	str	r3, [r5, #12]
    1aa0:	4293      	cmp	r3, r2
    1aa2:	d001      	beq.n	1aa8 <rt_dec_dly+0x64>
    1aa4:	611d      	str	r5, [r3, #16]
    1aa6:	60e2      	str	r2, [r4, #12]
    1aa8:	6122      	str	r2, [r4, #16]
    1aaa:	e7d4      	b.n	1a56 <rt_dec_dly+0x12>
    1aac:	20001128 	.word	0x20001128
    1ab0:	20001110 	.word	0x20001110
    1ab4:	200011a4 	.word	0x200011a4

00001ab8 <rt_rmv_list>:
    1ab8:	6883      	ldr	r3, [r0, #8]
    1aba:	2b00      	cmp	r3, #0
    1abc:	d006      	beq.n	1acc <rt_rmv_list+0x14>
    1abe:	6842      	ldr	r2, [r0, #4]
    1ac0:	605a      	str	r2, [r3, #4]
    1ac2:	6842      	ldr	r2, [r0, #4]
    1ac4:	2a00      	cmp	r2, #0
    1ac6:	d000      	beq.n	1aca <rt_rmv_list+0x12>
    1ac8:	6093      	str	r3, [r2, #8]
    1aca:	4770      	bx	lr
    1acc:	4b04      	ldr	r3, [pc, #16]	; (1ae0 <rt_rmv_list+0x28>)
    1ace:	685a      	ldr	r2, [r3, #4]
    1ad0:	4290      	cmp	r0, r2
    1ad2:	d102      	bne.n	1ada <rt_rmv_list+0x22>
    1ad4:	6842      	ldr	r2, [r0, #4]
    1ad6:	605a      	str	r2, [r3, #4]
    1ad8:	e7f7      	b.n	1aca <rt_rmv_list+0x12>
    1ada:	1e13      	subs	r3, r2, #0
    1adc:	d1f7      	bne.n	1ace <rt_rmv_list+0x16>
    1ade:	e7f4      	b.n	1aca <rt_rmv_list+0x12>
    1ae0:	20001110 	.word	0x20001110

00001ae4 <rt_resort_prio>:
    1ae4:	b570      	push	{r4, r5, r6, lr}
    1ae6:	6884      	ldr	r4, [r0, #8]
    1ae8:	0005      	movs	r5, r0
    1aea:	2c00      	cmp	r4, #0
    1aec:	d105      	bne.n	1afa <rt_resort_prio+0x16>
    1aee:	7843      	ldrb	r3, [r0, #1]
    1af0:	2b01      	cmp	r3, #1
    1af2:	d10c      	bne.n	1b0e <rt_resort_prio+0x2a>
    1af4:	4c06      	ldr	r4, [pc, #24]	; (1b10 <rt_resort_prio+0x2c>)
    1af6:	e003      	b.n	1b00 <rt_resort_prio+0x1c>
    1af8:	68a4      	ldr	r4, [r4, #8]
    1afa:	7823      	ldrb	r3, [r4, #0]
    1afc:	2b00      	cmp	r3, #0
    1afe:	d0fb      	beq.n	1af8 <rt_resort_prio+0x14>
    1b00:	0028      	movs	r0, r5
    1b02:	f7ff ffd9 	bl	1ab8 <rt_rmv_list>
    1b06:	0029      	movs	r1, r5
    1b08:	0020      	movs	r0, r4
    1b0a:	f7ff ff3d 	bl	1988 <rt_put_prio>
    1b0e:	bd70      	pop	{r4, r5, r6, pc}
    1b10:	20001110 	.word	0x20001110

00001b14 <rt_rmv_dly>:
    1b14:	6903      	ldr	r3, [r0, #16]
    1b16:	b510      	push	{r4, lr}
    1b18:	2b00      	cmp	r3, #0
    1b1a:	d00d      	beq.n	1b38 <rt_rmv_dly+0x24>
    1b1c:	68c2      	ldr	r2, [r0, #12]
    1b1e:	60da      	str	r2, [r3, #12]
    1b20:	68c2      	ldr	r2, [r0, #12]
    1b22:	2a00      	cmp	r2, #0
    1b24:	d009      	beq.n	1b3a <rt_rmv_dly+0x26>
    1b26:	8a99      	ldrh	r1, [r3, #20]
    1b28:	8a84      	ldrh	r4, [r0, #20]
    1b2a:	1909      	adds	r1, r1, r4
    1b2c:	8299      	strh	r1, [r3, #20]
    1b2e:	6113      	str	r3, [r2, #16]
    1b30:	2300      	movs	r3, #0
    1b32:	60c3      	str	r3, [r0, #12]
    1b34:	2300      	movs	r3, #0
    1b36:	6103      	str	r3, [r0, #16]
    1b38:	bd10      	pop	{r4, pc}
    1b3a:	829a      	strh	r2, [r3, #20]
    1b3c:	e7fa      	b.n	1b34 <rt_rmv_dly+0x20>
	...

00001b40 <rt_psq_enq>:
    1b40:	b570      	push	{r4, r5, r6, lr}
    1b42:	4a11      	ldr	r2, [pc, #68]	; (1b88 <rt_psq_enq+0x48>)
    1b44:	78d4      	ldrb	r4, [r2, #3]
    1b46:	f3ef 8610 	mrs	r6, PRIMASK
    1b4a:	f3ef 8310 	mrs	r3, PRIMASK
    1b4e:	b672      	cpsid	i
    1b50:	7893      	ldrb	r3, [r2, #2]
    1b52:	429c      	cmp	r4, r3
    1b54:	d911      	bls.n	1b7a <rt_psq_enq+0x3a>
    1b56:	3301      	adds	r3, #1
    1b58:	7093      	strb	r3, [r2, #2]
    1b5a:	7813      	ldrb	r3, [r2, #0]
    1b5c:	1c5d      	adds	r5, r3, #1
    1b5e:	42ac      	cmp	r4, r5
    1b60:	d100      	bne.n	1b64 <rt_psq_enq+0x24>
    1b62:	2500      	movs	r5, #0
    1b64:	7015      	strb	r5, [r2, #0]
    1b66:	2e00      	cmp	r6, #0
    1b68:	d100      	bne.n	1b6c <rt_psq_enq+0x2c>
    1b6a:	b662      	cpsie	i
    1b6c:	429c      	cmp	r4, r3
    1b6e:	d906      	bls.n	1b7e <rt_psq_enq+0x3e>
    1b70:	00db      	lsls	r3, r3, #3
    1b72:	18d3      	adds	r3, r2, r3
    1b74:	6058      	str	r0, [r3, #4]
    1b76:	6099      	str	r1, [r3, #8]
    1b78:	bd70      	pop	{r4, r5, r6, pc}
    1b7a:	2e00      	cmp	r6, #0
    1b7c:	d0f5      	beq.n	1b6a <rt_psq_enq+0x2a>
    1b7e:	2002      	movs	r0, #2
    1b80:	f7ff feb0 	bl	18e4 <os_error>
    1b84:	e7f8      	b.n	1b78 <rt_psq_enq+0x38>
    1b86:	46c0      	nop			; (mov r8, r8)
    1b88:	20000b94 	.word	0x20000b94

00001b8c <rt_psh_req>:
    1b8c:	4b06      	ldr	r3, [pc, #24]	; (1ba8 <rt_psh_req+0x1c>)
    1b8e:	781b      	ldrb	r3, [r3, #0]
    1b90:	2b00      	cmp	r3, #0
    1b92:	d104      	bne.n	1b9e <rt_psh_req+0x12>
    1b94:	2280      	movs	r2, #128	; 0x80
    1b96:	4b05      	ldr	r3, [pc, #20]	; (1bac <rt_psh_req+0x20>)
    1b98:	0552      	lsls	r2, r2, #21
    1b9a:	601a      	str	r2, [r3, #0]
    1b9c:	4770      	bx	lr
    1b9e:	2201      	movs	r2, #1
    1ba0:	4b03      	ldr	r3, [pc, #12]	; (1bb0 <rt_psh_req+0x24>)
    1ba2:	701a      	strb	r2, [r3, #0]
    1ba4:	e7fa      	b.n	1b9c <rt_psh_req+0x10>
    1ba6:	46c0      	nop			; (mov r8, r8)
    1ba8:	20000818 	.word	0x20000818
    1bac:	e000ed04 	.word	0xe000ed04
    1bb0:	20000819 	.word	0x20000819

00001bb4 <rt_pop_req>:
    1bb4:	4b1b      	ldr	r3, [pc, #108]	; (1c24 <rt_pop_req+0x70>)
    1bb6:	b570      	push	{r4, r5, r6, lr}
    1bb8:	6818      	ldr	r0, [r3, #0]
    1bba:	2301      	movs	r3, #1
    1bbc:	7043      	strb	r3, [r0, #1]
    1bbe:	f7ff ff0f 	bl	19e0 <rt_put_rdy_first>
    1bc2:	4c19      	ldr	r4, [pc, #100]	; (1c28 <rt_pop_req+0x74>)
    1bc4:	7865      	ldrb	r5, [r4, #1]
    1bc6:	78a3      	ldrb	r3, [r4, #2]
    1bc8:	2b00      	cmp	r3, #0
    1bca:	d106      	bne.n	1bda <rt_pop_req+0x26>
    1bcc:	7065      	strb	r5, [r4, #1]
    1bce:	4817      	ldr	r0, [pc, #92]	; (1c2c <rt_pop_req+0x78>)
    1bd0:	f7ff fef4 	bl	19bc <rt_get_first>
    1bd4:	f000 fdec 	bl	27b0 <rt_switch_req>
    1bd8:	bd70      	pop	{r4, r5, r6, pc}
    1bda:	00eb      	lsls	r3, r5, #3
    1bdc:	18e3      	adds	r3, r4, r3
    1bde:	6858      	ldr	r0, [r3, #4]
    1be0:	7802      	ldrb	r2, [r0, #0]
    1be2:	2a00      	cmp	r2, #0
    1be4:	d114      	bne.n	1c10 <rt_pop_req+0x5c>
    1be6:	6899      	ldr	r1, [r3, #8]
    1be8:	b289      	uxth	r1, r1
    1bea:	f000 fa19 	bl	2020 <rt_evt_psh>
    1bee:	78e3      	ldrb	r3, [r4, #3]
    1bf0:	3501      	adds	r5, #1
    1bf2:	429d      	cmp	r5, r3
    1bf4:	d100      	bne.n	1bf8 <rt_pop_req+0x44>
    1bf6:	2500      	movs	r5, #0
    1bf8:	f3ef 8310 	mrs	r3, PRIMASK
    1bfc:	f3ef 8210 	mrs	r2, PRIMASK
    1c00:	b672      	cpsid	i
    1c02:	78a2      	ldrb	r2, [r4, #2]
    1c04:	3a01      	subs	r2, #1
    1c06:	70a2      	strb	r2, [r4, #2]
    1c08:	2b00      	cmp	r3, #0
    1c0a:	d1dc      	bne.n	1bc6 <rt_pop_req+0x12>
    1c0c:	b662      	cpsie	i
    1c0e:	e7da      	b.n	1bc6 <rt_pop_req+0x12>
    1c10:	2a01      	cmp	r2, #1
    1c12:	d103      	bne.n	1c1c <rt_pop_req+0x68>
    1c14:	6899      	ldr	r1, [r3, #8]
    1c16:	f000 f991 	bl	1f3c <rt_mbx_psh>
    1c1a:	e7e8      	b.n	1bee <rt_pop_req+0x3a>
    1c1c:	f001 f8c8 	bl	2db0 <rt_sem_psh>
    1c20:	e7e5      	b.n	1bee <rt_pop_req+0x3a>
    1c22:	46c0      	nop			; (mov r8, r8)
    1c24:	2000115c 	.word	0x2000115c
    1c28:	20000b94 	.word	0x20000b94
    1c2c:	20001110 	.word	0x20001110

00001c30 <os_tick_init>:
    1c30:	4b09      	ldr	r3, [pc, #36]	; (1c58 <os_tick_init+0x28>)
    1c32:	2001      	movs	r0, #1
    1c34:	681a      	ldr	r2, [r3, #0]
    1c36:	4b09      	ldr	r3, [pc, #36]	; (1c5c <os_tick_init+0x2c>)
    1c38:	4240      	negs	r0, r0
    1c3a:	601a      	str	r2, [r3, #0]
    1c3c:	2200      	movs	r2, #0
    1c3e:	4b08      	ldr	r3, [pc, #32]	; (1c60 <os_tick_init+0x30>)
    1c40:	601a      	str	r2, [r3, #0]
    1c42:	4b08      	ldr	r3, [pc, #32]	; (1c64 <os_tick_init+0x34>)
    1c44:	3207      	adds	r2, #7
    1c46:	601a      	str	r2, [r3, #0]
    1c48:	23ff      	movs	r3, #255	; 0xff
    1c4a:	4a07      	ldr	r2, [pc, #28]	; (1c68 <os_tick_init+0x38>)
    1c4c:	061b      	lsls	r3, r3, #24
    1c4e:	6811      	ldr	r1, [r2, #0]
    1c50:	430b      	orrs	r3, r1
    1c52:	6013      	str	r3, [r2, #0]
    1c54:	4770      	bx	lr
    1c56:	46c0      	nop			; (mov r8, r8)
    1c58:	000076bc 	.word	0x000076bc
    1c5c:	e000e014 	.word	0xe000e014
    1c60:	e000e018 	.word	0xe000e018
    1c64:	e000e010 	.word	0xe000e010
    1c68:	e000ed20 	.word	0xe000ed20

00001c6c <os_tick_irqack>:
    1c6c:	4770      	bx	lr
	...

00001c70 <rt_systick>:
    1c70:	4b0b      	ldr	r3, [pc, #44]	; (1ca0 <rt_systick+0x30>)
    1c72:	b510      	push	{r4, lr}
    1c74:	6818      	ldr	r0, [r3, #0]
    1c76:	2301      	movs	r3, #1
    1c78:	7043      	strb	r3, [r0, #1]
    1c7a:	f7ff feb1 	bl	19e0 <rt_put_rdy_first>
    1c7e:	f000 fa03 	bl	2088 <rt_chk_robin>
    1c82:	4a08      	ldr	r2, [pc, #32]	; (1ca4 <rt_systick+0x34>)
    1c84:	6813      	ldr	r3, [r2, #0]
    1c86:	3301      	adds	r3, #1
    1c88:	6013      	str	r3, [r2, #0]
    1c8a:	f7ff fedb 	bl	1a44 <rt_dec_dly>
    1c8e:	f000 fd11 	bl	26b4 <sysTimerTick>
    1c92:	4805      	ldr	r0, [pc, #20]	; (1ca8 <rt_systick+0x38>)
    1c94:	f7ff fe92 	bl	19bc <rt_get_first>
    1c98:	f000 fd8a 	bl	27b0 <rt_switch_req>
    1c9c:	bd10      	pop	{r4, pc}
    1c9e:	46c0      	nop			; (mov r8, r8)
    1ca0:	2000115c 	.word	0x2000115c
    1ca4:	200011a4 	.word	0x200011a4
    1ca8:	20001110 	.word	0x20001110

00001cac <rt_stk_check>:
    1cac:	4b07      	ldr	r3, [pc, #28]	; (1ccc <rt_stk_check+0x20>)
    1cae:	b510      	push	{r4, lr}
    1cb0:	681a      	ldr	r2, [r3, #0]
    1cb2:	6b13      	ldr	r3, [r2, #48]	; 0x30
    1cb4:	6ad2      	ldr	r2, [r2, #44]	; 0x2c
    1cb6:	4293      	cmp	r3, r2
    1cb8:	d803      	bhi.n	1cc2 <rt_stk_check+0x16>
    1cba:	4a05      	ldr	r2, [pc, #20]	; (1cd0 <rt_stk_check+0x24>)
    1cbc:	681b      	ldr	r3, [r3, #0]
    1cbe:	4293      	cmp	r3, r2
    1cc0:	d002      	beq.n	1cc8 <rt_stk_check+0x1c>
    1cc2:	2001      	movs	r0, #1
    1cc4:	f7ff fe0e 	bl	18e4 <os_error>
    1cc8:	bd10      	pop	{r4, pc}
    1cca:	46c0      	nop			; (mov r8, r8)
    1ccc:	2000115c 	.word	0x2000115c
    1cd0:	e25a2ea5 	.word	0xe25a2ea5

00001cd4 <rt_init_stack>:
    1cd4:	b5f7      	push	{r0, r1, r2, r4, r5, r6, r7, lr}
    1cd6:	6a83      	ldr	r3, [r0, #40]	; 0x28
    1cd8:	9101      	str	r1, [sp, #4]
    1cda:	089b      	lsrs	r3, r3, #2
    1cdc:	d102      	bne.n	1ce4 <rt_init_stack+0x10>
    1cde:	4b20      	ldr	r3, [pc, #128]	; (1d60 <rt_init_stack+0x8c>)
    1ce0:	881b      	ldrh	r3, [r3, #0]
    1ce2:	089b      	lsrs	r3, r3, #2
    1ce4:	6b06      	ldr	r6, [r0, #48]	; 0x30
    1ce6:	009c      	lsls	r4, r3, #2
    1ce8:	1934      	adds	r4, r6, r4
    1cea:	0762      	lsls	r2, r4, #29
    1cec:	d500      	bpl.n	1cf0 <rt_init_stack+0x1c>
    1cee:	3c04      	subs	r4, #4
    1cf0:	2780      	movs	r7, #128	; 0x80
    1cf2:	1f22      	subs	r2, r4, #4
    1cf4:	047f      	lsls	r7, r7, #17
    1cf6:	6017      	str	r7, [r2, #0]
    1cf8:	0027      	movs	r7, r4
    1cfa:	9a01      	ldr	r2, [sp, #4]
    1cfc:	0025      	movs	r5, r4
    1cfe:	3f08      	subs	r7, #8
    1d00:	603a      	str	r2, [r7, #0]
    1d02:	2200      	movs	r2, #0
    1d04:	3d40      	subs	r5, #64	; 0x40
    1d06:	0029      	movs	r1, r5
    1d08:	4694      	mov	r12, r2
    1d0a:	4662      	mov	r2, r12
    1d0c:	c104      	stmia	r1!, {r2}
    1d0e:	428f      	cmp	r7, r1
    1d10:	d1fb      	bne.n	1d0a <rt_init_stack+0x36>
    1d12:	0022      	movs	r2, r4
    1d14:	69c7      	ldr	r7, [r0, #28]
    1d16:	3a20      	subs	r2, #32
    1d18:	6017      	str	r7, [r2, #0]
    1d1a:	9a01      	ldr	r2, [sp, #4]
    1d1c:	62c5      	str	r5, [r0, #44]	; 0x2c
    1d1e:	6342      	str	r2, [r0, #52]	; 0x34
    1d20:	4a0f      	ldr	r2, [pc, #60]	; (1d60 <rt_init_stack+0x8c>)
    1d22:	6812      	ldr	r2, [r2, #0]
    1d24:	9201      	str	r2, [sp, #4]
    1d26:	00d2      	lsls	r2, r2, #3
    1d28:	d512      	bpl.n	1d50 <rt_init_stack+0x7c>
    1d2a:	2b11      	cmp	r3, #17
    1d2c:	d910      	bls.n	1d50 <rt_init_stack+0x7c>
    1d2e:	3b10      	subs	r3, #16
    1d30:	085b      	lsrs	r3, r3, #1
    1d32:	00db      	lsls	r3, r3, #3
    1d34:	425b      	negs	r3, r3
    1d36:	001a      	movs	r2, r3
    1d38:	3a38      	subs	r2, #56	; 0x38
    1d3a:	18a4      	adds	r4, r4, r2
    1d3c:	002a      	movs	r2, r5
    1d3e:	4909      	ldr	r1, [pc, #36]	; (1d64 <rt_init_stack+0x90>)
    1d40:	42a2      	cmp	r2, r4
    1d42:	d108      	bne.n	1d56 <rt_init_stack+0x82>
    1d44:	18eb      	adds	r3, r5, r3
    1d46:	3304      	adds	r3, #4
    1d48:	429e      	cmp	r6, r3
    1d4a:	d201      	bcs.n	1d50 <rt_init_stack+0x7c>
    1d4c:	4a05      	ldr	r2, [pc, #20]	; (1d64 <rt_init_stack+0x90>)
    1d4e:	601a      	str	r2, [r3, #0]
    1d50:	4b05      	ldr	r3, [pc, #20]	; (1d68 <rt_init_stack+0x94>)
    1d52:	6033      	str	r3, [r6, #0]
    1d54:	bdf7      	pop	{r0, r1, r2, r4, r5, r6, r7, pc}
    1d56:	3a08      	subs	r2, #8
    1d58:	6051      	str	r1, [r2, #4]
    1d5a:	6011      	str	r1, [r2, #0]
    1d5c:	e7f0      	b.n	1d40 <rt_init_stack+0x6c>
    1d5e:	46c0      	nop			; (mov r8, r8)
    1d60:	000076a4 	.word	0x000076a4
    1d64:	cccccccc 	.word	0xcccccccc
    1d68:	e25a2ea5 	.word	0xe25a2ea5

00001d6c <rt_ret_val>:
    1d6c:	6ac3      	ldr	r3, [r0, #44]	; 0x2c
    1d6e:	6219      	str	r1, [r3, #32]
    1d70:	4770      	bx	lr

00001d72 <rt_ret_val2>:
    1d72:	6ac3      	ldr	r3, [r0, #44]	; 0x2c
    1d74:	6219      	str	r1, [r3, #32]
    1d76:	625a      	str	r2, [r3, #36]	; 0x24
    1d78:	4770      	bx	lr

00001d7a <_init_box>:
    1d7a:	b530      	push	{r4, r5, lr}
    1d7c:	0003      	movs	r3, r0
    1d7e:	2a00      	cmp	r2, #0
    1d80:	da18      	bge.n	1db4 <_init_box+0x3a>
    1d82:	2007      	movs	r0, #7
    1d84:	2410      	movs	r4, #16
    1d86:	0052      	lsls	r2, r2, #1
    1d88:	0852      	lsrs	r2, r2, #1
    1d8a:	3207      	adds	r2, #7
    1d8c:	4382      	bics	r2, r0
    1d8e:	2001      	movs	r0, #1
    1d90:	2a00      	cmp	r2, #0
    1d92:	d016      	beq.n	1dc2 <_init_box+0x48>
    1d94:	1915      	adds	r5, r2, r4
    1d96:	428d      	cmp	r5, r1
    1d98:	d813      	bhi.n	1dc2 <_init_box+0x48>
    1d9a:	1859      	adds	r1, r3, r1
    1d9c:	191c      	adds	r4, r3, r4
    1d9e:	4250      	negs	r0, r2
    1da0:	6059      	str	r1, [r3, #4]
    1da2:	601c      	str	r4, [r3, #0]
    1da4:	609a      	str	r2, [r3, #8]
    1da6:	1809      	adds	r1, r1, r0
    1da8:	18a3      	adds	r3, r4, r2
    1daa:	4299      	cmp	r1, r3
    1dac:	d307      	bcc.n	1dbe <_init_box+0x44>
    1dae:	501b      	str	r3, [r3, r0]
    1db0:	001c      	movs	r4, r3
    1db2:	e7f9      	b.n	1da8 <_init_box+0x2e>
    1db4:	2003      	movs	r0, #3
    1db6:	3203      	adds	r2, #3
    1db8:	4382      	bics	r2, r0
    1dba:	240c      	movs	r4, #12
    1dbc:	e7e7      	b.n	1d8e <_init_box+0x14>
    1dbe:	2000      	movs	r0, #0
    1dc0:	6020      	str	r0, [r4, #0]
    1dc2:	bd30      	pop	{r4, r5, pc}

00001dc4 <rt_alloc_box>:
    1dc4:	f3ef 8210 	mrs	r2, PRIMASK
    1dc8:	b672      	cpsid	i
    1dca:	2301      	movs	r3, #1
    1dcc:	401a      	ands	r2, r3
    1dce:	6803      	ldr	r3, [r0, #0]
    1dd0:	2b00      	cmp	r3, #0
    1dd2:	d001      	beq.n	1dd8 <rt_alloc_box+0x14>
    1dd4:	6819      	ldr	r1, [r3, #0]
    1dd6:	6001      	str	r1, [r0, #0]
    1dd8:	2a00      	cmp	r2, #0
    1dda:	d100      	bne.n	1dde <rt_alloc_box+0x1a>
    1ddc:	b662      	cpsie	i
    1dde:	0018      	movs	r0, r3
    1de0:	4770      	bx	lr

00001de2 <rt_free_box>:
    1de2:	0003      	movs	r3, r0
    1de4:	2001      	movs	r0, #1
    1de6:	4299      	cmp	r1, r3
    1de8:	d30c      	bcc.n	1e04 <rt_free_box+0x22>
    1dea:	685a      	ldr	r2, [r3, #4]
    1dec:	4291      	cmp	r1, r2
    1dee:	d209      	bcs.n	1e04 <rt_free_box+0x22>
    1df0:	f3ef 8210 	mrs	r2, PRIMASK
    1df4:	b672      	cpsid	i
    1df6:	6818      	ldr	r0, [r3, #0]
    1df8:	6008      	str	r0, [r1, #0]
    1dfa:	6019      	str	r1, [r3, #0]
    1dfc:	2000      	movs	r0, #0
    1dfe:	07d3      	lsls	r3, r2, #31
    1e00:	d400      	bmi.n	1e04 <rt_free_box+0x22>
    1e02:	b662      	cpsie	i
    1e04:	4770      	bx	lr

00001e06 <rt_mbx_init>:
    1e06:	2301      	movs	r3, #1
    1e08:	7003      	strb	r3, [r0, #0]
    1e0a:	2300      	movs	r3, #0
    1e0c:	3910      	subs	r1, #16
    1e0e:	0889      	lsrs	r1, r1, #2
    1e10:	7043      	strb	r3, [r0, #1]
    1e12:	7083      	strb	r3, [r0, #2]
    1e14:	6043      	str	r3, [r0, #4]
    1e16:	8103      	strh	r3, [r0, #8]
    1e18:	8143      	strh	r3, [r0, #10]
    1e1a:	8183      	strh	r3, [r0, #12]
    1e1c:	81c1      	strh	r1, [r0, #14]
    1e1e:	4770      	bx	lr

00001e20 <rt_mbx_wait>:
    1e20:	b570      	push	{r4, r5, r6, lr}
    1e22:	0015      	movs	r5, r2
    1e24:	8982      	ldrh	r2, [r0, #12]
    1e26:	0004      	movs	r4, r0
    1e28:	2a00      	cmp	r2, #0
    1e2a:	d03a      	beq.n	1ea2 <rt_mbx_wait+0x82>
    1e2c:	8943      	ldrh	r3, [r0, #10]
    1e2e:	1d18      	adds	r0, r3, #4
    1e30:	0080      	lsls	r0, r0, #2
    1e32:	5900      	ldr	r0, [r0, r4]
    1e34:	3301      	adds	r3, #1
    1e36:	6008      	str	r0, [r1, #0]
    1e38:	89e1      	ldrh	r1, [r4, #14]
    1e3a:	b29b      	uxth	r3, r3
    1e3c:	8163      	strh	r3, [r4, #10]
    1e3e:	4299      	cmp	r1, r3
    1e40:	d101      	bne.n	1e46 <rt_mbx_wait+0x26>
    1e42:	2300      	movs	r3, #0
    1e44:	8163      	strh	r3, [r4, #10]
    1e46:	6863      	ldr	r3, [r4, #4]
    1e48:	2b00      	cmp	r3, #0
    1e4a:	d01e      	beq.n	1e8a <rt_mbx_wait+0x6a>
    1e4c:	7863      	ldrb	r3, [r4, #1]
    1e4e:	2b02      	cmp	r3, #2
    1e50:	d11b      	bne.n	1e8a <rt_mbx_wait+0x6a>
    1e52:	0020      	movs	r0, r4
    1e54:	f7ff fdb2 	bl	19bc <rt_get_first>
    1e58:	0005      	movs	r5, r0
    1e5a:	2100      	movs	r1, #0
    1e5c:	f7ff ff86 	bl	1d6c <rt_ret_val>
    1e60:	8923      	ldrh	r3, [r4, #8]
    1e62:	69e9      	ldr	r1, [r5, #28]
    1e64:	1d1a      	adds	r2, r3, #4
    1e66:	0092      	lsls	r2, r2, #2
    1e68:	5111      	str	r1, [r2, r4]
    1e6a:	3301      	adds	r3, #1
    1e6c:	89e2      	ldrh	r2, [r4, #14]
    1e6e:	b29b      	uxth	r3, r3
    1e70:	8123      	strh	r3, [r4, #8]
    1e72:	429a      	cmp	r2, r3
    1e74:	d101      	bne.n	1e7a <rt_mbx_wait+0x5a>
    1e76:	2300      	movs	r3, #0
    1e78:	8123      	strh	r3, [r4, #8]
    1e7a:	0028      	movs	r0, r5
    1e7c:	f7ff fe4a 	bl	1b14 <rt_rmv_dly>
    1e80:	0028      	movs	r0, r5
    1e82:	f000 fcb3 	bl	27ec <rt_dispatch>
    1e86:	2000      	movs	r0, #0
    1e88:	bd70      	pop	{r4, r5, r6, pc}
    1e8a:	f3ef 8310 	mrs	r3, PRIMASK
    1e8e:	f3ef 8110 	mrs	r1, PRIMASK
    1e92:	b672      	cpsid	i
    1e94:	2000      	movs	r0, #0
    1e96:	3a01      	subs	r2, #1
    1e98:	81a2      	strh	r2, [r4, #12]
    1e9a:	4283      	cmp	r3, r0
    1e9c:	d1f4      	bne.n	1e88 <rt_mbx_wait+0x68>
    1e9e:	b662      	cpsie	i
    1ea0:	e7f2      	b.n	1e88 <rt_mbx_wait+0x68>
    1ea2:	2001      	movs	r0, #1
    1ea4:	2d00      	cmp	r5, #0
    1ea6:	d0ef      	beq.n	1e88 <rt_mbx_wait+0x68>
    1ea8:	6862      	ldr	r2, [r4, #4]
    1eaa:	4b09      	ldr	r3, [pc, #36]	; (1ed0 <rt_mbx_wait+0xb0>)
    1eac:	2a00      	cmp	r2, #0
    1eae:	d009      	beq.n	1ec4 <rt_mbx_wait+0xa4>
    1eb0:	6819      	ldr	r1, [r3, #0]
    1eb2:	0020      	movs	r0, r4
    1eb4:	f7ff fd68 	bl	1988 <rt_put_prio>
    1eb8:	0028      	movs	r0, r5
    1eba:	2108      	movs	r1, #8
    1ebc:	f000 fcb6 	bl	282c <rt_block>
    1ec0:	2001      	movs	r0, #1
    1ec2:	e7e1      	b.n	1e88 <rt_mbx_wait+0x68>
    1ec4:	681b      	ldr	r3, [r3, #0]
    1ec6:	6063      	str	r3, [r4, #4]
    1ec8:	605a      	str	r2, [r3, #4]
    1eca:	609c      	str	r4, [r3, #8]
    1ecc:	7060      	strb	r0, [r4, #1]
    1ece:	e7f3      	b.n	1eb8 <rt_mbx_wait+0x98>
    1ed0:	2000115c 	.word	0x2000115c

00001ed4 <rt_mbx_check>:
    1ed4:	89c3      	ldrh	r3, [r0, #14]
    1ed6:	8980      	ldrh	r0, [r0, #12]
    1ed8:	1a18      	subs	r0, r3, r0
    1eda:	4770      	bx	lr

00001edc <isr_mbx_send>:
    1edc:	b510      	push	{r4, lr}
    1ede:	f7ff fe2f 	bl	1b40 <rt_psq_enq>
    1ee2:	f7ff fe53 	bl	1b8c <rt_psh_req>
    1ee6:	bd10      	pop	{r4, pc}

00001ee8 <isr_mbx_receive>:
    1ee8:	b510      	push	{r4, lr}
    1eea:	0004      	movs	r4, r0
    1eec:	8983      	ldrh	r3, [r0, #12]
    1eee:	2000      	movs	r0, #0
    1ef0:	4283      	cmp	r3, r0
    1ef2:	d022      	beq.n	1f3a <isr_mbx_receive+0x52>
    1ef4:	8963      	ldrh	r3, [r4, #10]
    1ef6:	3304      	adds	r3, #4
    1ef8:	009b      	lsls	r3, r3, #2
    1efa:	591b      	ldr	r3, [r3, r4]
    1efc:	600b      	str	r3, [r1, #0]
    1efe:	7863      	ldrb	r3, [r4, #1]
    1f00:	2b02      	cmp	r3, #2
    1f02:	d105      	bne.n	1f10 <isr_mbx_receive+0x28>
    1f04:	0001      	movs	r1, r0
    1f06:	0020      	movs	r0, r4
    1f08:	f7ff fe1a 	bl	1b40 <rt_psq_enq>
    1f0c:	f7ff fe3e 	bl	1b8c <rt_psh_req>
    1f10:	f3ef 8310 	mrs	r3, PRIMASK
    1f14:	f3ef 8210 	mrs	r2, PRIMASK
    1f18:	b672      	cpsid	i
    1f1a:	89a2      	ldrh	r2, [r4, #12]
    1f1c:	3a01      	subs	r2, #1
    1f1e:	81a2      	strh	r2, [r4, #12]
    1f20:	2b00      	cmp	r3, #0
    1f22:	d100      	bne.n	1f26 <isr_mbx_receive+0x3e>
    1f24:	b662      	cpsie	i
    1f26:	8963      	ldrh	r3, [r4, #10]
    1f28:	89e2      	ldrh	r2, [r4, #14]
    1f2a:	3301      	adds	r3, #1
    1f2c:	b29b      	uxth	r3, r3
    1f2e:	8163      	strh	r3, [r4, #10]
    1f30:	2004      	movs	r0, #4
    1f32:	429a      	cmp	r2, r3
    1f34:	d101      	bne.n	1f3a <isr_mbx_receive+0x52>
    1f36:	2300      	movs	r3, #0
    1f38:	8163      	strh	r3, [r4, #10]
    1f3a:	bd10      	pop	{r4, pc}

00001f3c <rt_mbx_psh>:
    1f3c:	6843      	ldr	r3, [r0, #4]
    1f3e:	b570      	push	{r4, r5, r6, lr}
    1f40:	0004      	movs	r4, r0
    1f42:	000d      	movs	r5, r1
    1f44:	2b00      	cmp	r3, #0
    1f46:	d04a      	beq.n	1fde <rt_mbx_psh+0xa2>
    1f48:	7846      	ldrb	r6, [r0, #1]
    1f4a:	2e02      	cmp	r6, #2
    1f4c:	d01f      	beq.n	1f8e <rt_mbx_psh+0x52>
    1f4e:	2e03      	cmp	r6, #3
    1f50:	d00a      	beq.n	1f68 <rt_mbx_psh+0x2c>
    1f52:	2e01      	cmp	r6, #1
    1f54:	d142      	bne.n	1fdc <rt_mbx_psh+0xa0>
    1f56:	f7ff fd31 	bl	19bc <rt_get_first>
    1f5a:	0004      	movs	r4, r0
    1f5c:	002a      	movs	r2, r5
    1f5e:	2110      	movs	r1, #16
    1f60:	f7ff ff07 	bl	1d72 <rt_ret_val2>
    1f64:	7066      	strb	r6, [r4, #1]
    1f66:	e00d      	b.n	1f84 <rt_mbx_psh+0x48>
    1f68:	0008      	movs	r0, r1
    1f6a:	f7ff ff2b 	bl	1dc4 <rt_alloc_box>
    1f6e:	1e05      	subs	r5, r0, #0
    1f70:	d034      	beq.n	1fdc <rt_mbx_psh+0xa0>
    1f72:	0020      	movs	r0, r4
    1f74:	f7ff fd22 	bl	19bc <rt_get_first>
    1f78:	0029      	movs	r1, r5
    1f7a:	0004      	movs	r4, r0
    1f7c:	f7ff fef6 	bl	1d6c <rt_ret_val>
    1f80:	2301      	movs	r3, #1
    1f82:	7063      	strb	r3, [r4, #1]
    1f84:	0020      	movs	r0, r4
    1f86:	f7ff fdc5 	bl	1b14 <rt_rmv_dly>
    1f8a:	0021      	movs	r1, r4
    1f8c:	e023      	b.n	1fd6 <rt_mbx_psh+0x9a>
    1f8e:	f7ff fd15 	bl	19bc <rt_get_first>
    1f92:	0005      	movs	r5, r0
    1f94:	2100      	movs	r1, #0
    1f96:	f7ff fee9 	bl	1d6c <rt_ret_val>
    1f9a:	8923      	ldrh	r3, [r4, #8]
    1f9c:	69e9      	ldr	r1, [r5, #28]
    1f9e:	1d1a      	adds	r2, r3, #4
    1fa0:	0092      	lsls	r2, r2, #2
    1fa2:	5111      	str	r1, [r2, r4]
    1fa4:	f3ef 8210 	mrs	r2, PRIMASK
    1fa8:	f3ef 8110 	mrs	r1, PRIMASK
    1fac:	b672      	cpsid	i
    1fae:	89a1      	ldrh	r1, [r4, #12]
    1fb0:	3101      	adds	r1, #1
    1fb2:	81a1      	strh	r1, [r4, #12]
    1fb4:	2a00      	cmp	r2, #0
    1fb6:	d100      	bne.n	1fba <rt_mbx_psh+0x7e>
    1fb8:	b662      	cpsie	i
    1fba:	3301      	adds	r3, #1
    1fbc:	89e2      	ldrh	r2, [r4, #14]
    1fbe:	b29b      	uxth	r3, r3
    1fc0:	8123      	strh	r3, [r4, #8]
    1fc2:	429a      	cmp	r2, r3
    1fc4:	d101      	bne.n	1fca <rt_mbx_psh+0x8e>
    1fc6:	2300      	movs	r3, #0
    1fc8:	8123      	strh	r3, [r4, #8]
    1fca:	2301      	movs	r3, #1
    1fcc:	0028      	movs	r0, r5
    1fce:	706b      	strb	r3, [r5, #1]
    1fd0:	f7ff fda0 	bl	1b14 <rt_rmv_dly>
    1fd4:	0029      	movs	r1, r5
    1fd6:	4811      	ldr	r0, [pc, #68]	; (201c <rt_mbx_psh+0xe0>)
    1fd8:	f7ff fcd6 	bl	1988 <rt_put_prio>
    1fdc:	bd70      	pop	{r4, r5, r6, pc}
    1fde:	8982      	ldrh	r2, [r0, #12]
    1fe0:	89c0      	ldrh	r0, [r0, #14]
    1fe2:	4282      	cmp	r2, r0
    1fe4:	d215      	bcs.n	2012 <rt_mbx_psh+0xd6>
    1fe6:	8923      	ldrh	r3, [r4, #8]
    1fe8:	1d19      	adds	r1, r3, #4
    1fea:	0089      	lsls	r1, r1, #2
    1fec:	510d      	str	r5, [r1, r4]
    1fee:	f3ef 8110 	mrs	r1, PRIMASK
    1ff2:	f3ef 8510 	mrs	r5, PRIMASK
    1ff6:	b672      	cpsid	i
    1ff8:	3201      	adds	r2, #1
    1ffa:	81a2      	strh	r2, [r4, #12]
    1ffc:	2900      	cmp	r1, #0
    1ffe:	d100      	bne.n	2002 <rt_mbx_psh+0xc6>
    2000:	b662      	cpsie	i
    2002:	3301      	adds	r3, #1
    2004:	b29b      	uxth	r3, r3
    2006:	4298      	cmp	r0, r3
    2008:	d001      	beq.n	200e <rt_mbx_psh+0xd2>
    200a:	8123      	strh	r3, [r4, #8]
    200c:	e7e6      	b.n	1fdc <rt_mbx_psh+0xa0>
    200e:	2300      	movs	r3, #0
    2010:	e7fb      	b.n	200a <rt_mbx_psh+0xce>
    2012:	2003      	movs	r0, #3
    2014:	f7ff fc66 	bl	18e4 <os_error>
    2018:	e7e0      	b.n	1fdc <rt_mbx_psh+0xa0>
    201a:	46c0      	nop			; (mov r8, r8)
    201c:	20001110 	.word	0x20001110

00002020 <rt_evt_psh>:
    2020:	b510      	push	{r4, lr}
    2022:	8b03      	ldrh	r3, [r0, #24]
    2024:	7842      	ldrb	r2, [r0, #1]
    2026:	4319      	orrs	r1, r3
    2028:	0004      	movs	r4, r0
    202a:	8301      	strh	r1, [r0, #24]
    202c:	8b43      	ldrh	r3, [r0, #26]
    202e:	2a06      	cmp	r2, #6
    2030:	d114      	bne.n	205c <rt_evt_psh+0x3c>
    2032:	001a      	movs	r2, r3
    2034:	400a      	ands	r2, r1
    2036:	4293      	cmp	r3, r2
    2038:	d10f      	bne.n	205a <rt_evt_psh+0x3a>
    203a:	4399      	bics	r1, r3
    203c:	8321      	strh	r1, [r4, #24]
    203e:	0020      	movs	r0, r4
    2040:	f7ff fd68 	bl	1b14 <rt_rmv_dly>
    2044:	2301      	movs	r3, #1
    2046:	2108      	movs	r1, #8
    2048:	0020      	movs	r0, r4
    204a:	7063      	strb	r3, [r4, #1]
    204c:	8b62      	ldrh	r2, [r4, #26]
    204e:	f7ff fe90 	bl	1d72 <rt_ret_val2>
    2052:	0021      	movs	r1, r4
    2054:	4805      	ldr	r0, [pc, #20]	; (206c <rt_evt_psh+0x4c>)
    2056:	f7ff fc97 	bl	1988 <rt_put_prio>
    205a:	bd10      	pop	{r4, pc}
    205c:	2a05      	cmp	r2, #5
    205e:	d1fc      	bne.n	205a <rt_evt_psh+0x3a>
    2060:	001a      	movs	r2, r3
    2062:	400a      	ands	r2, r1
    2064:	d0f9      	beq.n	205a <rt_evt_psh+0x3a>
    2066:	8342      	strh	r2, [r0, #26]
    2068:	e7e7      	b.n	203a <rt_evt_psh+0x1a>
    206a:	46c0      	nop			; (mov r8, r8)
    206c:	20001110 	.word	0x20001110

00002070 <rt_init_robin>:
    2070:	2200      	movs	r2, #0
    2072:	4b03      	ldr	r3, [pc, #12]	; (2080 <rt_init_robin+0x10>)
    2074:	601a      	str	r2, [r3, #0]
    2076:	4a03      	ldr	r2, [pc, #12]	; (2084 <rt_init_robin+0x14>)
    2078:	6812      	ldr	r2, [r2, #0]
    207a:	80da      	strh	r2, [r3, #6]
    207c:	4770      	bx	lr
    207e:	46c0      	nop			; (mov r8, r8)
    2080:	20001148 	.word	0x20001148
    2084:	000076a0 	.word	0x000076a0

00002088 <rt_chk_robin>:
    2088:	b510      	push	{r4, lr}
    208a:	4b0d      	ldr	r3, [pc, #52]	; (20c0 <rt_chk_robin+0x38>)
    208c:	4c0d      	ldr	r4, [pc, #52]	; (20c4 <rt_chk_robin+0x3c>)
    208e:	6818      	ldr	r0, [r3, #0]
    2090:	6862      	ldr	r2, [r4, #4]
    2092:	490d      	ldr	r1, [pc, #52]	; (20c8 <rt_chk_robin+0x40>)
    2094:	4290      	cmp	r0, r2
    2096:	d005      	beq.n	20a4 <rt_chk_robin+0x1c>
    2098:	601a      	str	r2, [r3, #0]
    209a:	88da      	ldrh	r2, [r3, #6]
    209c:	6808      	ldr	r0, [r1, #0]
    209e:	3a01      	subs	r2, #1
    20a0:	1882      	adds	r2, r0, r2
    20a2:	809a      	strh	r2, [r3, #4]
    20a4:	8898      	ldrh	r0, [r3, #4]
    20a6:	880a      	ldrh	r2, [r1, #0]
    20a8:	4290      	cmp	r0, r2
    20aa:	d108      	bne.n	20be <rt_chk_robin+0x36>
    20ac:	2200      	movs	r2, #0
    20ae:	0020      	movs	r0, r4
    20b0:	601a      	str	r2, [r3, #0]
    20b2:	f7ff fc83 	bl	19bc <rt_get_first>
    20b6:	0001      	movs	r1, r0
    20b8:	0020      	movs	r0, r4
    20ba:	f7ff fc65 	bl	1988 <rt_put_prio>
    20be:	bd10      	pop	{r4, pc}
    20c0:	20001148 	.word	0x20001148
    20c4:	20001110 	.word	0x20001110
    20c8:	200011a4 	.word	0x200011a4

000020cc <rt_timer_insert>:
    20cc:	2200      	movs	r2, #0
    20ce:	b530      	push	{r4, r5, lr}
    20d0:	4c0b      	ldr	r4, [pc, #44]	; (2100 <rt_timer_insert+0x34>)
    20d2:	6823      	ldr	r3, [r4, #0]
    20d4:	2b00      	cmp	r3, #0
    20d6:	d10a      	bne.n	20ee <rt_timer_insert+0x22>
    20d8:	6003      	str	r3, [r0, #0]
    20da:	6081      	str	r1, [r0, #8]
    20dc:	2b00      	cmp	r3, #0
    20de:	d002      	beq.n	20e6 <rt_timer_insert+0x1a>
    20e0:	689d      	ldr	r5, [r3, #8]
    20e2:	1a69      	subs	r1, r5, r1
    20e4:	6099      	str	r1, [r3, #8]
    20e6:	2a00      	cmp	r2, #0
    20e8:	d008      	beq.n	20fc <rt_timer_insert+0x30>
    20ea:	6010      	str	r0, [r2, #0]
    20ec:	bd30      	pop	{r4, r5, pc}
    20ee:	689d      	ldr	r5, [r3, #8]
    20f0:	42a9      	cmp	r1, r5
    20f2:	d3f1      	bcc.n	20d8 <rt_timer_insert+0xc>
    20f4:	001a      	movs	r2, r3
    20f6:	1b49      	subs	r1, r1, r5
    20f8:	681b      	ldr	r3, [r3, #0]
    20fa:	e7eb      	b.n	20d4 <rt_timer_insert+0x8>
    20fc:	6020      	str	r0, [r4, #0]
    20fe:	e7f5      	b.n	20ec <rt_timer_insert+0x20>
    2100:	20001158 	.word	0x20001158

00002104 <rt_ms2tick>:
    2104:	2300      	movs	r3, #0
    2106:	b513      	push	{r0, r1, r4, lr}
    2108:	0002      	movs	r2, r0
    210a:	4298      	cmp	r0, r3
    210c:	d015      	beq.n	213a <rt_ms2tick+0x36>
    210e:	1c43      	adds	r3, r0, #1
    2110:	d015      	beq.n	213e <rt_ms2tick+0x3a>
    2112:	4c0c      	ldr	r4, [pc, #48]	; (2144 <rt_ms2tick+0x40>)
    2114:	490c      	ldr	r1, [pc, #48]	; (2148 <rt_ms2tick+0x44>)
    2116:	0023      	movs	r3, r4
    2118:	4288      	cmp	r0, r1
    211a:	d80e      	bhi.n	213a <rt_ms2tick+0x36>
    211c:	20fa      	movs	r0, #250	; 0xfa
    211e:	4b0b      	ldr	r3, [pc, #44]	; (214c <rt_ms2tick+0x48>)
    2120:	0080      	lsls	r0, r0, #2
    2122:	4350      	muls	r0, r2
    2124:	681b      	ldr	r3, [r3, #0]
    2126:	9301      	str	r3, [sp, #4]
    2128:	3b01      	subs	r3, #1
    212a:	18c0      	adds	r0, r0, r3
    212c:	9901      	ldr	r1, [sp, #4]
    212e:	f001 ffed 	bl	410c <__udivsi3>
    2132:	0023      	movs	r3, r4
    2134:	42a0      	cmp	r0, r4
    2136:	d800      	bhi.n	213a <rt_ms2tick+0x36>
    2138:	b283      	uxth	r3, r0
    213a:	0018      	movs	r0, r3
    213c:	bd16      	pop	{r1, r2, r4, pc}
    213e:	4b04      	ldr	r3, [pc, #16]	; (2150 <rt_ms2tick+0x4c>)
    2140:	e7fb      	b.n	213a <rt_ms2tick+0x36>
    2142:	46c0      	nop			; (mov r8, r8)
    2144:	0000fffe 	.word	0x0000fffe
    2148:	003d0900 	.word	0x003d0900
    214c:	00007658 	.word	0x00007658
    2150:	0000ffff 	.word	0x0000ffff

00002154 <rt_tid2ptcb>:
    2154:	2800      	cmp	r0, #0
    2156:	d006      	beq.n	2166 <rt_tid2ptcb+0x12>
    2158:	0783      	lsls	r3, r0, #30
    215a:	d105      	bne.n	2168 <rt_tid2ptcb+0x14>
    215c:	7803      	ldrb	r3, [r0, #0]
    215e:	425a      	negs	r2, r3
    2160:	4153      	adcs	r3, r2
    2162:	425b      	negs	r3, r3
    2164:	4018      	ands	r0, r3
    2166:	4770      	bx	lr
    2168:	2000      	movs	r0, #0
    216a:	e7fc      	b.n	2166 <rt_tid2ptcb+0x12>

0000216c <svcKernelStart>:
    216c:	b5b0      	push	{r4, r5, r7, lr}
    216e:	4d0f      	ldr	r5, [pc, #60]	; (21ac <svcKernelStart+0x40>)
    2170:	af00      	add	r7, sp, #0
    2172:	7828      	ldrb	r0, [r5, #0]
    2174:	2800      	cmp	r0, #0
    2176:	d115      	bne.n	21a4 <svcKernelStart+0x38>
    2178:	4c0d      	ldr	r4, [pc, #52]	; (21b0 <svcKernelStart+0x44>)
    217a:	6823      	ldr	r3, [r4, #0]
    217c:	3305      	adds	r3, #5
    217e:	7fd9      	ldrb	r1, [r3, #31]
    2180:	f000 fb76 	bl	2870 <rt_tsk_prio>
    2184:	6823      	ldr	r3, [r4, #0]
    2186:	78da      	ldrb	r2, [r3, #3]
    2188:	2aff      	cmp	r2, #255	; 0xff
    218a:	d103      	bne.n	2194 <svcKernelStart+0x28>
    218c:	6ada      	ldr	r2, [r3, #44]	; 0x2c
    218e:	3220      	adds	r2, #32
    2190:	f382 8809 	msr	PSP, r2
    2194:	6862      	ldr	r2, [r4, #4]
    2196:	2a00      	cmp	r2, #0
    2198:	d100      	bne.n	219c <svcKernelStart+0x30>
    219a:	c40c      	stmia	r4!, {r2, r3}
    219c:	f000 fd1c 	bl	2bd8 <rt_sys_start>
    21a0:	2301      	movs	r3, #1
    21a2:	702b      	strb	r3, [r5, #0]
    21a4:	46bd      	mov	sp, r7
    21a6:	2000      	movs	r0, #0
    21a8:	bdb0      	pop	{r4, r5, r7, pc}
    21aa:	46c0      	nop			; (mov r8, r8)
    21ac:	20001155 	.word	0x20001155
    21b0:	2000115c 	.word	0x2000115c

000021b4 <svcKernelRunning>:
    21b4:	4b01      	ldr	r3, [pc, #4]	; (21bc <svcKernelRunning+0x8>)
    21b6:	7818      	ldrb	r0, [r3, #0]
    21b8:	4770      	bx	lr
    21ba:	46c0      	nop			; (mov r8, r8)
    21bc:	20001155 	.word	0x20001155

000021c0 <osKernelRunning>:
    21c0:	b590      	push	{r4, r7, lr}
    21c2:	f3ef 8410 	mrs	r4, PRIMASK
    21c6:	2c00      	cmp	r4, #0
    21c8:	d107      	bne.n	21da <osKernelRunning+0x1a>
    21ca:	f3ef 8405 	mrs	r4, IPSR
    21ce:	2c00      	cmp	r4, #0
    21d0:	d103      	bne.n	21da <osKernelRunning+0x1a>
    21d2:	f3ef 8414 	mrs	r4, CONTROL
    21d6:	07e4      	lsls	r4, r4, #31
    21d8:	d402      	bmi.n	21e0 <osKernelRunning+0x20>
    21da:	4b03      	ldr	r3, [pc, #12]	; (21e8 <osKernelRunning+0x28>)
    21dc:	7818      	ldrb	r0, [r3, #0]
    21de:	bd90      	pop	{r4, r7, pc}
    21e0:	4f02      	ldr	r7, [pc, #8]	; (21ec <osKernelRunning+0x2c>)
    21e2:	46bc      	mov	r12, r7
    21e4:	df00      	svc	0
    21e6:	e7fa      	b.n	21de <osKernelRunning+0x1e>
    21e8:	20001155 	.word	0x20001155
    21ec:	000021b5 	.word	0x000021b5

000021f0 <osKernelStart>:
    21f0:	b5f0      	push	{r4, r5, r6, r7, lr}
    21f2:	b089      	sub	sp, #36	; 0x24
    21f4:	af00      	add	r7, sp, #0
    21f6:	f3ef 8310 	mrs	r3, PRIMASK
    21fa:	2582      	movs	r5, #130	; 0x82
    21fc:	2b00      	cmp	r3, #0
    21fe:	d13a      	bne.n	2276 <osKernelStart+0x86>
    2200:	f3ef 8305 	mrs	r3, IPSR
    2204:	2b00      	cmp	r3, #0
    2206:	d136      	bne.n	2276 <osKernelStart+0x86>
    2208:	f7ff ffda 	bl	21c0 <osKernelRunning>
    220c:	2800      	cmp	r0, #0
    220e:	d107      	bne.n	2220 <osKernelStart+0x30>
    2210:	4c1b      	ldr	r4, [pc, #108]	; (2280 <osKernelStart+0x90>)
    2212:	6824      	ldr	r4, [r4, #0]
    2214:	2c00      	cmp	r4, #0
    2216:	d003      	beq.n	2220 <osKernelStart+0x30>
    2218:	6864      	ldr	r4, [r4, #4]
    221a:	2c00      	cmp	r4, #0
    221c:	d000      	beq.n	2220 <osKernelStart+0x30>
    221e:	47a0      	blx	r4
    2220:	f3ef 8414 	mrs	r4, CONTROL
    2224:	2603      	movs	r6, #3
    2226:	4034      	ands	r4, r6
    2228:	2c02      	cmp	r4, #2
    222a:	d018      	beq.n	225e <osKernelStart+0x6e>
    222c:	42b4      	cmp	r4, r6
    222e:	d01d      	beq.n	226c <osKernelStart+0x7c>
    2230:	25ff      	movs	r5, #255	; 0xff
    2232:	2c01      	cmp	r4, #1
    2234:	d01f      	beq.n	2276 <osKernelStart+0x86>
    2236:	2420      	movs	r4, #32
    2238:	193c      	adds	r4, r7, r4
    223a:	f384 8809 	msr	PSP, r4
    223e:	4c11      	ldr	r4, [pc, #68]	; (2284 <osKernelStart+0x94>)
    2240:	7824      	ldrb	r4, [r4, #0]
    2242:	07e4      	lsls	r4, r4, #31
    2244:	d50f      	bpl.n	2266 <osKernelStart+0x76>
    2246:	2402      	movs	r4, #2
    2248:	f384 8814 	msr	CONTROL, r4
    224c:	f3bf 8f4f 	dsb	sy
    2250:	f3bf 8f6f 	isb	sy
    2254:	4f0c      	ldr	r7, [pc, #48]	; (2288 <osKernelStart+0x98>)
    2256:	46bc      	mov	r12, r7
    2258:	df00      	svc	0
    225a:	0005      	movs	r5, r0
    225c:	e00b      	b.n	2276 <osKernelStart+0x86>
    225e:	4c09      	ldr	r4, [pc, #36]	; (2284 <osKernelStart+0x94>)
    2260:	7824      	ldrb	r4, [r4, #0]
    2262:	07e4      	lsls	r4, r4, #31
    2264:	d4f6      	bmi.n	2254 <osKernelStart+0x64>
    2266:	f386 8814 	msr	CONTROL, r6
    226a:	e7ef      	b.n	224c <osKernelStart+0x5c>
    226c:	4c05      	ldr	r4, [pc, #20]	; (2284 <osKernelStart+0x94>)
    226e:	25ff      	movs	r5, #255	; 0xff
    2270:	7824      	ldrb	r4, [r4, #0]
    2272:	07e4      	lsls	r4, r4, #31
    2274:	d5ee      	bpl.n	2254 <osKernelStart+0x64>
    2276:	0028      	movs	r0, r5
    2278:	46bd      	mov	sp, r7
    227a:	b009      	add	sp, #36	; 0x24
    227c:	bdf0      	pop	{r4, r5, r6, r7, pc}
    227e:	46c0      	nop			; (mov r8, r8)
    2280:	20001144 	.word	0x20001144
    2284:	00007686 	.word	0x00007686
    2288:	0000216d 	.word	0x0000216d

0000228c <svcThreadCreate>:
    228c:	b570      	push	{r4, r5, r6, lr}
    228e:	000b      	movs	r3, r1
    2290:	0015      	movs	r5, r2
    2292:	2800      	cmp	r0, #0
    2294:	d102      	bne.n	229c <svcThreadCreate+0x10>
    2296:	2400      	movs	r4, #0
    2298:	0020      	movs	r0, r4
    229a:	bd70      	pop	{r4, r5, r6, pc}
    229c:	6806      	ldr	r6, [r0, #0]
    229e:	2e00      	cmp	r6, #0
    22a0:	d0f9      	beq.n	2296 <svcThreadCreate+0xa>
    22a2:	2204      	movs	r2, #4
    22a4:	5e84      	ldrsh	r4, [r0, r2]
    22a6:	1ce2      	adds	r2, r4, #3
    22a8:	b292      	uxth	r2, r2
    22aa:	2a06      	cmp	r2, #6
    22ac:	d8f3      	bhi.n	2296 <svcThreadCreate+0xa>
    22ae:	2200      	movs	r2, #0
    22b0:	68c1      	ldr	r1, [r0, #12]
    22b2:	4291      	cmp	r1, r2
    22b4:	d000      	beq.n	22b8 <svcThreadCreate+0x2c>
    22b6:	6902      	ldr	r2, [r0, #16]
    22b8:	3404      	adds	r4, #4
    22ba:	0209      	lsls	r1, r1, #8
    22bc:	4321      	orrs	r1, r4
    22be:	0030      	movs	r0, r6
    22c0:	f000 fb16 	bl	28f0 <rt_tsk_create>
    22c4:	2800      	cmp	r0, #0
    22c6:	d0e6      	beq.n	2296 <svcThreadCreate+0xa>
    22c8:	4b0a      	ldr	r3, [pc, #40]	; (22f4 <svcThreadCreate+0x68>)
    22ca:	3801      	subs	r0, #1
    22cc:	0080      	lsls	r0, r0, #2
    22ce:	58c4      	ldr	r4, [r0, r3]
    22d0:	4a09      	ldr	r2, [pc, #36]	; (22f8 <svcThreadCreate+0x6c>)
    22d2:	6ae3      	ldr	r3, [r4, #44]	; 0x2c
    22d4:	635a      	str	r2, [r3, #52]	; 0x34
    22d6:	4b09      	ldr	r3, [pc, #36]	; (22fc <svcThreadCreate+0x70>)
    22d8:	681b      	ldr	r3, [r3, #0]
    22da:	2b00      	cmp	r3, #0
    22dc:	d007      	beq.n	22ee <svcThreadCreate+0x62>
    22de:	689b      	ldr	r3, [r3, #8]
    22e0:	2b00      	cmp	r3, #0
    22e2:	d004      	beq.n	22ee <svcThreadCreate+0x62>
    22e4:	78e0      	ldrb	r0, [r4, #3]
    22e6:	0029      	movs	r1, r5
    22e8:	4798      	blx	r3
    22ea:	63e0      	str	r0, [r4, #60]	; 0x3c
    22ec:	e7d4      	b.n	2298 <svcThreadCreate+0xc>
    22ee:	63e5      	str	r5, [r4, #60]	; 0x3c
    22f0:	e7d2      	b.n	2298 <svcThreadCreate+0xc>
    22f2:	46c0      	nop			; (mov r8, r8)
    22f4:	20000b78 	.word	0x20000b78
    22f8:	000024a9 	.word	0x000024a9
    22fc:	20001144 	.word	0x20001144

00002300 <svcThreadGetId>:
    2300:	b510      	push	{r4, lr}
    2302:	f000 faad 	bl	2860 <rt_tsk_self>
    2306:	1e03      	subs	r3, r0, #0
    2308:	d003      	beq.n	2312 <svcThreadGetId+0x12>
    230a:	3801      	subs	r0, #1
    230c:	4b02      	ldr	r3, [pc, #8]	; (2318 <svcThreadGetId+0x18>)
    230e:	0080      	lsls	r0, r0, #2
    2310:	58c3      	ldr	r3, [r0, r3]
    2312:	0018      	movs	r0, r3
    2314:	bd10      	pop	{r4, pc}
    2316:	46c0      	nop			; (mov r8, r8)
    2318:	20000b78 	.word	0x20000b78

0000231c <svcThreadTerminate>:
    231c:	b510      	push	{r4, lr}
    231e:	f7ff ff19 	bl	2154 <rt_tid2ptcb>
    2322:	2380      	movs	r3, #128	; 0x80
    2324:	1e04      	subs	r4, r0, #0
    2326:	d00f      	beq.n	2348 <svcThreadTerminate+0x2c>
    2328:	4b08      	ldr	r3, [pc, #32]	; (234c <svcThreadTerminate+0x30>)
    232a:	681b      	ldr	r3, [r3, #0]
    232c:	2b00      	cmp	r3, #0
    232e:	d004      	beq.n	233a <svcThreadTerminate+0x1e>
    2330:	68db      	ldr	r3, [r3, #12]
    2332:	2b00      	cmp	r3, #0
    2334:	d001      	beq.n	233a <svcThreadTerminate+0x1e>
    2336:	6bc0      	ldr	r0, [r0, #60]	; 0x3c
    2338:	4798      	blx	r3
    233a:	78e0      	ldrb	r0, [r4, #3]
    233c:	f000 fb2a 	bl	2994 <rt_tsk_delete>
    2340:	2381      	movs	r3, #129	; 0x81
    2342:	28ff      	cmp	r0, #255	; 0xff
    2344:	d000      	beq.n	2348 <svcThreadTerminate+0x2c>
    2346:	2300      	movs	r3, #0
    2348:	0018      	movs	r0, r3
    234a:	bd10      	pop	{r4, pc}
    234c:	20001144 	.word	0x20001144

00002350 <svcDelay>:
    2350:	2300      	movs	r3, #0
    2352:	b510      	push	{r4, lr}
    2354:	4298      	cmp	r0, r3
    2356:	d004      	beq.n	2362 <svcDelay+0x12>
    2358:	f7ff fed4 	bl	2104 <rt_ms2tick>
    235c:	f000 fd22 	bl	2da4 <rt_dly_wait>
    2360:	2340      	movs	r3, #64	; 0x40
    2362:	0018      	movs	r0, r3
    2364:	bd10      	pop	{r4, pc}
	...

00002368 <osDelay>:
    2368:	b5b0      	push	{r4, r5, r7, lr}
    236a:	0005      	movs	r5, r0
    236c:	f3ef 8410 	mrs	r4, PRIMASK
    2370:	2082      	movs	r0, #130	; 0x82
    2372:	2c00      	cmp	r4, #0
    2374:	d107      	bne.n	2386 <osDelay+0x1e>
    2376:	f3ef 8405 	mrs	r4, IPSR
    237a:	2c00      	cmp	r4, #0
    237c:	d103      	bne.n	2386 <osDelay+0x1e>
    237e:	0028      	movs	r0, r5
    2380:	4f01      	ldr	r7, [pc, #4]	; (2388 <osDelay+0x20>)
    2382:	46bc      	mov	r12, r7
    2384:	df00      	svc	0
    2386:	bdb0      	pop	{r4, r5, r7, pc}
    2388:	00002351 	.word	0x00002351

0000238c <svcTimerCall>:
    238c:	0783      	lsls	r3, r0, #30
    238e:	d106      	bne.n	239e <svcTimerCall+0x12>
    2390:	2800      	cmp	r0, #0
    2392:	d007      	beq.n	23a4 <svcTimerCall+0x18>
    2394:	6943      	ldr	r3, [r0, #20]
    2396:	6901      	ldr	r1, [r0, #16]
    2398:	681b      	ldr	r3, [r3, #0]
    239a:	0018      	movs	r0, r3
    239c:	4770      	bx	lr
    239e:	2300      	movs	r3, #0
    23a0:	0019      	movs	r1, r3
    23a2:	e7fa      	b.n	239a <svcTimerCall+0xe>
    23a4:	0003      	movs	r3, r0
    23a6:	e7fb      	b.n	23a0 <svcTimerCall+0x14>

000023a8 <osTimerCall>:
    23a8:	b590      	push	{r4, r7, lr}
    23aa:	0004      	movs	r4, r0
    23ac:	0008      	movs	r0, r1
    23ae:	4f03      	ldr	r7, [pc, #12]	; (23bc <osTimerCall+0x14>)
    23b0:	46bc      	mov	r12, r7
    23b2:	df00      	svc	0
    23b4:	6020      	str	r0, [r4, #0]
    23b6:	6061      	str	r1, [r4, #4]
    23b8:	0020      	movs	r0, r4
    23ba:	bd90      	pop	{r4, r7, pc}
    23bc:	0000238d 	.word	0x0000238d

000023c0 <svcMutexCreate>:
    23c0:	b510      	push	{r4, lr}
    23c2:	1e03      	subs	r3, r0, #0
    23c4:	d00a      	beq.n	23dc <svcMutexCreate+0x1c>
    23c6:	6804      	ldr	r4, [r0, #0]
    23c8:	1e23      	subs	r3, r4, #0
    23ca:	d007      	beq.n	23dc <svcMutexCreate+0x1c>
    23cc:	2300      	movs	r3, #0
    23ce:	7822      	ldrb	r2, [r4, #0]
    23d0:	429a      	cmp	r2, r3
    23d2:	d103      	bne.n	23dc <svcMutexCreate+0x1c>
    23d4:	0020      	movs	r0, r4
    23d6:	f000 fc35 	bl	2c44 <rt_mut_init>
    23da:	0023      	movs	r3, r4
    23dc:	0018      	movs	r0, r3
    23de:	bd10      	pop	{r4, pc}

000023e0 <svcMutexWait>:
    23e0:	b570      	push	{r4, r5, r6, lr}
    23e2:	2403      	movs	r4, #3
    23e4:	0005      	movs	r5, r0
    23e6:	000e      	movs	r6, r1
    23e8:	4004      	ands	r4, r0
    23ea:	2380      	movs	r3, #128	; 0x80
    23ec:	2c00      	cmp	r4, #0
    23ee:	d112      	bne.n	2416 <svcMutexWait+0x36>
    23f0:	2800      	cmp	r0, #0
    23f2:	d010      	beq.n	2416 <svcMutexWait+0x36>
    23f4:	7802      	ldrb	r2, [r0, #0]
    23f6:	2a03      	cmp	r2, #3
    23f8:	d10d      	bne.n	2416 <svcMutexWait+0x36>
    23fa:	0008      	movs	r0, r1
    23fc:	f7ff fe82 	bl	2104 <rt_ms2tick>
    2400:	0001      	movs	r1, r0
    2402:	0028      	movs	r0, r5
    2404:	f000 fc9a 	bl	2d3c <rt_mut_wait>
    2408:	0023      	movs	r3, r4
    240a:	2801      	cmp	r0, #1
    240c:	d103      	bne.n	2416 <svcMutexWait+0x36>
    240e:	33c1      	adds	r3, #193	; 0xc1
    2410:	2e00      	cmp	r6, #0
    2412:	d100      	bne.n	2416 <svcMutexWait+0x36>
    2414:	3b40      	subs	r3, #64	; 0x40
    2416:	0018      	movs	r0, r3
    2418:	bd70      	pop	{r4, r5, r6, pc}

0000241a <svcMutexRelease>:
    241a:	b510      	push	{r4, lr}
    241c:	2403      	movs	r4, #3
    241e:	2380      	movs	r3, #128	; 0x80
    2420:	4004      	ands	r4, r0
    2422:	d10a      	bne.n	243a <svcMutexRelease+0x20>
    2424:	2800      	cmp	r0, #0
    2426:	d008      	beq.n	243a <svcMutexRelease+0x20>
    2428:	7802      	ldrb	r2, [r0, #0]
    242a:	2a03      	cmp	r2, #3
    242c:	d105      	bne.n	243a <svcMutexRelease+0x20>
    242e:	f000 fc11 	bl	2c54 <rt_mut_release>
    2432:	2381      	movs	r3, #129	; 0x81
    2434:	28ff      	cmp	r0, #255	; 0xff
    2436:	d000      	beq.n	243a <svcMutexRelease+0x20>
    2438:	0023      	movs	r3, r4
    243a:	0018      	movs	r0, r3
    243c:	bd10      	pop	{r4, pc}
	...

00002440 <osMutexCreate>:
    2440:	b5f8      	push	{r3, r4, r5, r6, r7, lr}
    2442:	0005      	movs	r5, r0
    2444:	f3ef 8610 	mrs	r6, PRIMASK
    2448:	2000      	movs	r0, #0
    244a:	4286      	cmp	r6, r0
    244c:	d10f      	bne.n	246e <osMutexCreate+0x2e>
    244e:	f3ef 8405 	mrs	r4, IPSR
    2452:	0030      	movs	r0, r6
    2454:	2c00      	cmp	r4, #0
    2456:	d10a      	bne.n	246e <osMutexCreate+0x2e>
    2458:	f3ef 8014 	mrs	r0, CONTROL
    245c:	07c0      	lsls	r0, r0, #31
    245e:	d407      	bmi.n	2470 <osMutexCreate+0x30>
    2460:	4806      	ldr	r0, [pc, #24]	; (247c <osMutexCreate+0x3c>)
    2462:	7800      	ldrb	r0, [r0, #0]
    2464:	2800      	cmp	r0, #0
    2466:	d103      	bne.n	2470 <osMutexCreate+0x30>
    2468:	0028      	movs	r0, r5
    246a:	f7ff ffa9 	bl	23c0 <svcMutexCreate>
    246e:	bdf8      	pop	{r3, r4, r5, r6, r7, pc}
    2470:	0028      	movs	r0, r5
    2472:	4f03      	ldr	r7, [pc, #12]	; (2480 <osMutexCreate+0x40>)
    2474:	46bc      	mov	r12, r7
    2476:	df00      	svc	0
    2478:	e7f9      	b.n	246e <osMutexCreate+0x2e>
    247a:	46c0      	nop			; (mov r8, r8)
    247c:	20001155 	.word	0x20001155
    2480:	000023c1 	.word	0x000023c1

00002484 <osMutexWait>:
    2484:	b5b0      	push	{r4, r5, r7, lr}
    2486:	0005      	movs	r5, r0
    2488:	f3ef 8410 	mrs	r4, PRIMASK
    248c:	2082      	movs	r0, #130	; 0x82
    248e:	2c00      	cmp	r4, #0
    2490:	d107      	bne.n	24a2 <osMutexWait+0x1e>
    2492:	f3ef 8405 	mrs	r4, IPSR
    2496:	2c00      	cmp	r4, #0
    2498:	d103      	bne.n	24a2 <osMutexWait+0x1e>
    249a:	0028      	movs	r0, r5
    249c:	4f01      	ldr	r7, [pc, #4]	; (24a4 <osMutexWait+0x20>)
    249e:	46bc      	mov	r12, r7
    24a0:	df00      	svc	0
    24a2:	bdb0      	pop	{r4, r5, r7, pc}
    24a4:	000023e1 	.word	0x000023e1

000024a8 <osThreadExit>:
    24a8:	2101      	movs	r1, #1
    24aa:	4808      	ldr	r0, [pc, #32]	; (24cc <osThreadExit+0x24>)
    24ac:	b5b0      	push	{r4, r5, r7, lr}
    24ae:	4249      	negs	r1, r1
    24b0:	6800      	ldr	r0, [r0, #0]
    24b2:	f7ff ffe7 	bl	2484 <osMutexWait>
    24b6:	4f06      	ldr	r7, [pc, #24]	; (24d0 <osThreadExit+0x28>)
    24b8:	46bc      	mov	r12, r7
    24ba:	df00      	svc	0
    24bc:	0004      	movs	r4, r0
    24be:	f7ff fa1d 	bl	18fc <sysThreadTerminate>
    24c2:	0020      	movs	r0, r4
    24c4:	4f03      	ldr	r7, [pc, #12]	; (24d4 <osThreadExit+0x2c>)
    24c6:	46bc      	mov	r12, r7
    24c8:	df00      	svc	0
    24ca:	e7fe      	b.n	24ca <osThreadExit+0x22>
    24cc:	20001150 	.word	0x20001150
    24d0:	00002301 	.word	0x00002301
    24d4:	0000231d 	.word	0x0000231d

000024d8 <osMutexRelease>:
    24d8:	b5b0      	push	{r4, r5, r7, lr}
    24da:	0005      	movs	r5, r0
    24dc:	f3ef 8410 	mrs	r4, PRIMASK
    24e0:	2082      	movs	r0, #130	; 0x82
    24e2:	2c00      	cmp	r4, #0
    24e4:	d107      	bne.n	24f6 <osMutexRelease+0x1e>
    24e6:	f3ef 8405 	mrs	r4, IPSR
    24ea:	2c00      	cmp	r4, #0
    24ec:	d103      	bne.n	24f6 <osMutexRelease+0x1e>
    24ee:	0028      	movs	r0, r5
    24f0:	4f01      	ldr	r7, [pc, #4]	; (24f8 <osMutexRelease+0x20>)
    24f2:	46bc      	mov	r12, r7
    24f4:	df00      	svc	0
    24f6:	bdb0      	pop	{r4, r5, r7, pc}
    24f8:	0000241b 	.word	0x0000241b

000024fc <osThreadContextCreate>:
    24fc:	b5f7      	push	{r0, r1, r2, r4, r5, r6, r7, lr}
    24fe:	0006      	movs	r6, r0
    2500:	9100      	str	r1, [sp, #0]
    2502:	9201      	str	r2, [sp, #4]
    2504:	f3ef 8210 	mrs	r2, PRIMASK
    2508:	2400      	movs	r4, #0
    250a:	42a2      	cmp	r2, r4
    250c:	d110      	bne.n	2530 <osThreadContextCreate+0x34>
    250e:	f3ef 8305 	mrs	r3, IPSR
    2512:	0014      	movs	r4, r2
    2514:	2b00      	cmp	r3, #0
    2516:	d10b      	bne.n	2530 <osThreadContextCreate+0x34>
    2518:	f3ef 8314 	mrs	r3, CONTROL
    251c:	07db      	lsls	r3, r3, #31
    251e:	d409      	bmi.n	2534 <osThreadContextCreate+0x38>
    2520:	4b0d      	ldr	r3, [pc, #52]	; (2558 <osThreadContextCreate+0x5c>)
    2522:	781b      	ldrb	r3, [r3, #0]
    2524:	2b00      	cmp	r3, #0
    2526:	d105      	bne.n	2534 <osThreadContextCreate+0x38>
    2528:	9a01      	ldr	r2, [sp, #4]
    252a:	f7ff feaf 	bl	228c <svcThreadCreate>
    252e:	0004      	movs	r4, r0
    2530:	0020      	movs	r0, r4
    2532:	bdfe      	pop	{r1, r2, r3, r4, r5, r6, r7, pc}
    2534:	2101      	movs	r1, #1
    2536:	4d09      	ldr	r5, [pc, #36]	; (255c <osThreadContextCreate+0x60>)
    2538:	4249      	negs	r1, r1
    253a:	6828      	ldr	r0, [r5, #0]
    253c:	f7ff ffa2 	bl	2484 <osMutexWait>
    2540:	0030      	movs	r0, r6
    2542:	9900      	ldr	r1, [sp, #0]
    2544:	9a01      	ldr	r2, [sp, #4]
    2546:	4f06      	ldr	r7, [pc, #24]	; (2560 <osThreadContextCreate+0x64>)
    2548:	46bc      	mov	r12, r7
    254a:	df00      	svc	0
    254c:	0004      	movs	r4, r0
    254e:	6828      	ldr	r0, [r5, #0]
    2550:	f7ff ffc2 	bl	24d8 <osMutexRelease>
    2554:	e7ec      	b.n	2530 <osThreadContextCreate+0x34>
    2556:	46c0      	nop			; (mov r8, r8)
    2558:	20001155 	.word	0x20001155
    255c:	20001150 	.word	0x20001150
    2560:	0000228d 	.word	0x0000228d

00002564 <osThreadCreate>:
    2564:	b510      	push	{r4, lr}
    2566:	2200      	movs	r2, #0
    2568:	f7ff ffc8 	bl	24fc <osThreadContextCreate>
    256c:	bd10      	pop	{r4, pc}

0000256e <svcMessageCreate>:
    256e:	b510      	push	{r4, lr}
    2570:	0003      	movs	r3, r0
    2572:	1e04      	subs	r4, r0, #0
    2574:	d00f      	beq.n	2596 <svcMessageCreate+0x28>
    2576:	6801      	ldr	r1, [r0, #0]
    2578:	1e0b      	subs	r3, r1, #0
    257a:	d00c      	beq.n	2596 <svcMessageCreate+0x28>
    257c:	6840      	ldr	r0, [r0, #4]
    257e:	1e03      	subs	r3, r0, #0
    2580:	d009      	beq.n	2596 <svcMessageCreate+0x28>
    2582:	2300      	movs	r3, #0
    2584:	7802      	ldrb	r2, [r0, #0]
    2586:	429a      	cmp	r2, r3
    2588:	d105      	bne.n	2596 <svcMessageCreate+0x28>
    258a:	3104      	adds	r1, #4
    258c:	0089      	lsls	r1, r1, #2
    258e:	b289      	uxth	r1, r1
    2590:	f7ff fc39 	bl	1e06 <rt_mbx_init>
    2594:	6863      	ldr	r3, [r4, #4]
    2596:	0018      	movs	r0, r3
    2598:	bd10      	pop	{r4, pc}
	...

0000259c <svcKernelInitialize>:
    259c:	b570      	push	{r4, r5, r6, lr}
    259e:	4d12      	ldr	r5, [pc, #72]	; (25e8 <svcKernelInitialize+0x4c>)
    25a0:	782b      	ldrb	r3, [r5, #0]
    25a2:	2b00      	cmp	r3, #0
    25a4:	d101      	bne.n	25aa <svcKernelInitialize+0xe>
    25a6:	f000 fa9b 	bl	2ae0 <rt_sys_init>
    25aa:	22ff      	movs	r2, #255	; 0xff
    25ac:	4b0f      	ldr	r3, [pc, #60]	; (25ec <svcKernelInitialize+0x50>)
    25ae:	782c      	ldrb	r4, [r5, #0]
    25b0:	681b      	ldr	r3, [r3, #0]
    25b2:	709a      	strb	r2, [r3, #2]
    25b4:	2c00      	cmp	r4, #0
    25b6:	d111      	bne.n	25dc <svcKernelInitialize+0x40>
    25b8:	0021      	movs	r1, r4
    25ba:	480d      	ldr	r0, [pc, #52]	; (25f0 <svcKernelInitialize+0x54>)
    25bc:	f7ff ffd7 	bl	256e <svcMessageCreate>
    25c0:	4b0c      	ldr	r3, [pc, #48]	; (25f4 <svcKernelInitialize+0x58>)
    25c2:	0022      	movs	r2, r4
    25c4:	6018      	str	r0, [r3, #0]
    25c6:	0021      	movs	r1, r4
    25c8:	480b      	ldr	r0, [pc, #44]	; (25f8 <svcKernelInitialize+0x5c>)
    25ca:	f7ff fe5f 	bl	228c <svcThreadCreate>
    25ce:	4b0b      	ldr	r3, [pc, #44]	; (25fc <svcKernelInitialize+0x60>)
    25d0:	6018      	str	r0, [r3, #0]
    25d2:	480b      	ldr	r0, [pc, #44]	; (2600 <svcKernelInitialize+0x64>)
    25d4:	f7ff ff34 	bl	2440 <osMutexCreate>
    25d8:	4b0a      	ldr	r3, [pc, #40]	; (2604 <svcKernelInitialize+0x68>)
    25da:	6018      	str	r0, [r3, #0]
    25dc:	2301      	movs	r3, #1
    25de:	2000      	movs	r0, #0
    25e0:	702b      	strb	r3, [r5, #0]
    25e2:	4b09      	ldr	r3, [pc, #36]	; (2608 <svcKernelInitialize+0x6c>)
    25e4:	7018      	strb	r0, [r3, #0]
    25e6:	bd70      	pop	{r4, r5, r6, pc}
    25e8:	20001154 	.word	0x20001154
    25ec:	2000115c 	.word	0x2000115c
    25f0:	0000768c 	.word	0x0000768c
    25f4:	20000c18 	.word	0x20000c18
    25f8:	000076a8 	.word	0x000076a8
    25fc:	2000110c 	.word	0x2000110c
    2600:	000076c0 	.word	0x000076c0
    2604:	20001150 	.word	0x20001150
    2608:	20001155 	.word	0x20001155

0000260c <osKernelInitialize>:
    260c:	b5b0      	push	{r4, r5, r7, lr}
    260e:	f3ef 8510 	mrs	r5, PRIMASK
    2612:	2482      	movs	r4, #130	; 0x82
    2614:	2d00      	cmp	r5, #0
    2616:	d10a      	bne.n	262e <osKernelInitialize+0x22>
    2618:	f3ef 8505 	mrs	r5, IPSR
    261c:	2d00      	cmp	r5, #0
    261e:	d106      	bne.n	262e <osKernelInitialize+0x22>
    2620:	f3ef 8414 	mrs	r4, CONTROL
    2624:	07e4      	lsls	r4, r4, #31
    2626:	d404      	bmi.n	2632 <osKernelInitialize+0x26>
    2628:	f7ff ffb8 	bl	259c <svcKernelInitialize>
    262c:	0004      	movs	r4, r0
    262e:	0020      	movs	r0, r4
    2630:	bdb0      	pop	{r4, r5, r7, pc}
    2632:	4f02      	ldr	r7, [pc, #8]	; (263c <osKernelInitialize+0x30>)
    2634:	46bc      	mov	r12, r7
    2636:	df00      	svc	0
    2638:	e7f8      	b.n	262c <osKernelInitialize+0x20>
    263a:	0000      	.short	0x0000
    263c:	0000259d 	.word	0x0000259d

00002640 <svcMessageGet>:
    2640:	b530      	push	{r4, r5, lr}
    2642:	0004      	movs	r4, r0
    2644:	b085      	sub	sp, #20
    2646:	000d      	movs	r5, r1
    2648:	2800      	cmp	r0, #0
    264a:	d017      	beq.n	267c <svcMessageGet+0x3c>
    264c:	7803      	ldrb	r3, [r0, #0]
    264e:	2b01      	cmp	r3, #1
    2650:	d114      	bne.n	267c <svcMessageGet+0x3c>
    2652:	0008      	movs	r0, r1
    2654:	f7ff fd56 	bl	2104 <rt_ms2tick>
    2658:	a902      	add	r1, sp, #8
    265a:	0002      	movs	r2, r0
    265c:	0020      	movs	r0, r4
    265e:	f7ff fbdf 	bl	1e20 <rt_mbx_wait>
    2662:	2801      	cmp	r0, #1
    2664:	d108      	bne.n	2678 <svcMessageGet+0x38>
    2666:	0028      	movs	r0, r5
    2668:	1e45      	subs	r5, r0, #1
    266a:	41a8      	sbcs	r0, r5
    266c:	0180      	lsls	r0, r0, #6
    266e:	9902      	ldr	r1, [sp, #8]
    2670:	2200      	movs	r2, #0
    2672:	0013      	movs	r3, r2
    2674:	b005      	add	sp, #20
    2676:	bd30      	pop	{r4, r5, pc}
    2678:	2010      	movs	r0, #16
    267a:	e7f8      	b.n	266e <svcMessageGet+0x2e>
    267c:	2080      	movs	r0, #128	; 0x80
    267e:	2100      	movs	r1, #0
    2680:	e7f6      	b.n	2670 <svcMessageGet+0x30>

00002682 <isrMessagePut>:
    2682:	b570      	push	{r4, r5, r6, lr}
    2684:	2380      	movs	r3, #128	; 0x80
    2686:	0004      	movs	r4, r0
    2688:	000e      	movs	r6, r1
    268a:	0015      	movs	r5, r2
    268c:	2800      	cmp	r0, #0
    268e:	d00e      	beq.n	26ae <isrMessagePut+0x2c>
    2690:	2a00      	cmp	r2, #0
    2692:	d10c      	bne.n	26ae <isrMessagePut+0x2c>
    2694:	7802      	ldrb	r2, [r0, #0]
    2696:	2a01      	cmp	r2, #1
    2698:	d109      	bne.n	26ae <isrMessagePut+0x2c>
    269a:	f7ff fc1b 	bl	1ed4 <rt_mbx_check>
    269e:	2381      	movs	r3, #129	; 0x81
    26a0:	2800      	cmp	r0, #0
    26a2:	d004      	beq.n	26ae <isrMessagePut+0x2c>
    26a4:	0031      	movs	r1, r6
    26a6:	0020      	movs	r0, r4
    26a8:	f7ff fc18 	bl	1edc <isr_mbx_send>
    26ac:	002b      	movs	r3, r5
    26ae:	0018      	movs	r0, r3
    26b0:	bd70      	pop	{r4, r5, r6, pc}
	...

000026b4 <sysTimerTick>:
    26b4:	b5f8      	push	{r3, r4, r5, r6, r7, lr}
    26b6:	4e12      	ldr	r6, [pc, #72]	; (2700 <sysTimerTick+0x4c>)
    26b8:	6834      	ldr	r4, [r6, #0]
    26ba:	2c00      	cmp	r4, #0
    26bc:	d006      	beq.n	26cc <sysTimerTick+0x18>
    26be:	2701      	movs	r7, #1
    26c0:	68a3      	ldr	r3, [r4, #8]
    26c2:	3b01      	subs	r3, #1
    26c4:	60a3      	str	r3, [r4, #8]
    26c6:	68a2      	ldr	r2, [r4, #8]
    26c8:	2a00      	cmp	r2, #0
    26ca:	d000      	beq.n	26ce <sysTimerTick+0x1a>
    26cc:	bdf8      	pop	{r3, r4, r5, r6, r7, pc}
    26ce:	4b0d      	ldr	r3, [pc, #52]	; (2704 <sysTimerTick+0x50>)
    26d0:	6825      	ldr	r5, [r4, #0]
    26d2:	0021      	movs	r1, r4
    26d4:	6818      	ldr	r0, [r3, #0]
    26d6:	6035      	str	r5, [r6, #0]
    26d8:	f7ff ffd3 	bl	2682 <isrMessagePut>
    26dc:	2800      	cmp	r0, #0
    26de:	d002      	beq.n	26e6 <sysTimerTick+0x32>
    26e0:	2004      	movs	r0, #4
    26e2:	f7ff f8ff 	bl	18e4 <os_error>
    26e6:	7963      	ldrb	r3, [r4, #5]
    26e8:	2b01      	cmp	r3, #1
    26ea:	d107      	bne.n	26fc <sysTimerTick+0x48>
    26ec:	68e1      	ldr	r1, [r4, #12]
    26ee:	0020      	movs	r0, r4
    26f0:	f7ff fcec 	bl	20cc <rt_timer_insert>
    26f4:	2d00      	cmp	r5, #0
    26f6:	d0e9      	beq.n	26cc <sysTimerTick+0x18>
    26f8:	002c      	movs	r4, r5
    26fa:	e7e4      	b.n	26c6 <sysTimerTick+0x12>
    26fc:	7127      	strb	r7, [r4, #4]
    26fe:	e7f9      	b.n	26f4 <sysTimerTick+0x40>
    2700:	20001158 	.word	0x20001158
    2704:	20000c18 	.word	0x20000c18

00002708 <isrMessageGet>:
    2708:	b57f      	push	{r0, r1, r2, r3, r4, r5, r6, lr}
    270a:	0004      	movs	r4, r0
    270c:	0016      	movs	r6, r2
    270e:	1e08      	subs	r0, r1, #0
    2710:	d001      	beq.n	2716 <isrMessageGet+0xe>
    2712:	2a00      	cmp	r2, #0
    2714:	d004      	beq.n	2720 <isrMessageGet+0x18>
    2716:	2380      	movs	r3, #128	; 0x80
    2718:	6023      	str	r3, [r4, #0]
    271a:	0020      	movs	r0, r4
    271c:	b004      	add	sp, #16
    271e:	bd70      	pop	{r4, r5, r6, pc}
    2720:	780b      	ldrb	r3, [r1, #0]
    2722:	2b01      	cmp	r3, #1
    2724:	d1f7      	bne.n	2716 <isrMessageGet+0xe>
    2726:	a902      	add	r1, sp, #8
    2728:	ad01      	add	r5, sp, #4
    272a:	f7ff fbdd 	bl	1ee8 <isr_mbx_receive>
    272e:	2804      	cmp	r0, #4
    2730:	d004      	beq.n	273c <isrMessageGet+0x34>
    2732:	9601      	str	r6, [sp, #4]
    2734:	0023      	movs	r3, r4
    2736:	cd07      	ldmia	r5!, {r0, r1, r2}
    2738:	c307      	stmia	r3!, {r0, r1, r2}
    273a:	e7ee      	b.n	271a <isrMessageGet+0x12>
    273c:	2310      	movs	r3, #16
    273e:	9301      	str	r3, [sp, #4]
    2740:	e7f8      	b.n	2734 <isrMessageGet+0x2c>
	...

00002744 <osMessageGet>:
    2744:	b5b0      	push	{r4, r5, r7, lr}
    2746:	0004      	movs	r4, r0
    2748:	0015      	movs	r5, r2
    274a:	f3ef 8010 	mrs	r0, PRIMASK
    274e:	2800      	cmp	r0, #0
    2750:	d103      	bne.n	275a <osMessageGet+0x16>
    2752:	f3ef 8005 	mrs	r0, IPSR
    2756:	2800      	cmp	r0, #0
    2758:	d005      	beq.n	2766 <osMessageGet+0x22>
    275a:	002a      	movs	r2, r5
    275c:	0020      	movs	r0, r4
    275e:	f7ff ffd3 	bl	2708 <isrMessageGet>
    2762:	0020      	movs	r0, r4
    2764:	bdb0      	pop	{r4, r5, r7, pc}
    2766:	0008      	movs	r0, r1
    2768:	0011      	movs	r1, r2
    276a:	4f03      	ldr	r7, [pc, #12]	; (2778 <osMessageGet+0x34>)
    276c:	46bc      	mov	r12, r7
    276e:	df00      	svc	0
    2770:	6020      	str	r0, [r4, #0]
    2772:	6061      	str	r1, [r4, #4]
    2774:	60a2      	str	r2, [r4, #8]
    2776:	e7f4      	b.n	2762 <osMessageGet+0x1e>
    2778:	00002641 	.word	0x00002641

0000277c <osTimerThread>:
    277c:	b510      	push	{r4, lr}
    277e:	2401      	movs	r4, #1
    2780:	b086      	sub	sp, #24
    2782:	4264      	negs	r4, r4
    2784:	4b09      	ldr	r3, [pc, #36]	; (27ac <osTimerThread+0x30>)
    2786:	0022      	movs	r2, r4
    2788:	6819      	ldr	r1, [r3, #0]
    278a:	a803      	add	r0, sp, #12
    278c:	f7ff ffda 	bl	2744 <osMessageGet>
    2790:	9b03      	ldr	r3, [sp, #12]
    2792:	2b10      	cmp	r3, #16
    2794:	d1f6      	bne.n	2784 <osTimerThread+0x8>
    2796:	9904      	ldr	r1, [sp, #16]
    2798:	a801      	add	r0, sp, #4
    279a:	f7ff fe05 	bl	23a8 <osTimerCall>
    279e:	9b01      	ldr	r3, [sp, #4]
    27a0:	2b00      	cmp	r3, #0
    27a2:	d0ef      	beq.n	2784 <osTimerThread+0x8>
    27a4:	9802      	ldr	r0, [sp, #8]
    27a6:	4798      	blx	r3
    27a8:	e7ec      	b.n	2784 <osTimerThread+0x8>
    27aa:	46c0      	nop			; (mov r8, r8)
    27ac:	20000c18 	.word	0x20000c18

000027b0 <rt_switch_req>:
    27b0:	4b07      	ldr	r3, [pc, #28]	; (27d0 <rt_switch_req+0x20>)
    27b2:	b510      	push	{r4, lr}
    27b4:	6058      	str	r0, [r3, #4]
    27b6:	2302      	movs	r3, #2
    27b8:	7043      	strb	r3, [r0, #1]
    27ba:	4b06      	ldr	r3, [pc, #24]	; (27d4 <rt_switch_req+0x24>)
    27bc:	681b      	ldr	r3, [r3, #0]
    27be:	2b00      	cmp	r3, #0
    27c0:	d004      	beq.n	27cc <rt_switch_req+0x1c>
    27c2:	691b      	ldr	r3, [r3, #16]
    27c4:	2b00      	cmp	r3, #0
    27c6:	d001      	beq.n	27cc <rt_switch_req+0x1c>
    27c8:	6bc0      	ldr	r0, [r0, #60]	; 0x3c
    27ca:	4798      	blx	r3
    27cc:	bd10      	pop	{r4, pc}
    27ce:	46c0      	nop			; (mov r8, r8)
    27d0:	2000115c 	.word	0x2000115c
    27d4:	20001144 	.word	0x20001144

000027d8 <rt_dispatch.part.0>:
    27d8:	b510      	push	{r4, lr}
    27da:	4803      	ldr	r0, [pc, #12]	; (27e8 <rt_dispatch.part.0+0x10>)
    27dc:	f7ff f8ee 	bl	19bc <rt_get_first>
    27e0:	f7ff ffe6 	bl	27b0 <rt_switch_req>
    27e4:	bd10      	pop	{r4, pc}
    27e6:	46c0      	nop			; (mov r8, r8)
    27e8:	20001110 	.word	0x20001110

000027ec <rt_dispatch>:
    27ec:	b570      	push	{r4, r5, r6, lr}
    27ee:	1e04      	subs	r4, r0, #0
    27f0:	d102      	bne.n	27f8 <rt_dispatch+0xc>
    27f2:	f7ff fff1 	bl	27d8 <rt_dispatch.part.0>
    27f6:	bd70      	pop	{r4, r5, r6, pc}
    27f8:	4e0a      	ldr	r6, [pc, #40]	; (2824 <rt_dispatch+0x38>)
    27fa:	78a2      	ldrb	r2, [r4, #2]
    27fc:	6830      	ldr	r0, [r6, #0]
    27fe:	2501      	movs	r5, #1
    2800:	7883      	ldrb	r3, [r0, #2]
    2802:	429a      	cmp	r2, r3
    2804:	d907      	bls.n	2816 <rt_dispatch+0x2a>
    2806:	f7ff f8eb 	bl	19e0 <rt_put_rdy_first>
    280a:	6833      	ldr	r3, [r6, #0]
    280c:	0020      	movs	r0, r4
    280e:	705d      	strb	r5, [r3, #1]
    2810:	f7ff ffce 	bl	27b0 <rt_switch_req>
    2814:	e7ef      	b.n	27f6 <rt_dispatch+0xa>
    2816:	7065      	strb	r5, [r4, #1]
    2818:	0021      	movs	r1, r4
    281a:	4803      	ldr	r0, [pc, #12]	; (2828 <rt_dispatch+0x3c>)
    281c:	f7ff f8b4 	bl	1988 <rt_put_prio>
    2820:	e7e9      	b.n	27f6 <rt_dispatch+0xa>
    2822:	46c0      	nop			; (mov r8, r8)
    2824:	2000115c 	.word	0x2000115c
    2828:	20001110 	.word	0x20001110

0000282c <rt_block>:
    282c:	b570      	push	{r4, r5, r6, lr}
    282e:	000d      	movs	r5, r1
    2830:	2800      	cmp	r0, #0
    2832:	d00e      	beq.n	2852 <rt_block+0x26>
    2834:	4b07      	ldr	r3, [pc, #28]	; (2854 <rt_block+0x28>)
    2836:	4c08      	ldr	r4, [pc, #32]	; (2858 <rt_block+0x2c>)
    2838:	4298      	cmp	r0, r3
    283a:	d003      	beq.n	2844 <rt_block+0x18>
    283c:	0001      	movs	r1, r0
    283e:	6820      	ldr	r0, [r4, #0]
    2840:	f7ff f8d8 	bl	19f4 <rt_put_dly>
    2844:	6823      	ldr	r3, [r4, #0]
    2846:	4805      	ldr	r0, [pc, #20]	; (285c <rt_block+0x30>)
    2848:	705d      	strb	r5, [r3, #1]
    284a:	f7ff f8b7 	bl	19bc <rt_get_first>
    284e:	f7ff ffaf 	bl	27b0 <rt_switch_req>
    2852:	bd70      	pop	{r4, r5, r6, pc}
    2854:	0000ffff 	.word	0x0000ffff
    2858:	2000115c 	.word	0x2000115c
    285c:	20001110 	.word	0x20001110

00002860 <rt_tsk_self>:
    2860:	4b02      	ldr	r3, [pc, #8]	; (286c <rt_tsk_self+0xc>)
    2862:	681b      	ldr	r3, [r3, #0]
    2864:	1e18      	subs	r0, r3, #0
    2866:	d000      	beq.n	286a <rt_tsk_self+0xa>
    2868:	78d8      	ldrb	r0, [r3, #3]
    286a:	4770      	bx	lr
    286c:	2000115c 	.word	0x2000115c

00002870 <rt_tsk_prio>:
    2870:	b510      	push	{r4, lr}
    2872:	2800      	cmp	r0, #0
    2874:	d116      	bne.n	28a4 <rt_tsk_prio+0x34>
    2876:	4b1a      	ldr	r3, [pc, #104]	; (28e0 <rt_tsk_prio+0x70>)
    2878:	681b      	ldr	r3, [r3, #0]
    287a:	7099      	strb	r1, [r3, #2]
    287c:	3305      	adds	r3, #5
    287e:	77d9      	strb	r1, [r3, #31]
    2880:	4818      	ldr	r0, [pc, #96]	; (28e4 <rt_tsk_prio+0x74>)
    2882:	6843      	ldr	r3, [r0, #4]
    2884:	789b      	ldrb	r3, [r3, #2]
    2886:	428b      	cmp	r3, r1
    2888:	d802      	bhi.n	2890 <rt_tsk_prio+0x20>
    288a:	2200      	movs	r2, #0
    288c:	0010      	movs	r0, r2
    288e:	bd10      	pop	{r4, pc}
    2890:	4c13      	ldr	r4, [pc, #76]	; (28e0 <rt_tsk_prio+0x70>)
    2892:	6821      	ldr	r1, [r4, #0]
    2894:	f7ff f878 	bl	1988 <rt_put_prio>
    2898:	2201      	movs	r2, #1
    289a:	6823      	ldr	r3, [r4, #0]
    289c:	705a      	strb	r2, [r3, #1]
    289e:	f7ff ff9b 	bl	27d8 <rt_dispatch.part.0>
    28a2:	e7f2      	b.n	288a <rt_tsk_prio+0x1a>
    28a4:	4b10      	ldr	r3, [pc, #64]	; (28e8 <rt_tsk_prio+0x78>)
    28a6:	22ff      	movs	r2, #255	; 0xff
    28a8:	881b      	ldrh	r3, [r3, #0]
    28aa:	4298      	cmp	r0, r3
    28ac:	d8ee      	bhi.n	288c <rt_tsk_prio+0x1c>
    28ae:	1e43      	subs	r3, r0, #1
    28b0:	480e      	ldr	r0, [pc, #56]	; (28ec <rt_tsk_prio+0x7c>)
    28b2:	009b      	lsls	r3, r3, #2
    28b4:	581c      	ldr	r4, [r3, r0]
    28b6:	2c00      	cmp	r4, #0
    28b8:	d0e8      	beq.n	288c <rt_tsk_prio+0x1c>
    28ba:	1d63      	adds	r3, r4, #5
    28bc:	70a1      	strb	r1, [r4, #2]
    28be:	77d9      	strb	r1, [r3, #31]
    28c0:	4b07      	ldr	r3, [pc, #28]	; (28e0 <rt_tsk_prio+0x70>)
    28c2:	681b      	ldr	r3, [r3, #0]
    28c4:	429c      	cmp	r4, r3
    28c6:	d0db      	beq.n	2880 <rt_tsk_prio+0x10>
    28c8:	0020      	movs	r0, r4
    28ca:	f7ff f90b 	bl	1ae4 <rt_resort_prio>
    28ce:	7863      	ldrb	r3, [r4, #1]
    28d0:	2b01      	cmp	r3, #1
    28d2:	d1da      	bne.n	288a <rt_tsk_prio+0x1a>
    28d4:	4803      	ldr	r0, [pc, #12]	; (28e4 <rt_tsk_prio+0x74>)
    28d6:	f7ff f871 	bl	19bc <rt_get_first>
    28da:	f7ff ff87 	bl	27ec <rt_dispatch>
    28de:	e7d4      	b.n	288a <rt_tsk_prio+0x1a>
    28e0:	2000115c 	.word	0x2000115c
    28e4:	20001110 	.word	0x20001110
    28e8:	00007688 	.word	0x00007688
    28ec:	20000b78 	.word	0x20000b78

000028f0 <rt_tsk_create>:
    28f0:	b5f7      	push	{r0, r1, r2, r4, r5, r6, r7, lr}
    28f2:	001f      	movs	r7, r3
    28f4:	b2cb      	uxtb	r3, r1
    28f6:	0015      	movs	r5, r2
    28f8:	425a      	negs	r2, r3
    28fa:	4153      	adcs	r3, r2
    28fc:	9000      	str	r0, [sp, #0]
    28fe:	4821      	ldr	r0, [pc, #132]	; (2984 <rt_tsk_create+0x94>)
    2900:	18ce      	adds	r6, r1, r3
    2902:	f7ff fa5f 	bl	1dc4 <rt_alloc_box>
    2906:	1e04      	subs	r4, r0, #0
    2908:	d102      	bne.n	2910 <rt_tsk_create+0x20>
    290a:	2500      	movs	r5, #0
    290c:	0028      	movs	r0, r5
    290e:	bdfe      	pop	{r1, r2, r3, r4, r5, r6, r7, pc}
    2910:	6305      	str	r5, [r0, #48]	; 0x30
    2912:	2501      	movs	r5, #1
    2914:	4b1c      	ldr	r3, [pc, #112]	; (2988 <rt_tsk_create+0x98>)
    2916:	0a32      	lsrs	r2, r6, #8
    2918:	8819      	ldrh	r1, [r3, #0]
    291a:	6282      	str	r2, [r0, #40]	; 0x28
    291c:	428d      	cmp	r5, r1
    291e:	d8f4      	bhi.n	290a <rt_tsk_create+0x1a>
    2920:	1e6b      	subs	r3, r5, #1
    2922:	9301      	str	r3, [sp, #4]
    2924:	4819      	ldr	r0, [pc, #100]	; (298c <rt_tsk_create+0x9c>)
    2926:	00ab      	lsls	r3, r5, #2
    2928:	3b04      	subs	r3, #4
    292a:	58c3      	ldr	r3, [r0, r3]
    292c:	2b00      	cmp	r3, #0
    292e:	d001      	beq.n	2934 <rt_tsk_create+0x44>
    2930:	3501      	adds	r5, #1
    2932:	e7f3      	b.n	291c <rt_tsk_create+0x2c>
    2934:	2101      	movs	r1, #1
    2936:	b2f6      	uxtb	r6, r6
    2938:	7061      	strb	r1, [r4, #1]
    293a:	1d61      	adds	r1, r4, #5
    293c:	70e5      	strb	r5, [r4, #3]
    293e:	61e7      	str	r7, [r4, #28]
    2940:	63a7      	str	r7, [r4, #56]	; 0x38
    2942:	7023      	strb	r3, [r4, #0]
    2944:	70a6      	strb	r6, [r4, #2]
    2946:	77ce      	strb	r6, [r1, #31]
    2948:	1da1      	adds	r1, r4, #6
    294a:	6063      	str	r3, [r4, #4]
    294c:	60a3      	str	r3, [r4, #8]
    294e:	60e3      	str	r3, [r4, #12]
    2950:	6123      	str	r3, [r4, #16]
    2952:	6223      	str	r3, [r4, #32]
    2954:	82a3      	strh	r3, [r4, #20]
    2956:	82e3      	strh	r3, [r4, #22]
    2958:	8323      	strh	r3, [r4, #24]
    295a:	8363      	strh	r3, [r4, #26]
    295c:	77cb      	strb	r3, [r1, #31]
    295e:	2a00      	cmp	r2, #0
    2960:	d103      	bne.n	296a <rt_tsk_create+0x7a>
    2962:	480b      	ldr	r0, [pc, #44]	; (2990 <rt_tsk_create+0xa0>)
    2964:	f7ff fa2e 	bl	1dc4 <rt_alloc_box>
    2968:	6320      	str	r0, [r4, #48]	; 0x30
    296a:	0020      	movs	r0, r4
    296c:	9900      	ldr	r1, [sp, #0]
    296e:	f7ff f9b1 	bl	1cd4 <rt_init_stack>
    2972:	1e6b      	subs	r3, r5, #1
    2974:	4a05      	ldr	r2, [pc, #20]	; (298c <rt_tsk_create+0x9c>)
    2976:	009b      	lsls	r3, r3, #2
    2978:	0020      	movs	r0, r4
    297a:	50d4      	str	r4, [r2, r3]
    297c:	f7ff ff36 	bl	27ec <rt_dispatch>
    2980:	e7c4      	b.n	290c <rt_tsk_create+0x1c>
    2982:	46c0      	nop			; (mov r8, r8)
    2984:	20000f40 	.word	0x20000f40
    2988:	00007688 	.word	0x00007688
    298c:	20000b78 	.word	0x20000b78
    2990:	20000968 	.word	0x20000968

00002994 <rt_tsk_delete>:
    2994:	b5f7      	push	{r0, r1, r2, r4, r5, r6, r7, lr}
    2996:	4d4c      	ldr	r5, [pc, #304]	; (2ac8 <rt_tsk_delete+0x134>)
    2998:	2800      	cmp	r0, #0
    299a:	d003      	beq.n	29a4 <rt_tsk_delete+0x10>
    299c:	682b      	ldr	r3, [r5, #0]
    299e:	78db      	ldrb	r3, [r3, #3]
    29a0:	4298      	cmp	r0, r3
    29a2:	d140      	bne.n	2a26 <rt_tsk_delete+0x92>
    29a4:	2300      	movs	r3, #0
    29a6:	682c      	ldr	r4, [r5, #0]
    29a8:	2701      	movs	r7, #1
    29aa:	7063      	strb	r3, [r4, #1]
    29ac:	f001 fb01 	bl	3fb2 <rt_get_PSP>
    29b0:	62e0      	str	r0, [r4, #44]	; 0x2c
    29b2:	f7ff f97b 	bl	1cac <rt_stk_check>
    29b6:	682b      	ldr	r3, [r5, #0]
    29b8:	6a1c      	ldr	r4, [r3, #32]
    29ba:	2c00      	cmp	r4, #0
    29bc:	d113      	bne.n	29e6 <rt_tsk_delete+0x52>
    29be:	682a      	ldr	r2, [r5, #0]
    29c0:	4942      	ldr	r1, [pc, #264]	; (2acc <rt_tsk_delete+0x138>)
    29c2:	78d3      	ldrb	r3, [r2, #3]
    29c4:	4842      	ldr	r0, [pc, #264]	; (2ad0 <rt_tsk_delete+0x13c>)
    29c6:	3b01      	subs	r3, #1
    29c8:	009b      	lsls	r3, r3, #2
    29ca:	505c      	str	r4, [r3, r1]
    29cc:	6b11      	ldr	r1, [r2, #48]	; 0x30
    29ce:	f7ff fa08 	bl	1de2 <rt_free_box>
    29d2:	6829      	ldr	r1, [r5, #0]
    29d4:	483f      	ldr	r0, [pc, #252]	; (2ad4 <rt_tsk_delete+0x140>)
    29d6:	630c      	str	r4, [r1, #48]	; 0x30
    29d8:	f7ff fa03 	bl	1de2 <rt_free_box>
    29dc:	602c      	str	r4, [r5, #0]
    29de:	f7ff fefb 	bl	27d8 <rt_dispatch.part.0>
    29e2:	0020      	movs	r0, r4
    29e4:	bdfe      	pop	{r1, r2, r3, r4, r5, r6, r7, pc}
    29e6:	6863      	ldr	r3, [r4, #4]
    29e8:	2b00      	cmp	r3, #0
    29ea:	d016      	beq.n	2a1a <rt_tsk_delete+0x86>
    29ec:	0020      	movs	r0, r4
    29ee:	f7fe ffe5 	bl	19bc <rt_get_first>
    29f2:	0006      	movs	r6, r0
    29f4:	2100      	movs	r1, #0
    29f6:	f7ff f9b9 	bl	1d6c <rt_ret_val>
    29fa:	0030      	movs	r0, r6
    29fc:	f7ff f88a 	bl	1b14 <rt_rmv_dly>
    2a00:	7077      	strb	r7, [r6, #1]
    2a02:	0031      	movs	r1, r6
    2a04:	4834      	ldr	r0, [pc, #208]	; (2ad8 <rt_tsk_delete+0x144>)
    2a06:	f7fe ffbf 	bl	1988 <rt_put_prio>
    2a0a:	68e3      	ldr	r3, [r4, #12]
    2a0c:	6a32      	ldr	r2, [r6, #32]
    2a0e:	8067      	strh	r7, [r4, #2]
    2a10:	60a6      	str	r6, [r4, #8]
    2a12:	60e2      	str	r2, [r4, #12]
    2a14:	6234      	str	r4, [r6, #32]
    2a16:	001c      	movs	r4, r3
    2a18:	e7cf      	b.n	29ba <rt_tsk_delete+0x26>
    2a1a:	68e2      	ldr	r2, [r4, #12]
    2a1c:	8063      	strh	r3, [r4, #2]
    2a1e:	60a3      	str	r3, [r4, #8]
    2a20:	60e3      	str	r3, [r4, #12]
    2a22:	0014      	movs	r4, r2
    2a24:	e7c9      	b.n	29ba <rt_tsk_delete+0x26>
    2a26:	4b2d      	ldr	r3, [pc, #180]	; (2adc <rt_tsk_delete+0x148>)
    2a28:	24ff      	movs	r4, #255	; 0xff
    2a2a:	881b      	ldrh	r3, [r3, #0]
    2a2c:	4298      	cmp	r0, r3
    2a2e:	d8d8      	bhi.n	29e2 <rt_tsk_delete+0x4e>
    2a30:	3801      	subs	r0, #1
    2a32:	0083      	lsls	r3, r0, #2
    2a34:	9301      	str	r3, [sp, #4]
    2a36:	9a01      	ldr	r2, [sp, #4]
    2a38:	4b24      	ldr	r3, [pc, #144]	; (2acc <rt_tsk_delete+0x138>)
    2a3a:	58d6      	ldr	r6, [r2, r3]
    2a3c:	2e00      	cmp	r6, #0
    2a3e:	d0d0      	beq.n	29e2 <rt_tsk_delete+0x4e>
    2a40:	0030      	movs	r0, r6
    2a42:	f7ff f839 	bl	1ab8 <rt_rmv_list>
    2a46:	0030      	movs	r0, r6
    2a48:	f7ff f864 	bl	1b14 <rt_rmv_dly>
    2a4c:	6a34      	ldr	r4, [r6, #32]
    2a4e:	2c00      	cmp	r4, #0
    2a50:	d117      	bne.n	2a82 <rt_tsk_delete+0xee>
    2a52:	4b1e      	ldr	r3, [pc, #120]	; (2acc <rt_tsk_delete+0x138>)
    2a54:	9a01      	ldr	r2, [sp, #4]
    2a56:	6b31      	ldr	r1, [r6, #48]	; 0x30
    2a58:	481d      	ldr	r0, [pc, #116]	; (2ad0 <rt_tsk_delete+0x13c>)
    2a5a:	509c      	str	r4, [r3, r2]
    2a5c:	f7ff f9c1 	bl	1de2 <rt_free_box>
    2a60:	0031      	movs	r1, r6
    2a62:	6334      	str	r4, [r6, #48]	; 0x30
    2a64:	481b      	ldr	r0, [pc, #108]	; (2ad4 <rt_tsk_delete+0x140>)
    2a66:	f7ff f9bc 	bl	1de2 <rt_free_box>
    2a6a:	481b      	ldr	r0, [pc, #108]	; (2ad8 <rt_tsk_delete+0x144>)
    2a6c:	6829      	ldr	r1, [r5, #0]
    2a6e:	6843      	ldr	r3, [r0, #4]
    2a70:	789a      	ldrb	r2, [r3, #2]
    2a72:	788b      	ldrb	r3, [r1, #2]
    2a74:	429a      	cmp	r2, r3
    2a76:	d9b4      	bls.n	29e2 <rt_tsk_delete+0x4e>
    2a78:	2301      	movs	r3, #1
    2a7a:	704b      	strb	r3, [r1, #1]
    2a7c:	f7fe ff84 	bl	1988 <rt_put_prio>
    2a80:	e7ad      	b.n	29de <rt_tsk_delete+0x4a>
    2a82:	6863      	ldr	r3, [r4, #4]
    2a84:	2b00      	cmp	r3, #0
    2a86:	d018      	beq.n	2aba <rt_tsk_delete+0x126>
    2a88:	0020      	movs	r0, r4
    2a8a:	f7fe ff97 	bl	19bc <rt_get_first>
    2a8e:	0007      	movs	r7, r0
    2a90:	2100      	movs	r1, #0
    2a92:	f7ff f96b 	bl	1d6c <rt_ret_val>
    2a96:	0038      	movs	r0, r7
    2a98:	f7ff f83c 	bl	1b14 <rt_rmv_dly>
    2a9c:	2301      	movs	r3, #1
    2a9e:	0039      	movs	r1, r7
    2aa0:	707b      	strb	r3, [r7, #1]
    2aa2:	480d      	ldr	r0, [pc, #52]	; (2ad8 <rt_tsk_delete+0x144>)
    2aa4:	f7fe ff70 	bl	1988 <rt_put_prio>
    2aa8:	2201      	movs	r2, #1
    2aaa:	68e3      	ldr	r3, [r4, #12]
    2aac:	8062      	strh	r2, [r4, #2]
    2aae:	6a3a      	ldr	r2, [r7, #32]
    2ab0:	60a7      	str	r7, [r4, #8]
    2ab2:	60e2      	str	r2, [r4, #12]
    2ab4:	623c      	str	r4, [r7, #32]
    2ab6:	001c      	movs	r4, r3
    2ab8:	e7c9      	b.n	2a4e <rt_tsk_delete+0xba>
    2aba:	68e2      	ldr	r2, [r4, #12]
    2abc:	8063      	strh	r3, [r4, #2]
    2abe:	60a3      	str	r3, [r4, #8]
    2ac0:	60e3      	str	r3, [r4, #12]
    2ac2:	0014      	movs	r4, r2
    2ac4:	e7c3      	b.n	2a4e <rt_tsk_delete+0xba>
    2ac6:	46c0      	nop			; (mov r8, r8)
    2ac8:	2000115c 	.word	0x2000115c
    2acc:	20000b78 	.word	0x20000b78
    2ad0:	20000968 	.word	0x20000968
    2ad4:	20000f40 	.word	0x20000f40
    2ad8:	20001110 	.word	0x20001110
    2adc:	00007688 	.word	0x00007688

00002ae0 <rt_sys_init>:
    2ae0:	4b2d      	ldr	r3, [pc, #180]	; (2b98 <rt_sys_init+0xb8>)
    2ae2:	b570      	push	{r4, r5, r6, lr}
    2ae4:	8819      	ldrh	r1, [r3, #0]
    2ae6:	2300      	movs	r3, #0
    2ae8:	001c      	movs	r4, r3
    2aea:	482c      	ldr	r0, [pc, #176]	; (2b9c <rt_sys_init+0xbc>)
    2aec:	428b      	cmp	r3, r1
    2aee:	d34e      	bcc.n	2b8e <rt_sys_init+0xae>
    2af0:	4b2b      	ldr	r3, [pc, #172]	; (2ba0 <rt_sys_init+0xc0>)
    2af2:	2240      	movs	r2, #64	; 0x40
    2af4:	8819      	ldrh	r1, [r3, #0]
    2af6:	482b      	ldr	r0, [pc, #172]	; (2ba4 <rt_sys_init+0xc4>)
    2af8:	f7ff f93f 	bl	1d7a <_init_box>
    2afc:	2280      	movs	r2, #128	; 0x80
    2afe:	4b2a      	ldr	r3, [pc, #168]	; (2ba8 <rt_sys_init+0xc8>)
    2b00:	0612      	lsls	r2, r2, #24
    2b02:	881b      	ldrh	r3, [r3, #0]
    2b04:	4e29      	ldr	r6, [pc, #164]	; (2bac <rt_sys_init+0xcc>)
    2b06:	431a      	orrs	r2, r3
    2b08:	4b29      	ldr	r3, [pc, #164]	; (2bb0 <rt_sys_init+0xd0>)
    2b0a:	0030      	movs	r0, r6
    2b0c:	6819      	ldr	r1, [r3, #0]
    2b0e:	f7ff f934 	bl	1d7a <_init_box>
    2b12:	4b28      	ldr	r3, [pc, #160]	; (2bb4 <rt_sys_init+0xd4>)
    2b14:	2208      	movs	r2, #8
    2b16:	8819      	ldrh	r1, [r3, #0]
    2b18:	4b27      	ldr	r3, [pc, #156]	; (2bb8 <rt_sys_init+0xd8>)
    2b1a:	2500      	movs	r5, #0
    2b1c:	6818      	ldr	r0, [r3, #0]
    2b1e:	f7ff f92c 	bl	1d7a <_init_box>
    2b22:	23ff      	movs	r3, #255	; 0xff
    2b24:	4c25      	ldr	r4, [pc, #148]	; (2bbc <rt_sys_init+0xdc>)
    2b26:	0030      	movs	r0, r6
    2b28:	70e3      	strb	r3, [r4, #3]
    2b2a:	3bfe      	subs	r3, #254	; 0xfe
    2b2c:	7063      	strb	r3, [r4, #1]
    2b2e:	1d63      	adds	r3, r4, #5
    2b30:	77dd      	strb	r5, [r3, #31]
    2b32:	1da3      	adds	r3, r4, #6
    2b34:	77dd      	strb	r5, [r3, #31]
    2b36:	62a5      	str	r5, [r4, #40]	; 0x28
    2b38:	7025      	strb	r5, [r4, #0]
    2b3a:	70a5      	strb	r5, [r4, #2]
    2b3c:	6065      	str	r5, [r4, #4]
    2b3e:	60a5      	str	r5, [r4, #8]
    2b40:	60e5      	str	r5, [r4, #12]
    2b42:	6125      	str	r5, [r4, #16]
    2b44:	6225      	str	r5, [r4, #32]
    2b46:	82a5      	strh	r5, [r4, #20]
    2b48:	82e5      	strh	r5, [r4, #22]
    2b4a:	8325      	strh	r5, [r4, #24]
    2b4c:	8365      	strh	r5, [r4, #26]
    2b4e:	f7ff f939 	bl	1dc4 <rt_alloc_box>
    2b52:	491b      	ldr	r1, [pc, #108]	; (2bc0 <rt_sys_init+0xe0>)
    2b54:	6320      	str	r0, [r4, #48]	; 0x30
    2b56:	0020      	movs	r0, r4
    2b58:	f7ff f8bc 	bl	1cd4 <rt_init_stack>
    2b5c:	2204      	movs	r2, #4
    2b5e:	4b19      	ldr	r3, [pc, #100]	; (2bc4 <rt_sys_init+0xe4>)
    2b60:	0020      	movs	r0, r4
    2b62:	701a      	strb	r2, [r3, #0]
    2b64:	605d      	str	r5, [r3, #4]
    2b66:	4b18      	ldr	r3, [pc, #96]	; (2bc8 <rt_sys_init+0xe8>)
    2b68:	701a      	strb	r2, [r3, #0]
    2b6a:	60dd      	str	r5, [r3, #12]
    2b6c:	611d      	str	r5, [r3, #16]
    2b6e:	829d      	strh	r5, [r3, #20]
    2b70:	4b16      	ldr	r3, [pc, #88]	; (2bcc <rt_sys_init+0xec>)
    2b72:	601c      	str	r4, [r3, #0]
    2b74:	2302      	movs	r3, #2
    2b76:	7063      	strb	r3, [r4, #1]
    2b78:	f7ff fe1a 	bl	27b0 <rt_switch_req>
    2b7c:	4a14      	ldr	r2, [pc, #80]	; (2bd0 <rt_sys_init+0xf0>)
    2b7e:	4b15      	ldr	r3, [pc, #84]	; (2bd4 <rt_sys_init+0xf4>)
    2b80:	7812      	ldrb	r2, [r2, #0]
    2b82:	701d      	strb	r5, [r3, #0]
    2b84:	705d      	strb	r5, [r3, #1]
    2b86:	70da      	strb	r2, [r3, #3]
    2b88:	f7ff fa72 	bl	2070 <rt_init_robin>
    2b8c:	bd70      	pop	{r4, r5, r6, pc}
    2b8e:	009a      	lsls	r2, r3, #2
    2b90:	1812      	adds	r2, r2, r0
    2b92:	6014      	str	r4, [r2, #0]
    2b94:	3301      	adds	r3, #1
    2b96:	e7a9      	b.n	2aec <rt_sys_init+0xc>
    2b98:	00007688 	.word	0x00007688
    2b9c:	20000b78 	.word	0x20000b78
    2ba0:	00007654 	.word	0x00007654
    2ba4:	20000f40 	.word	0x20000f40
    2ba8:	000076a4 	.word	0x000076a4
    2bac:	20000968 	.word	0x20000968
    2bb0:	00007650 	.word	0x00007650
    2bb4:	00007656 	.word	0x00007656
    2bb8:	1ffff7b8 	.word	0x1ffff7b8
    2bbc:	20001164 	.word	0x20001164
    2bc0:	000018dd 	.word	0x000018dd
    2bc4:	20001110 	.word	0x20001110
    2bc8:	20001128 	.word	0x20001128
    2bcc:	2000115c 	.word	0x2000115c
    2bd0:	00007685 	.word	0x00007685
    2bd4:	20000b94 	.word	0x20000b94

00002bd8 <rt_sys_start>:
    2bd8:	22ff      	movs	r2, #255	; 0xff
    2bda:	4b15      	ldr	r3, [pc, #84]	; (2c30 <rt_sys_start+0x58>)
    2bdc:	0412      	lsls	r2, r2, #16
    2bde:	6819      	ldr	r1, [r3, #0]
    2be0:	b510      	push	{r4, lr}
    2be2:	430a      	orrs	r2, r1
    2be4:	601a      	str	r2, [r3, #0]
    2be6:	681b      	ldr	r3, [r3, #0]
    2be8:	4a12      	ldr	r2, [pc, #72]	; (2c34 <rt_sys_start+0x5c>)
    2bea:	025b      	lsls	r3, r3, #9
    2bec:	6811      	ldr	r1, [r2, #0]
    2bee:	0e9b      	lsrs	r3, r3, #26
    2bf0:	069b      	lsls	r3, r3, #26
    2bf2:	430b      	orrs	r3, r1
    2bf4:	6013      	str	r3, [r2, #0]
    2bf6:	f7ff f81b 	bl	1c30 <os_tick_init>
    2bfa:	490f      	ldr	r1, [pc, #60]	; (2c38 <rt_sys_start+0x60>)
    2bfc:	6008      	str	r0, [r1, #0]
    2bfe:	2800      	cmp	r0, #0
    2c00:	db15      	blt.n	2c2e <rt_sys_start+0x56>
    2c02:	0883      	lsrs	r3, r0, #2
    2c04:	4a0d      	ldr	r2, [pc, #52]	; (2c3c <rt_sys_start+0x64>)
    2c06:	009b      	lsls	r3, r3, #2
    2c08:	189b      	adds	r3, r3, r2
    2c0a:	2218      	movs	r2, #24
    2c0c:	00c0      	lsls	r0, r0, #3
    2c0e:	4010      	ands	r0, r2
    2c10:	32e7      	adds	r2, #231	; 0xe7
    2c12:	4082      	lsls	r2, r0
    2c14:	681c      	ldr	r4, [r3, #0]
    2c16:	4322      	orrs	r2, r4
    2c18:	601a      	str	r2, [r3, #0]
    2c1a:	680a      	ldr	r2, [r1, #0]
    2c1c:	4908      	ldr	r1, [pc, #32]	; (2c40 <rt_sys_start+0x68>)
    2c1e:	0953      	lsrs	r3, r2, #5
    2c20:	009b      	lsls	r3, r3, #2
    2c22:	185b      	adds	r3, r3, r1
    2c24:	211f      	movs	r1, #31
    2c26:	400a      	ands	r2, r1
    2c28:	391e      	subs	r1, #30
    2c2a:	4091      	lsls	r1, r2
    2c2c:	6019      	str	r1, [r3, #0]
    2c2e:	bd10      	pop	{r4, pc}
    2c30:	e000ed20 	.word	0xe000ed20
    2c34:	e000ed1c 	.word	0xe000ed1c
    2c38:	20001140 	.word	0x20001140
    2c3c:	e000e400 	.word	0xe000e400
    2c40:	e000e100 	.word	0xe000e100

00002c44 <rt_mut_init>:
    2c44:	2303      	movs	r3, #3
    2c46:	7003      	strb	r3, [r0, #0]
    2c48:	2300      	movs	r3, #0
    2c4a:	8043      	strh	r3, [r0, #2]
    2c4c:	6043      	str	r3, [r0, #4]
    2c4e:	6083      	str	r3, [r0, #8]
    2c50:	60c3      	str	r3, [r0, #12]
    2c52:	4770      	bx	lr

00002c54 <rt_mut_release>:
    2c54:	b5f7      	push	{r0, r1, r2, r4, r5, r6, r7, lr}
    2c56:	8843      	ldrh	r3, [r0, #2]
    2c58:	0005      	movs	r5, r0
    2c5a:	20ff      	movs	r0, #255	; 0xff
    2c5c:	2b00      	cmp	r3, #0
    2c5e:	d00b      	beq.n	2c78 <rt_mut_release+0x24>
    2c60:	4a34      	ldr	r2, [pc, #208]	; (2d34 <rt_mut_release+0xe0>)
    2c62:	68a9      	ldr	r1, [r5, #8]
    2c64:	6812      	ldr	r2, [r2, #0]
    2c66:	9201      	str	r2, [sp, #4]
    2c68:	4291      	cmp	r1, r2
    2c6a:	d105      	bne.n	2c78 <rt_mut_release+0x24>
    2c6c:	3b01      	subs	r3, #1
    2c6e:	b29b      	uxth	r3, r3
    2c70:	806b      	strh	r3, [r5, #2]
    2c72:	2b00      	cmp	r3, #0
    2c74:	d001      	beq.n	2c7a <rt_mut_release+0x26>
    2c76:	2000      	movs	r0, #0
    2c78:	bdfe      	pop	{r1, r2, r3, r4, r5, r6, r7, pc}
    2c7a:	6a0b      	ldr	r3, [r1, #32]
    2c7c:	429d      	cmp	r5, r3
    2c7e:	d135      	bne.n	2cec <rt_mut_release+0x98>
    2c80:	68eb      	ldr	r3, [r5, #12]
    2c82:	620b      	str	r3, [r1, #32]
    2c84:	1d4b      	adds	r3, r1, #5
    2c86:	7fdb      	ldrb	r3, [r3, #31]
    2c88:	6a0c      	ldr	r4, [r1, #32]
    2c8a:	2c00      	cmp	r4, #0
    2c8c:	d136      	bne.n	2cfc <rt_mut_release+0xa8>
    2c8e:	708b      	strb	r3, [r1, #2]
    2c90:	686a      	ldr	r2, [r5, #4]
    2c92:	4f29      	ldr	r7, [pc, #164]	; (2d38 <rt_mut_release+0xe4>)
    2c94:	2a00      	cmp	r2, #0
    2c96:	d03c      	beq.n	2d12 <rt_mut_release+0xbe>
    2c98:	0028      	movs	r0, r5
    2c9a:	f7fe fe8f 	bl	19bc <rt_get_first>
    2c9e:	0006      	movs	r6, r0
    2ca0:	0021      	movs	r1, r4
    2ca2:	f7ff f863 	bl	1d6c <rt_ret_val>
    2ca6:	0030      	movs	r0, r6
    2ca8:	f7fe ff34 	bl	1b14 <rt_rmv_dly>
    2cac:	2301      	movs	r3, #1
    2cae:	806b      	strh	r3, [r5, #2]
    2cb0:	6a33      	ldr	r3, [r6, #32]
    2cb2:	60ae      	str	r6, [r5, #8]
    2cb4:	60eb      	str	r3, [r5, #12]
    2cb6:	4b1f      	ldr	r3, [pc, #124]	; (2d34 <rt_mut_release+0xe0>)
    2cb8:	6235      	str	r5, [r6, #32]
    2cba:	6819      	ldr	r1, [r3, #0]
    2cbc:	687b      	ldr	r3, [r7, #4]
    2cbe:	788a      	ldrb	r2, [r1, #2]
    2cc0:	789b      	ldrb	r3, [r3, #2]
    2cc2:	0030      	movs	r0, r6
    2cc4:	429a      	cmp	r2, r3
    2cc6:	d20d      	bcs.n	2ce4 <rt_mut_release+0x90>
    2cc8:	0038      	movs	r0, r7
    2cca:	f7fe fe5d 	bl	1988 <rt_put_prio>
    2cce:	0038      	movs	r0, r7
    2cd0:	0031      	movs	r1, r6
    2cd2:	f7fe fe59 	bl	1988 <rt_put_prio>
    2cd6:	2201      	movs	r2, #1
    2cd8:	4b16      	ldr	r3, [pc, #88]	; (2d34 <rt_mut_release+0xe0>)
    2cda:	0020      	movs	r0, r4
    2cdc:	681b      	ldr	r3, [r3, #0]
    2cde:	705a      	strb	r2, [r3, #1]
    2ce0:	2301      	movs	r3, #1
    2ce2:	7073      	strb	r3, [r6, #1]
    2ce4:	f7ff fd82 	bl	27ec <rt_dispatch>
    2ce8:	e7c5      	b.n	2c76 <rt_mut_release+0x22>
    2cea:	0013      	movs	r3, r2
    2cec:	2b00      	cmp	r3, #0
    2cee:	d0c9      	beq.n	2c84 <rt_mut_release+0x30>
    2cf0:	68da      	ldr	r2, [r3, #12]
    2cf2:	4295      	cmp	r5, r2
    2cf4:	d1f9      	bne.n	2cea <rt_mut_release+0x96>
    2cf6:	68ea      	ldr	r2, [r5, #12]
    2cf8:	60da      	str	r2, [r3, #12]
    2cfa:	e7c3      	b.n	2c84 <rt_mut_release+0x30>
    2cfc:	6862      	ldr	r2, [r4, #4]
    2cfe:	2a00      	cmp	r2, #0
    2d00:	d005      	beq.n	2d0e <rt_mut_release+0xba>
    2d02:	7890      	ldrb	r0, [r2, #2]
    2d04:	1c02      	adds	r2, r0, #0
    2d06:	4298      	cmp	r0, r3
    2d08:	d200      	bcs.n	2d0c <rt_mut_release+0xb8>
    2d0a:	1c1a      	adds	r2, r3, #0
    2d0c:	b2d3      	uxtb	r3, r2
    2d0e:	68e4      	ldr	r4, [r4, #12]
    2d10:	e7bb      	b.n	2c8a <rt_mut_release+0x36>
    2d12:	687a      	ldr	r2, [r7, #4]
    2d14:	7892      	ldrb	r2, [r2, #2]
    2d16:	429a      	cmp	r2, r3
    2d18:	d9ad      	bls.n	2c76 <rt_mut_release+0x22>
    2d1a:	0038      	movs	r0, r7
    2d1c:	f7fe fe34 	bl	1988 <rt_put_prio>
    2d20:	2201      	movs	r2, #1
    2d22:	4b04      	ldr	r3, [pc, #16]	; (2d34 <rt_mut_release+0xe0>)
    2d24:	0020      	movs	r0, r4
    2d26:	681b      	ldr	r3, [r3, #0]
    2d28:	705a      	strb	r2, [r3, #1]
    2d2a:	f7ff fd5f 	bl	27ec <rt_dispatch>
    2d2e:	0020      	movs	r0, r4
    2d30:	e7a2      	b.n	2c78 <rt_mut_release+0x24>
    2d32:	46c0      	nop			; (mov r8, r8)
    2d34:	2000115c 	.word	0x2000115c
    2d38:	20001110 	.word	0x20001110

00002d3c <rt_mut_wait>:
    2d3c:	b570      	push	{r4, r5, r6, lr}
    2d3e:	8842      	ldrh	r2, [r0, #2]
    2d40:	0004      	movs	r4, r0
    2d42:	000e      	movs	r6, r1
    2d44:	4d16      	ldr	r5, [pc, #88]	; (2da0 <rt_mut_wait+0x64>)
    2d46:	2a00      	cmp	r2, #0
    2d48:	d108      	bne.n	2d5c <rt_mut_wait+0x20>
    2d4a:	682b      	ldr	r3, [r5, #0]
    2d4c:	6a19      	ldr	r1, [r3, #32]
    2d4e:	6083      	str	r3, [r0, #8]
    2d50:	60c1      	str	r1, [r0, #12]
    2d52:	6218      	str	r0, [r3, #32]
    2d54:	2000      	movs	r0, #0
    2d56:	3201      	adds	r2, #1
    2d58:	8062      	strh	r2, [r4, #2]
    2d5a:	bd70      	pop	{r4, r5, r6, pc}
    2d5c:	6883      	ldr	r3, [r0, #8]
    2d5e:	6829      	ldr	r1, [r5, #0]
    2d60:	428b      	cmp	r3, r1
    2d62:	d0f7      	beq.n	2d54 <rt_mut_wait+0x18>
    2d64:	2001      	movs	r0, #1
    2d66:	2e00      	cmp	r6, #0
    2d68:	d0f7      	beq.n	2d5a <rt_mut_wait+0x1e>
    2d6a:	788a      	ldrb	r2, [r1, #2]
    2d6c:	7899      	ldrb	r1, [r3, #2]
    2d6e:	4291      	cmp	r1, r2
    2d70:	d203      	bcs.n	2d7a <rt_mut_wait+0x3e>
    2d72:	709a      	strb	r2, [r3, #2]
    2d74:	0018      	movs	r0, r3
    2d76:	f7fe feb5 	bl	1ae4 <rt_resort_prio>
    2d7a:	6862      	ldr	r2, [r4, #4]
    2d7c:	2a00      	cmp	r2, #0
    2d7e:	d009      	beq.n	2d94 <rt_mut_wait+0x58>
    2d80:	6829      	ldr	r1, [r5, #0]
    2d82:	0020      	movs	r0, r4
    2d84:	f7fe fe00 	bl	1988 <rt_put_prio>
    2d88:	0030      	movs	r0, r6
    2d8a:	2109      	movs	r1, #9
    2d8c:	f7ff fd4e 	bl	282c <rt_block>
    2d90:	2001      	movs	r0, #1
    2d92:	e7e2      	b.n	2d5a <rt_mut_wait+0x1e>
    2d94:	682b      	ldr	r3, [r5, #0]
    2d96:	6063      	str	r3, [r4, #4]
    2d98:	605a      	str	r2, [r3, #4]
    2d9a:	609c      	str	r4, [r3, #8]
    2d9c:	e7f4      	b.n	2d88 <rt_mut_wait+0x4c>
    2d9e:	46c0      	nop			; (mov r8, r8)
    2da0:	2000115c 	.word	0x2000115c

00002da4 <rt_dly_wait>:
    2da4:	b510      	push	{r4, lr}
    2da6:	2103      	movs	r1, #3
    2da8:	f7ff fd40 	bl	282c <rt_block>
    2dac:	bd10      	pop	{r4, pc}
	...

00002db0 <rt_sem_psh>:
    2db0:	6843      	ldr	r3, [r0, #4]
    2db2:	b510      	push	{r4, lr}
    2db4:	2b00      	cmp	r3, #0
    2db6:	d00e      	beq.n	2dd6 <rt_sem_psh+0x26>
    2db8:	f7fe fe00 	bl	19bc <rt_get_first>
    2dbc:	0004      	movs	r4, r0
    2dbe:	f7fe fea9 	bl	1b14 <rt_rmv_dly>
    2dc2:	2101      	movs	r1, #1
    2dc4:	0020      	movs	r0, r4
    2dc6:	7061      	strb	r1, [r4, #1]
    2dc8:	f7fe ffd0 	bl	1d6c <rt_ret_val>
    2dcc:	0021      	movs	r1, r4
    2dce:	4804      	ldr	r0, [pc, #16]	; (2de0 <rt_sem_psh+0x30>)
    2dd0:	f7fe fdda 	bl	1988 <rt_put_prio>
    2dd4:	bd10      	pop	{r4, pc}
    2dd6:	8843      	ldrh	r3, [r0, #2]
    2dd8:	3301      	adds	r3, #1
    2dda:	8043      	strh	r3, [r0, #2]
    2ddc:	e7fa      	b.n	2dd4 <rt_sem_psh+0x24>
    2dde:	46c0      	nop			; (mov r8, r8)
    2de0:	20001110 	.word	0x20001110

00002de4 <gpio_set>:
    2de4:	b510      	push	{r4, lr}
    2de6:	0004      	movs	r4, r0
    2de8:	2101      	movs	r1, #1
    2dea:	f000 fb47 	bl	347c <pin_function>
    2dee:	2001      	movs	r0, #1
    2df0:	0664      	lsls	r4, r4, #25
    2df2:	0ee4      	lsrs	r4, r4, #27
    2df4:	40a0      	lsls	r0, r4
    2df6:	bd10      	pop	{r4, pc}

00002df8 <gpio_init>:
    2df8:	b570      	push	{r4, r5, r6, lr}
    2dfa:	0005      	movs	r5, r0
    2dfc:	000c      	movs	r4, r1
    2dfe:	8029      	strh	r1, [r5, #0]
    2e00:	1c4b      	adds	r3, r1, #1
    2e02:	d00f      	beq.n	2e24 <gpio_init+0x2c>
    2e04:	0008      	movs	r0, r1
    2e06:	f7ff ffed 	bl	2de4 <gpio_set>
    2e0a:	4b07      	ldr	r3, [pc, #28]	; (2e28 <gpio_init+0x30>)
    2e0c:	0b24      	lsrs	r4, r4, #12
    2e0e:	18e4      	adds	r4, r4, r3
    2e10:	01a4      	lsls	r4, r4, #6
    2e12:	1d23      	adds	r3, r4, #4
    2e14:	60eb      	str	r3, [r5, #12]
    2e16:	3304      	adds	r3, #4
    2e18:	612b      	str	r3, [r5, #16]
    2e1a:	3414      	adds	r4, #20
    2e1c:	3308      	adds	r3, #8
    2e1e:	6068      	str	r0, [r5, #4]
    2e20:	616b      	str	r3, [r5, #20]
    2e22:	60ac      	str	r4, [r5, #8]
    2e24:	bd70      	pop	{r4, r5, r6, pc}
    2e26:	46c0      	nop			; (mov r8, r8)
    2e28:	03e03fc0 	.word	0x03e03fc0

00002e2c <gpio_mode>:
    2e2c:	b510      	push	{r4, lr}
    2e2e:	2300      	movs	r3, #0
    2e30:	5ec0      	ldrsh	r0, [r0, r3]
    2e32:	f000 fb43 	bl	34bc <pin_mode>
    2e36:	bd10      	pop	{r4, pc}

00002e38 <gpio_dir>:
    2e38:	2900      	cmp	r1, #0
    2e3a:	d002      	beq.n	2e42 <gpio_dir+0xa>
    2e3c:	2901      	cmp	r1, #1
    2e3e:	d006      	beq.n	2e4e <gpio_dir+0x16>
    2e40:	4770      	bx	lr
    2e42:	6882      	ldr	r2, [r0, #8]
    2e44:	6841      	ldr	r1, [r0, #4]
    2e46:	6813      	ldr	r3, [r2, #0]
    2e48:	438b      	bics	r3, r1
    2e4a:	6013      	str	r3, [r2, #0]
    2e4c:	e7f8      	b.n	2e40 <gpio_dir+0x8>
    2e4e:	6882      	ldr	r2, [r0, #8]
    2e50:	6841      	ldr	r1, [r0, #4]
    2e52:	6813      	ldr	r3, [r2, #0]
    2e54:	430b      	orrs	r3, r1
    2e56:	e7f8      	b.n	2e4a <gpio_dir+0x12>

00002e58 <hal_sleep>:
    2e58:	222a      	movs	r2, #42	; 0x2a
    2e5a:	4b03      	ldr	r3, [pc, #12]	; (2e68 <hal_sleep+0x10>)
    2e5c:	701a      	strb	r2, [r3, #0]
    2e5e:	2200      	movs	r2, #0
    2e60:	4b02      	ldr	r3, [pc, #8]	; (2e6c <hal_sleep+0x14>)
    2e62:	611a      	str	r2, [r3, #16]
    2e64:	bf30      	wfi
    2e66:	4770      	bx	lr
    2e68:	4007e000 	.word	0x4007e000
    2e6c:	e000ed00 	.word	0xe000ed00

00002e70 <lptmr_set>:
    2e70:	2200      	movs	r2, #0
    2e72:	4b06      	ldr	r3, [pc, #24]	; (2e8c <lptmr_set+0x1c>)
    2e74:	601a      	str	r2, [r3, #0]
    2e76:	6098      	str	r0, [r3, #8]
    2e78:	6819      	ldr	r1, [r3, #0]
    2e7a:	3240      	adds	r2, #64	; 0x40
    2e7c:	430a      	orrs	r2, r1
    2e7e:	601a      	str	r2, [r3, #0]
    2e80:	2201      	movs	r2, #1
    2e82:	6819      	ldr	r1, [r3, #0]
    2e84:	430a      	orrs	r2, r1
    2e86:	601a      	str	r2, [r3, #0]
    2e88:	4770      	bx	lr
    2e8a:	46c0      	nop			; (mov r8, r8)
    2e8c:	40040000 	.word	0x40040000

00002e90 <lptmr_isr>:
    2e90:	2380      	movs	r3, #128	; 0x80
    2e92:	4a0d      	ldr	r2, [pc, #52]	; (2ec8 <lptmr_isr+0x38>)
    2e94:	b570      	push	{r4, r5, r6, lr}
    2e96:	6811      	ldr	r1, [r2, #0]
    2e98:	4d0c      	ldr	r5, [pc, #48]	; (2ecc <lptmr_isr+0x3c>)
    2e9a:	430b      	orrs	r3, r1
    2e9c:	6013      	str	r3, [r2, #0]
    2e9e:	682c      	ldr	r4, [r5, #0]
    2ea0:	2c00      	cmp	r4, #0
    2ea2:	d005      	beq.n	2eb0 <lptmr_isr+0x20>
    2ea4:	480a      	ldr	r0, [pc, #40]	; (2ed0 <lptmr_isr+0x40>)
    2ea6:	3c01      	subs	r4, #1
    2ea8:	f7ff ffe2 	bl	2e70 <lptmr_set>
    2eac:	602c      	str	r4, [r5, #0]
    2eae:	bd70      	pop	{r4, r5, r6, pc}
    2eb0:	4d08      	ldr	r5, [pc, #32]	; (2ed4 <lptmr_isr+0x44>)
    2eb2:	8828      	ldrh	r0, [r5, #0]
    2eb4:	2800      	cmp	r0, #0
    2eb6:	d003      	beq.n	2ec0 <lptmr_isr+0x30>
    2eb8:	f7ff ffda 	bl	2e70 <lptmr_set>
    2ebc:	802c      	strh	r4, [r5, #0]
    2ebe:	e7f6      	b.n	2eae <lptmr_isr+0x1e>
    2ec0:	f7fe fbf6 	bl	16b0 <us_ticker_irq_handler>
    2ec4:	e7f3      	b.n	2eae <lptmr_isr+0x1e>
    2ec6:	46c0      	nop			; (mov r8, r8)
    2ec8:	40040000 	.word	0x40040000
    2ecc:	20000830 	.word	0x20000830
    2ed0:	0000ffff 	.word	0x0000ffff
    2ed4:	20000834 	.word	0x20000834

00002ed8 <us_ticker_init>:
    2ed8:	b5f7      	push	{r0, r1, r2, r4, r5, r6, r7, lr}
    2eda:	4b68      	ldr	r3, [pc, #416]	; (307c <us_ticker_init+0x1a4>)
    2edc:	681a      	ldr	r2, [r3, #0]
    2ede:	9201      	str	r2, [sp, #4]
    2ee0:	2a00      	cmp	r2, #0
    2ee2:	d000      	beq.n	2ee6 <us_ticker_init+0xe>
    2ee4:	e08f      	b.n	3006 <us_ticker_init+0x12e>
    2ee6:	2401      	movs	r4, #1
    2ee8:	601c      	str	r4, [r3, #0]
    2eea:	2380      	movs	r3, #128	; 0x80
    2eec:	4e64      	ldr	r6, [pc, #400]	; (3080 <us_ticker_init+0x1a8>)
    2eee:	4a65      	ldr	r2, [pc, #404]	; (3084 <us_ticker_init+0x1ac>)
    2ef0:	041b      	lsls	r3, r3, #16
    2ef2:	58b1      	ldr	r1, [r6, r2]
    2ef4:	4d64      	ldr	r5, [pc, #400]	; (3088 <us_ticker_init+0x1b0>)
    2ef6:	430b      	orrs	r3, r1
    2ef8:	50b3      	str	r3, [r6, r2]
    2efa:	9a01      	ldr	r2, [sp, #4]
    2efc:	4b63      	ldr	r3, [pc, #396]	; (308c <us_ticker_init+0x1b4>)
    2efe:	4f64      	ldr	r7, [pc, #400]	; (3090 <us_ticker_init+0x1b8>)
    2f00:	601a      	str	r2, [r3, #0]
    2f02:	2301      	movs	r3, #1
    2f04:	425b      	negs	r3, r3
    2f06:	616b      	str	r3, [r5, #20]
    2f08:	3305      	adds	r3, #5
    2f0a:	61eb      	str	r3, [r5, #28]
    2f0c:	69eb      	ldr	r3, [r5, #28]
    2f0e:	4323      	orrs	r3, r4
    2f10:	61eb      	str	r3, [r5, #28]
    2f12:	4b60      	ldr	r3, [pc, #384]	; (3094 <us_ticker_init+0x1bc>)
    2f14:	6838      	ldr	r0, [r7, #0]
    2f16:	58f1      	ldr	r1, [r6, r3]
    2f18:	2307      	movs	r3, #7
    2f1a:	0c09      	lsrs	r1, r1, #16
    2f1c:	4019      	ands	r1, r3
    2f1e:	1909      	adds	r1, r1, r4
    2f20:	f001 f8f4 	bl	410c <__udivsi3>
    2f24:	4b5c      	ldr	r3, [pc, #368]	; (3098 <us_ticker_init+0x1c0>)
    2f26:	495d      	ldr	r1, [pc, #372]	; (309c <us_ticker_init+0x1c4>)
    2f28:	18c0      	adds	r0, r0, r3
    2f2a:	f001 f8ef 	bl	410c <__udivsi3>
    2f2e:	4a5c      	ldr	r2, [pc, #368]	; (30a0 <us_ticker_init+0x1c8>)
    2f30:	3801      	subs	r0, #1
    2f32:	6068      	str	r0, [r5, #4]
    2f34:	60ec      	str	r4, [r5, #12]
    2f36:	58b3      	ldr	r3, [r6, r2]
    2f38:	4d5a      	ldr	r5, [pc, #360]	; (30a4 <us_ticker_init+0x1cc>)
    2f3a:	4323      	orrs	r3, r4
    2f3c:	50b3      	str	r3, [r6, r2]
    2f3e:	9b01      	ldr	r3, [sp, #4]
    2f40:	201c      	movs	r0, #28
    2f42:	602b      	str	r3, [r5, #0]
    2f44:	4958      	ldr	r1, [pc, #352]	; (30a8 <us_ticker_init+0x1d0>)
    2f46:	f000 fd8f 	bl	3a68 <NVIC_SetVector>
    2f4a:	2280      	movs	r2, #128	; 0x80
    2f4c:	4b57      	ldr	r3, [pc, #348]	; (30ac <us_ticker_init+0x1d4>)
    2f4e:	0552      	lsls	r2, r2, #21
    2f50:	601a      	str	r2, [r3, #0]
    2f52:	223f      	movs	r2, #63	; 0x3f
    2f54:	4b4f      	ldr	r3, [pc, #316]	; (3094 <us_ticker_init+0x1bc>)
    2f56:	683f      	ldr	r7, [r7, #0]
    2f58:	58f0      	ldr	r0, [r6, r3]
    2f5a:	4e55      	ldr	r6, [pc, #340]	; (30b0 <us_ticker_init+0x1d8>)
    2f5c:	0f00      	lsrs	r0, r0, #28
    2f5e:	7833      	ldrb	r3, [r6, #0]
    2f60:	1900      	adds	r0, r0, r4
    2f62:	4347      	muls	r7, r0
    2f64:	4393      	bics	r3, r2
    2f66:	2b80      	cmp	r3, #128	; 0x80
    2f68:	d033      	beq.n	2fd2 <us_ticker_init+0xfa>
    2f6a:	7833      	ldrb	r3, [r6, #0]
    2f6c:	4393      	bics	r3, r2
    2f6e:	d164      	bne.n	303a <us_ticker_init+0x162>
    2f70:	7973      	ldrb	r3, [r6, #5]
    2f72:	065b      	lsls	r3, r3, #25
    2f74:	d453      	bmi.n	301e <us_ticker_init+0x146>
    2f76:	79b3      	ldrb	r3, [r6, #6]
    2f78:	06db      	lsls	r3, r3, #27
    2f7a:	d45e      	bmi.n	303a <us_ticker_init+0x162>
    2f7c:	7833      	ldrb	r3, [r6, #0]
    2f7e:	3a38      	subs	r2, #56	; 0x38
    2f80:	08db      	lsrs	r3, r3, #3
    2f82:	7871      	ldrb	r1, [r6, #1]
    2f84:	4013      	ands	r3, r2
    2f86:	3229      	adds	r2, #41	; 0x29
    2f88:	409c      	lsls	r4, r3
    2f8a:	4211      	tst	r1, r2
    2f8c:	d003      	beq.n	2f96 <us_ticker_init+0xbe>
    2f8e:	23ff      	movs	r3, #255	; 0xff
    2f90:	0164      	lsls	r4, r4, #5
    2f92:	015b      	lsls	r3, r3, #5
    2f94:	401c      	ands	r4, r3
    2f96:	221f      	movs	r2, #31
    2f98:	78f3      	ldrb	r3, [r6, #3]
    2f9a:	4393      	bics	r3, r2
    2f9c:	2b60      	cmp	r3, #96	; 0x60
    2f9e:	d035      	beq.n	300c <us_ticker_init+0x134>
    2fa0:	d807      	bhi.n	2fb2 <us_ticker_init+0xda>
    2fa2:	2b20      	cmp	r3, #32
    2fa4:	d00e      	beq.n	2fc4 <us_ticker_init+0xec>
    2fa6:	2b40      	cmp	r3, #64	; 0x40
    2fa8:	d02e      	beq.n	3008 <us_ticker_init+0x130>
    2faa:	2b00      	cmp	r3, #0
    2fac:	d135      	bne.n	301a <us_ticker_init+0x142>
    2fae:	21a0      	movs	r1, #160	; 0xa0
    2fb0:	e006      	b.n	2fc0 <us_ticker_init+0xe8>
    2fb2:	2ba0      	cmp	r3, #160	; 0xa0
    2fb4:	d02d      	beq.n	3012 <us_ticker_init+0x13a>
    2fb6:	2bc0      	cmp	r3, #192	; 0xc0
    2fb8:	d02d      	beq.n	3016 <us_ticker_init+0x13e>
    2fba:	2b80      	cmp	r3, #128	; 0x80
    2fbc:	d12d      	bne.n	301a <us_ticker_init+0x142>
    2fbe:	21b7      	movs	r1, #183	; 0xb7
    2fc0:	0089      	lsls	r1, r1, #2
    2fc2:	e001      	b.n	2fc8 <us_ticker_init+0xf0>
    2fc4:	21a0      	movs	r1, #160	; 0xa0
    2fc6:	00c9      	lsls	r1, r1, #3
    2fc8:	0020      	movs	r0, r4
    2fca:	4378      	muls	r0, r7
    2fcc:	f001 f89e 	bl	410c <__udivsi3>
    2fd0:	0007      	movs	r7, r0
    2fd2:	2f00      	cmp	r7, #0
    2fd4:	d031      	beq.n	303a <us_ticker_init+0x162>
    2fd6:	4931      	ldr	r1, [pc, #196]	; (309c <us_ticker_init+0x1c4>)
    2fd8:	0038      	movs	r0, r7
    2fda:	f001 f91d 	bl	4218 <__aeabi_uidivmod>
    2fde:	1e0c      	subs	r4, r1, #0
    2fe0:	d12b      	bne.n	303a <us_ticker_init+0x162>
    2fe2:	492e      	ldr	r1, [pc, #184]	; (309c <us_ticker_init+0x1c4>)
    2fe4:	0038      	movs	r0, r7
    2fe6:	f001 f891 	bl	410c <__udivsi3>
    2fea:	2307      	movs	r3, #7
    2fec:	2801      	cmp	r0, #1
    2fee:	d042      	beq.n	3076 <us_ticker_init+0x19e>
    2ff0:	0021      	movs	r1, r4
    2ff2:	2301      	movs	r3, #1
    2ff4:	0840      	lsrs	r0, r0, #1
    2ff6:	2801      	cmp	r0, #1
    2ff8:	d11a      	bne.n	3030 <us_ticker_init+0x158>
    2ffa:	2378      	movs	r3, #120	; 0x78
    2ffc:	00c9      	lsls	r1, r1, #3
    2ffe:	4019      	ands	r1, r3
    3000:	3b75      	subs	r3, #117	; 0x75
    3002:	4319      	orrs	r1, r3
    3004:	6069      	str	r1, [r5, #4]
    3006:	bdf7      	pop	{r0, r1, r2, r4, r5, r6, r7, pc}
    3008:	21f0      	movs	r1, #240	; 0xf0
    300a:	e7dc      	b.n	2fc6 <us_ticker_init+0xee>
    300c:	21a0      	movs	r1, #160	; 0xa0
    300e:	0109      	lsls	r1, r1, #4
    3010:	e7da      	b.n	2fc8 <us_ticker_init+0xf0>
    3012:	21b7      	movs	r1, #183	; 0xb7
    3014:	e7d7      	b.n	2fc6 <us_ticker_init+0xee>
    3016:	4927      	ldr	r1, [pc, #156]	; (30b4 <us_ticker_init+0x1dc>)
    3018:	e7d6      	b.n	2fc8 <us_ticker_init+0xf0>
    301a:	4927      	ldr	r1, [pc, #156]	; (30b8 <us_ticker_init+0x1e0>)
    301c:	e7d4      	b.n	2fc8 <us_ticker_init+0xf0>
    301e:	231f      	movs	r3, #31
    3020:	7930      	ldrb	r0, [r6, #4]
    3022:	7971      	ldrb	r1, [r6, #5]
    3024:	4018      	ands	r0, r3
    3026:	3001      	adds	r0, #1
    3028:	4019      	ands	r1, r3
    302a:	4378      	muls	r0, r7
    302c:	3118      	adds	r1, #24
    302e:	e7cd      	b.n	2fcc <us_ticker_init+0xf4>
    3030:	4218      	tst	r0, r3
    3032:	d102      	bne.n	303a <us_ticker_init+0x162>
    3034:	3101      	adds	r1, #1
    3036:	0840      	lsrs	r0, r0, #1
    3038:	e7dd      	b.n	2ff6 <us_ticker_init+0x11e>
    303a:	2302      	movs	r3, #2
    303c:	7832      	ldrb	r2, [r6, #0]
    303e:	4313      	orrs	r3, r2
    3040:	7033      	strb	r3, [r6, #0]
    3042:	2301      	movs	r3, #1
    3044:	7872      	ldrb	r2, [r6, #1]
    3046:	4313      	orrs	r3, r2
    3048:	7073      	strb	r3, [r6, #1]
    304a:	2300      	movs	r3, #0
    304c:	220e      	movs	r2, #14
    304e:	606b      	str	r3, [r5, #4]
    3050:	7a33      	ldrb	r3, [r6, #8]
    3052:	4013      	ands	r3, r2
    3054:	d00a      	beq.n	306c <us_ticker_init+0x194>
    3056:	2b02      	cmp	r3, #2
    3058:	d00c      	beq.n	3074 <us_ticker_init+0x19c>
    305a:	7a33      	ldrb	r3, [r6, #8]
    305c:	4393      	bics	r3, r2
    305e:	7233      	strb	r3, [r6, #8]
    3060:	2304      	movs	r3, #4
    3062:	7a32      	ldrb	r2, [r6, #8]
    3064:	431a      	orrs	r2, r3
    3066:	7232      	strb	r2, [r6, #8]
    3068:	686a      	ldr	r2, [r5, #4]
    306a:	e001      	b.n	3070 <us_ticker_init+0x198>
    306c:	2308      	movs	r3, #8
    306e:	686a      	ldr	r2, [r5, #4]
    3070:	4313      	orrs	r3, r2
    3072:	e000      	b.n	3076 <us_ticker_init+0x19e>
    3074:	686b      	ldr	r3, [r5, #4]
    3076:	606b      	str	r3, [r5, #4]
    3078:	e7c5      	b.n	3006 <us_ticker_init+0x12e>
    307a:	46c0      	nop			; (mov r8, r8)
    307c:	2000082c 	.word	0x2000082c
    3080:	40047000 	.word	0x40047000
    3084:	0000103c 	.word	0x0000103c
    3088:	400370fc 	.word	0x400370fc
    308c:	40037000 	.word	0x40037000
    3090:	1ffff0e0 	.word	0x1ffff0e0
    3094:	00001044 	.word	0x00001044
    3098:	0007a120 	.word	0x0007a120
    309c:	000f4240 	.word	0x000f4240
    30a0:	00001038 	.word	0x00001038
    30a4:	40040000 	.word	0x40040000
    30a8:	00002e91 	.word	0x00002e91
    30ac:	e000e100 	.word	0xe000e100
    30b0:	40064000 	.word	0x40064000
    30b4:	00000895 	.word	0x00000895
    30b8:	00000b71 	.word	0x00000b71

000030bc <us_ticker_read>:
    30bc:	4b05      	ldr	r3, [pc, #20]	; (30d4 <us_ticker_read+0x18>)
    30be:	b510      	push	{r4, lr}
    30c0:	681b      	ldr	r3, [r3, #0]
    30c2:	2b00      	cmp	r3, #0
    30c4:	d101      	bne.n	30ca <us_ticker_read+0xe>
    30c6:	f7ff ff07 	bl	2ed8 <us_ticker_init>
    30ca:	4b03      	ldr	r3, [pc, #12]	; (30d8 <us_ticker_read+0x1c>)
    30cc:	6998      	ldr	r0, [r3, #24]
    30ce:	43c0      	mvns	r0, r0
    30d0:	bd10      	pop	{r4, pc}
    30d2:	46c0      	nop			; (mov r8, r8)
    30d4:	2000082c 	.word	0x2000082c
    30d8:	400370fc 	.word	0x400370fc

000030dc <us_ticker_disable_interrupt>:
    30dc:	2140      	movs	r1, #64	; 0x40
    30de:	4a02      	ldr	r2, [pc, #8]	; (30e8 <us_ticker_disable_interrupt+0xc>)
    30e0:	6813      	ldr	r3, [r2, #0]
    30e2:	438b      	bics	r3, r1
    30e4:	6013      	str	r3, [r2, #0]
    30e6:	4770      	bx	lr
    30e8:	40040000 	.word	0x40040000

000030ec <us_ticker_clear_interrupt>:
    30ec:	4770      	bx	lr
	...

000030f0 <us_ticker_set_interrupt>:
    30f0:	b570      	push	{r4, r5, r6, lr}
    30f2:	0004      	movs	r4, r0
    30f4:	f7ff ffe2 	bl	30bc <us_ticker_read>
    30f8:	1a20      	subs	r0, r4, r0
    30fa:	2800      	cmp	r0, #0
    30fc:	dc00      	bgt.n	3100 <us_ticker_set_interrupt+0x10>
    30fe:	2001      	movs	r0, #1
    3100:	4d08      	ldr	r5, [pc, #32]	; (3124 <us_ticker_set_interrupt+0x34>)
    3102:	4e09      	ldr	r6, [pc, #36]	; (3128 <us_ticker_set_interrupt+0x38>)
    3104:	1404      	asrs	r4, r0, #16
    3106:	b280      	uxth	r0, r0
    3108:	602c      	str	r4, [r5, #0]
    310a:	8030      	strh	r0, [r6, #0]
    310c:	2c00      	cmp	r4, #0
    310e:	d005      	beq.n	311c <us_ticker_set_interrupt+0x2c>
    3110:	4806      	ldr	r0, [pc, #24]	; (312c <us_ticker_set_interrupt+0x3c>)
    3112:	3c01      	subs	r4, #1
    3114:	f7ff feac 	bl	2e70 <lptmr_set>
    3118:	602c      	str	r4, [r5, #0]
    311a:	bd70      	pop	{r4, r5, r6, pc}
    311c:	f7ff fea8 	bl	2e70 <lptmr_set>
    3120:	8034      	strh	r4, [r6, #0]
    3122:	e7fa      	b.n	311a <us_ticker_set_interrupt+0x2a>
    3124:	20000830 	.word	0x20000830
    3128:	20000834 	.word	0x20000834
    312c:	0000ffff 	.word	0x0000ffff

00003130 <mcgpllfll_frequency.part.0>:
    3130:	4a0c      	ldr	r2, [pc, #48]	; (3164 <mcgpllfll_frequency.part.0+0x34>)
    3132:	4b0d      	ldr	r3, [pc, #52]	; (3168 <mcgpllfll_frequency.part.0+0x38>)
    3134:	b510      	push	{r4, lr}
    3136:	5898      	ldr	r0, [r3, r2]
    3138:	4a0c      	ldr	r2, [pc, #48]	; (316c <mcgpllfll_frequency.part.0+0x3c>)
    313a:	0f00      	lsrs	r0, r0, #28
    313c:	6812      	ldr	r2, [r2, #0]
    313e:	3001      	adds	r0, #1
    3140:	4350      	muls	r0, r2
    3142:	4a0b      	ldr	r2, [pc, #44]	; (3170 <mcgpllfll_frequency.part.0+0x40>)
    3144:	7951      	ldrb	r1, [r2, #5]
    3146:	4a0b      	ldr	r2, [pc, #44]	; (3174 <mcgpllfll_frequency.part.0+0x44>)
    3148:	0649      	lsls	r1, r1, #25
    314a:	d404      	bmi.n	3156 <mcgpllfll_frequency.part.0+0x26>
    314c:	5899      	ldr	r1, [r3, r2]
    314e:	4c0a      	ldr	r4, [pc, #40]	; (3178 <mcgpllfll_frequency.part.0+0x48>)
    3150:	4021      	ands	r1, r4
    3152:	5099      	str	r1, [r3, r2]
    3154:	bd10      	pop	{r4, pc}
    3156:	2180      	movs	r1, #128	; 0x80
    3158:	589c      	ldr	r4, [r3, r2]
    315a:	0249      	lsls	r1, r1, #9
    315c:	4321      	orrs	r1, r4
    315e:	5099      	str	r1, [r3, r2]
    3160:	0840      	lsrs	r0, r0, #1
    3162:	e7f7      	b.n	3154 <mcgpllfll_frequency.part.0+0x24>
    3164:	00001044 	.word	0x00001044
    3168:	40047000 	.word	0x40047000
    316c:	1ffff0e0 	.word	0x1ffff0e0
    3170:	40064000 	.word	0x40064000
    3174:	00001004 	.word	0x00001004
    3178:	fffeffff 	.word	0xfffeffff

0000317c <pwmout_write>:
    317c:	b570      	push	{r4, r5, r6, lr}
    317e:	1c0c      	adds	r4, r1, #0
    3180:	0005      	movs	r5, r0
    3182:	2100      	movs	r1, #0
    3184:	1c20      	adds	r0, r4, #0
    3186:	f001 f949 	bl	441c <__aeabi_fcmplt>
    318a:	2800      	cmp	r0, #0
    318c:	d118      	bne.n	31c0 <pwmout_write+0x44>
    318e:	21fe      	movs	r1, #254	; 0xfe
    3190:	1c20      	adds	r0, r4, #0
    3192:	0589      	lsls	r1, r1, #22
    3194:	f001 f956 	bl	4444 <__aeabi_fcmpgt>
    3198:	2800      	cmp	r0, #0
    319a:	d001      	beq.n	31a0 <pwmout_write+0x24>
    319c:	24fe      	movs	r4, #254	; 0xfe
    319e:	05a4      	lsls	r4, r4, #22
    31a0:	682b      	ldr	r3, [r5, #0]
    31a2:	68ae      	ldr	r6, [r5, #8]
    31a4:	6818      	ldr	r0, [r3, #0]
    31a6:	3001      	adds	r0, #1
    31a8:	f002 f826 	bl	51f8 <__aeabi_ui2f>
    31ac:	1c21      	adds	r1, r4, #0
    31ae:	f001 fcf7 	bl	4ba0 <__aeabi_fmul>
    31b2:	f001 f95b 	bl	446c <__aeabi_f2uiz>
    31b6:	2200      	movs	r2, #0
    31b8:	686b      	ldr	r3, [r5, #4]
    31ba:	6030      	str	r0, [r6, #0]
    31bc:	601a      	str	r2, [r3, #0]
    31be:	bd70      	pop	{r4, r5, r6, pc}
    31c0:	2400      	movs	r4, #0
    31c2:	e7ed      	b.n	31a0 <pwmout_write+0x24>

000031c4 <pwmout_read>:
    31c4:	0003      	movs	r3, r0
    31c6:	6882      	ldr	r2, [r0, #8]
    31c8:	681b      	ldr	r3, [r3, #0]
    31ca:	b570      	push	{r4, r5, r6, lr}
    31cc:	6810      	ldr	r0, [r2, #0]
    31ce:	681c      	ldr	r4, [r3, #0]
    31d0:	f002 f812 	bl	51f8 <__aeabi_ui2f>
    31d4:	1c05      	adds	r5, r0, #0
    31d6:	1c60      	adds	r0, r4, #1
    31d8:	f002 f80e 	bl	51f8 <__aeabi_ui2f>
    31dc:	1c01      	adds	r1, r0, #0
    31de:	1c28      	adds	r0, r5, #0
    31e0:	f001 faee 	bl	47c0 <__aeabi_fdiv>
    31e4:	21fe      	movs	r1, #254	; 0xfe
    31e6:	0589      	lsls	r1, r1, #22
    31e8:	1c04      	adds	r4, r0, #0
    31ea:	f001 f92b 	bl	4444 <__aeabi_fcmpgt>
    31ee:	2800      	cmp	r0, #0
    31f0:	d001      	beq.n	31f6 <pwmout_read+0x32>
    31f2:	24fe      	movs	r4, #254	; 0xfe
    31f4:	05a4      	lsls	r4, r4, #22
    31f6:	1c20      	adds	r0, r4, #0
    31f8:	bd70      	pop	{r4, r5, r6, pc}
	...

000031fc <pwmout_period_us>:
    31fc:	b5f8      	push	{r3, r4, r5, r6, r7, lr}
    31fe:	000f      	movs	r7, r1
    3200:	0004      	movs	r4, r0
    3202:	f7ff ffdf 	bl	31c4 <pwmout_read>
    3206:	1c05      	adds	r5, r0, #0
    3208:	0038      	movs	r0, r7
    320a:	f001 ffa5 	bl	5158 <__aeabi_i2f>
    320e:	4b07      	ldr	r3, [pc, #28]	; (322c <pwmout_period_us+0x30>)
    3210:	6826      	ldr	r6, [r4, #0]
    3212:	6819      	ldr	r1, [r3, #0]
    3214:	f001 fcc4 	bl	4ba0 <__aeabi_fmul>
    3218:	f001 f928 	bl	446c <__aeabi_f2uiz>
    321c:	3801      	subs	r0, #1
    321e:	6030      	str	r0, [r6, #0]
    3220:	1c29      	adds	r1, r5, #0
    3222:	0020      	movs	r0, r4
    3224:	f7ff ffaa 	bl	317c <pwmout_write>
    3228:	bdf8      	pop	{r3, r4, r5, r6, r7, pc}
    322a:	46c0      	nop			; (mov r8, r8)
    322c:	20000838 	.word	0x20000838

00003230 <pwmout_period>:
    3230:	b510      	push	{r4, lr}
    3232:	0004      	movs	r4, r0
    3234:	1c08      	adds	r0, r1, #0
    3236:	4905      	ldr	r1, [pc, #20]	; (324c <pwmout_period+0x1c>)
    3238:	f001 fcb2 	bl	4ba0 <__aeabi_fmul>
    323c:	f001 ff6c 	bl	5118 <__aeabi_f2iz>
    3240:	0001      	movs	r1, r0
    3242:	0020      	movs	r0, r4
    3244:	f7ff ffda 	bl	31fc <pwmout_period_us>
    3248:	bd10      	pop	{r4, pc}
    324a:	46c0      	nop			; (mov r8, r8)
    324c:	49742400 	.word	0x49742400

00003250 <pwmout_init>:
    3250:	b5f0      	push	{r4, r5, r6, r7, lr}
    3252:	b085      	sub	sp, #20
    3254:	9100      	str	r1, [sp, #0]
    3256:	0006      	movs	r6, r0
    3258:	496a      	ldr	r1, [pc, #424]	; (3404 <pwmout_init+0x1b4>)
    325a:	9800      	ldr	r0, [sp, #0]
    325c:	f7fe fa92 	bl	1784 <pinmap_peripheral>
    3260:	466b      	mov	r3, sp
    3262:	9001      	str	r0, [sp, #4]
    3264:	889b      	ldrh	r3, [r3, #4]
    3266:	4d68      	ldr	r5, [pc, #416]	; (3408 <pwmout_init+0x1b8>)
    3268:	9303      	str	r3, [sp, #12]
    326a:	4b67      	ldr	r3, [pc, #412]	; (3408 <pwmout_init+0x1b8>)
    326c:	4c67      	ldr	r4, [pc, #412]	; (340c <pwmout_init+0x1bc>)
    326e:	7818      	ldrb	r0, [r3, #0]
    3270:	233f      	movs	r3, #63	; 0x3f
    3272:	4398      	bics	r0, r3
    3274:	9002      	str	r0, [sp, #8]
    3276:	4f66      	ldr	r7, [pc, #408]	; (3410 <pwmout_init+0x1c0>)
    3278:	d167      	bne.n	334a <pwmout_init+0xfa>
    327a:	f7ff ff59 	bl	3130 <mcgpllfll_frequency.part.0>
    327e:	2800      	cmp	r0, #0
    3280:	d063      	beq.n	334a <pwmout_init+0xfa>
    3282:	2380      	movs	r3, #128	; 0x80
    3284:	59e2      	ldr	r2, [r4, r7]
    3286:	045b      	lsls	r3, r3, #17
    3288:	4313      	orrs	r3, r2
    328a:	223f      	movs	r2, #63	; 0x3f
    328c:	51e3      	str	r3, [r4, r7]
    328e:	782b      	ldrb	r3, [r5, #0]
    3290:	9802      	ldr	r0, [sp, #8]
    3292:	4393      	bics	r3, r2
    3294:	d101      	bne.n	329a <pwmout_init+0x4a>
    3296:	f7ff ff4b 	bl	3130 <mcgpllfll_frequency.part.0>
    329a:	f001 ffad 	bl	51f8 <__aeabi_ui2f>
    329e:	495d      	ldr	r1, [pc, #372]	; (3414 <pwmout_init+0x1c4>)
    32a0:	f001 fa8e 	bl	47c0 <__aeabi_fdiv>
    32a4:	2500      	movs	r5, #0
    32a6:	1c07      	adds	r7, r0, #0
    32a8:	21fe      	movs	r1, #254	; 0xfe
    32aa:	1c38      	adds	r0, r7, #0
    32ac:	0589      	lsls	r1, r1, #22
    32ae:	f001 f8c9 	bl	4444 <__aeabi_fcmpgt>
    32b2:	2800      	cmp	r0, #0
    32b4:	d008      	beq.n	32c8 <pwmout_init+0x78>
    32b6:	21fc      	movs	r1, #252	; 0xfc
    32b8:	1c38      	adds	r0, r7, #0
    32ba:	0589      	lsls	r1, r1, #22
    32bc:	f001 fc70 	bl	4ba0 <__aeabi_fmul>
    32c0:	3501      	adds	r5, #1
    32c2:	1c07      	adds	r7, r0, #0
    32c4:	2d07      	cmp	r5, #7
    32c6:	d1ef      	bne.n	32a8 <pwmout_init+0x58>
    32c8:	4b53      	ldr	r3, [pc, #332]	; (3418 <pwmout_init+0x1c8>)
    32ca:	2101      	movs	r1, #1
    32cc:	601f      	str	r7, [r3, #0]
    32ce:	9b03      	ldr	r3, [sp, #12]
    32d0:	4f52      	ldr	r7, [pc, #328]	; (341c <pwmout_init+0x1cc>)
    32d2:	0a1b      	lsrs	r3, r3, #8
    32d4:	9302      	str	r3, [sp, #8]
    32d6:	466b      	mov	r3, sp
    32d8:	791a      	ldrb	r2, [r3, #4]
    32da:	59e3      	ldr	r3, [r4, r7]
    32dc:	469c      	mov	r12, r3
    32de:	9b00      	ldr	r3, [sp, #0]
    32e0:	0b18      	lsrs	r0, r3, #12
    32e2:	000b      	movs	r3, r1
    32e4:	3009      	adds	r0, #9
    32e6:	4083      	lsls	r3, r0
    32e8:	0018      	movs	r0, r3
    32ea:	4663      	mov	r3, r12
    32ec:	4318      	orrs	r0, r3
    32ee:	2318      	movs	r3, #24
    32f0:	469c      	mov	r12, r3
    32f2:	9b02      	ldr	r3, [sp, #8]
    32f4:	51e0      	str	r0, [r4, r7]
    32f6:	449c      	add	r12, r3
    32f8:	4663      	mov	r3, r12
    32fa:	4099      	lsls	r1, r3
    32fc:	4848      	ldr	r0, [pc, #288]	; (3420 <pwmout_init+0x1d0>)
    32fe:	4b49      	ldr	r3, [pc, #292]	; (3424 <pwmout_init+0x1d4>)
    3300:	5827      	ldr	r7, [r4, r0]
    3302:	430f      	orrs	r7, r1
    3304:	9902      	ldr	r1, [sp, #8]
    3306:	5027      	str	r7, [r4, r0]
    3308:	18cb      	adds	r3, r1, r3
    330a:	2108      	movs	r1, #8
    330c:	2028      	movs	r0, #40	; 0x28
    330e:	430d      	orrs	r5, r1
    3310:	1c51      	adds	r1, r2, #1
    3312:	3202      	adds	r2, #2
    3314:	031b      	lsls	r3, r3, #12
    3316:	00c9      	lsls	r1, r1, #3
    3318:	00d2      	lsls	r2, r2, #3
    331a:	1859      	adds	r1, r3, r1
    331c:	189a      	adds	r2, r3, r2
    331e:	601d      	str	r5, [r3, #0]
    3320:	6048      	str	r0, [r1, #4]
    3322:	60b2      	str	r2, [r6, #8]
    3324:	001a      	movs	r2, r3
    3326:	3304      	adds	r3, #4
    3328:	3208      	adds	r2, #8
    332a:	6032      	str	r2, [r6, #0]
    332c:	6073      	str	r3, [r6, #4]
    332e:	0030      	movs	r0, r6
    3330:	493d      	ldr	r1, [pc, #244]	; (3428 <pwmout_init+0x1d8>)
    3332:	f7ff ff63 	bl	31fc <pwmout_period_us>
    3336:	0030      	movs	r0, r6
    3338:	2100      	movs	r1, #0
    333a:	f7ff ff1f 	bl	317c <pwmout_write>
    333e:	4931      	ldr	r1, [pc, #196]	; (3404 <pwmout_init+0x1b4>)
    3340:	9800      	ldr	r0, [sp, #0]
    3342:	f7fe f9e5 	bl	1710 <pinmap_pinout>
    3346:	b005      	add	sp, #20
    3348:	bdf0      	pop	{r4, r5, r6, r7, pc}
    334a:	2380      	movs	r3, #128	; 0x80
    334c:	59e2      	ldr	r2, [r4, r7]
    334e:	049b      	lsls	r3, r3, #18
    3350:	4313      	orrs	r3, r2
    3352:	223f      	movs	r2, #63	; 0x3f
    3354:	51e3      	str	r3, [r4, r7]
    3356:	4b35      	ldr	r3, [pc, #212]	; (342c <pwmout_init+0x1dc>)
    3358:	58e0      	ldr	r0, [r4, r3]
    335a:	4b35      	ldr	r3, [pc, #212]	; (3430 <pwmout_init+0x1e0>)
    335c:	0f00      	lsrs	r0, r0, #28
    335e:	681b      	ldr	r3, [r3, #0]
    3360:	3001      	adds	r0, #1
    3362:	4358      	muls	r0, r3
    3364:	782b      	ldrb	r3, [r5, #0]
    3366:	4393      	bics	r3, r2
    3368:	2b80      	cmp	r3, #128	; 0x80
    336a:	d096      	beq.n	329a <pwmout_init+0x4a>
    336c:	782b      	ldrb	r3, [r5, #0]
    336e:	4393      	bics	r3, r2
    3370:	d144      	bne.n	33fc <pwmout_init+0x1ac>
    3372:	796b      	ldrb	r3, [r5, #5]
    3374:	3201      	adds	r2, #1
    3376:	4013      	ands	r3, r2
    3378:	d137      	bne.n	33ea <pwmout_init+0x19a>
    337a:	79aa      	ldrb	r2, [r5, #6]
    337c:	06d2      	lsls	r2, r2, #27
    337e:	d43f      	bmi.n	3400 <pwmout_init+0x1b0>
    3380:	2201      	movs	r2, #1
    3382:	2130      	movs	r1, #48	; 0x30
    3384:	782b      	ldrb	r3, [r5, #0]
    3386:	786f      	ldrb	r7, [r5, #1]
    3388:	069b      	lsls	r3, r3, #26
    338a:	0f5b      	lsrs	r3, r3, #29
    338c:	409a      	lsls	r2, r3
    338e:	420f      	tst	r7, r1
    3390:	d003      	beq.n	339a <pwmout_init+0x14a>
    3392:	23ff      	movs	r3, #255	; 0xff
    3394:	0152      	lsls	r2, r2, #5
    3396:	015b      	lsls	r3, r3, #5
    3398:	401a      	ands	r2, r3
    339a:	211f      	movs	r1, #31
    339c:	78eb      	ldrb	r3, [r5, #3]
    339e:	438b      	bics	r3, r1
    33a0:	2b60      	cmp	r3, #96	; 0x60
    33a2:	d019      	beq.n	33d8 <pwmout_init+0x188>
    33a4:	d807      	bhi.n	33b6 <pwmout_init+0x166>
    33a6:	2b20      	cmp	r3, #32
    33a8:	d00e      	beq.n	33c8 <pwmout_init+0x178>
    33aa:	2b40      	cmp	r3, #64	; 0x40
    33ac:	d012      	beq.n	33d4 <pwmout_init+0x184>
    33ae:	2b00      	cmp	r3, #0
    33b0:	d119      	bne.n	33e6 <pwmout_init+0x196>
    33b2:	21a0      	movs	r1, #160	; 0xa0
    33b4:	e006      	b.n	33c4 <pwmout_init+0x174>
    33b6:	2ba0      	cmp	r3, #160	; 0xa0
    33b8:	d011      	beq.n	33de <pwmout_init+0x18e>
    33ba:	2bc0      	cmp	r3, #192	; 0xc0
    33bc:	d011      	beq.n	33e2 <pwmout_init+0x192>
    33be:	2b80      	cmp	r3, #128	; 0x80
    33c0:	d111      	bne.n	33e6 <pwmout_init+0x196>
    33c2:	21b7      	movs	r1, #183	; 0xb7
    33c4:	0089      	lsls	r1, r1, #2
    33c6:	e001      	b.n	33cc <pwmout_init+0x17c>
    33c8:	21a0      	movs	r1, #160	; 0xa0
    33ca:	00c9      	lsls	r1, r1, #3
    33cc:	4350      	muls	r0, r2
    33ce:	f000 fe9d 	bl	410c <__udivsi3>
    33d2:	e762      	b.n	329a <pwmout_init+0x4a>
    33d4:	21f0      	movs	r1, #240	; 0xf0
    33d6:	e7f8      	b.n	33ca <pwmout_init+0x17a>
    33d8:	21a0      	movs	r1, #160	; 0xa0
    33da:	0109      	lsls	r1, r1, #4
    33dc:	e7f6      	b.n	33cc <pwmout_init+0x17c>
    33de:	21b7      	movs	r1, #183	; 0xb7
    33e0:	e7f3      	b.n	33ca <pwmout_init+0x17a>
    33e2:	4914      	ldr	r1, [pc, #80]	; (3434 <pwmout_init+0x1e4>)
    33e4:	e7f2      	b.n	33cc <pwmout_init+0x17c>
    33e6:	4914      	ldr	r1, [pc, #80]	; (3438 <pwmout_init+0x1e8>)
    33e8:	e7f0      	b.n	33cc <pwmout_init+0x17c>
    33ea:	221f      	movs	r2, #31
    33ec:	792b      	ldrb	r3, [r5, #4]
    33ee:	7969      	ldrb	r1, [r5, #5]
    33f0:	4013      	ands	r3, r2
    33f2:	3301      	adds	r3, #1
    33f4:	4011      	ands	r1, r2
    33f6:	4358      	muls	r0, r3
    33f8:	3118      	adds	r1, #24
    33fa:	e7e8      	b.n	33ce <pwmout_init+0x17e>
    33fc:	2000      	movs	r0, #0
    33fe:	e74c      	b.n	329a <pwmout_init+0x4a>
    3400:	0018      	movs	r0, r3
    3402:	e74a      	b.n	329a <pwmout_init+0x4a>
    3404:	000076c4 	.word	0x000076c4
    3408:	40064000 	.word	0x40064000
    340c:	40047000 	.word	0x40047000
    3410:	00001004 	.word	0x00001004
    3414:	49742400 	.word	0x49742400
    3418:	20000838 	.word	0x20000838
    341c:	00001038 	.word	0x00001038
    3420:	0000103c 	.word	0x0000103c
    3424:	00040038 	.word	0x00040038
    3428:	00004e20 	.word	0x00004e20
    342c:	00001044 	.word	0x00001044
    3430:	1ffff0e0 	.word	0x1ffff0e0
    3434:	00000895 	.word	0x00000895
    3438:	00000b71 	.word	0x00000b71

0000343c <pwmout_pulsewidth_us>:
    343c:	b510      	push	{r4, lr}
    343e:	6884      	ldr	r4, [r0, #8]
    3440:	0008      	movs	r0, r1
    3442:	f001 fe89 	bl	5158 <__aeabi_i2f>
    3446:	4b04      	ldr	r3, [pc, #16]	; (3458 <pwmout_pulsewidth_us+0x1c>)
    3448:	6819      	ldr	r1, [r3, #0]
    344a:	f001 fba9 	bl	4ba0 <__aeabi_fmul>
    344e:	f001 f80d 	bl	446c <__aeabi_f2uiz>
    3452:	6020      	str	r0, [r4, #0]
    3454:	bd10      	pop	{r4, pc}
    3456:	46c0      	nop			; (mov r8, r8)
    3458:	20000838 	.word	0x20000838

0000345c <pwmout_pulsewidth>:
    345c:	b510      	push	{r4, lr}
    345e:	0004      	movs	r4, r0
    3460:	1c08      	adds	r0, r1, #0
    3462:	4905      	ldr	r1, [pc, #20]	; (3478 <pwmout_pulsewidth+0x1c>)
    3464:	f001 fb9c 	bl	4ba0 <__aeabi_fmul>
    3468:	f001 fe56 	bl	5118 <__aeabi_f2iz>
    346c:	0001      	movs	r1, r0
    346e:	0020      	movs	r0, r4
    3470:	f7ff ffe4 	bl	343c <pwmout_pulsewidth_us>
    3474:	bd10      	pop	{r4, pc}
    3476:	46c0      	nop			; (mov r8, r8)
    3478:	49742400 	.word	0x49742400

0000347c <pin_function>:
    347c:	0b03      	lsrs	r3, r0, #12
    347e:	b5f0      	push	{r4, r5, r6, r7, lr}
    3480:	001f      	movs	r7, r3
    3482:	2201      	movs	r2, #1
    3484:	3709      	adds	r7, #9
    3486:	40ba      	lsls	r2, r7
    3488:	4d08      	ldr	r5, [pc, #32]	; (34ac <pin_function+0x30>)
    348a:	4c09      	ldr	r4, [pc, #36]	; (34b0 <pin_function+0x34>)
    348c:	0209      	lsls	r1, r1, #8
    348e:	592e      	ldr	r6, [r5, r4]
    3490:	4332      	orrs	r2, r6
    3492:	512a      	str	r2, [r5, r4]
    3494:	4a07      	ldr	r2, [pc, #28]	; (34b4 <pin_function+0x38>)
    3496:	189b      	adds	r3, r3, r2
    3498:	227c      	movs	r2, #124	; 0x7c
    349a:	031b      	lsls	r3, r3, #12
    349c:	4010      	ands	r0, r2
    349e:	1818      	adds	r0, r3, r0
    34a0:	6803      	ldr	r3, [r0, #0]
    34a2:	4a05      	ldr	r2, [pc, #20]	; (34b8 <pin_function+0x3c>)
    34a4:	4013      	ands	r3, r2
    34a6:	4319      	orrs	r1, r3
    34a8:	6001      	str	r1, [r0, #0]
    34aa:	bdf0      	pop	{r4, r5, r6, r7, pc}
    34ac:	40047000 	.word	0x40047000
    34b0:	00001038 	.word	0x00001038
    34b4:	00040049 	.word	0x00040049
    34b8:	fffff8ff 	.word	0xfffff8ff

000034bc <pin_mode>:
    34bc:	2203      	movs	r2, #3
    34be:	4b03      	ldr	r3, [pc, #12]	; (34cc <pin_mode+0x10>)
    34c0:	18c0      	adds	r0, r0, r3
    34c2:	6803      	ldr	r3, [r0, #0]
    34c4:	4393      	bics	r3, r2
    34c6:	4319      	orrs	r1, r3
    34c8:	6001      	str	r1, [r0, #0]
    34ca:	4770      	bx	lr
    34cc:	40049000 	.word	0x40049000

000034d0 <mcgpllfll_frequency>:
    34d0:	213f      	movs	r1, #63	; 0x3f
    34d2:	2000      	movs	r0, #0
    34d4:	4a0e      	ldr	r2, [pc, #56]	; (3510 <mcgpllfll_frequency+0x40>)
    34d6:	b510      	push	{r4, lr}
    34d8:	7813      	ldrb	r3, [r2, #0]
    34da:	438b      	bics	r3, r1
    34dc:	4283      	cmp	r3, r0
    34de:	d10f      	bne.n	3500 <mcgpllfll_frequency+0x30>
    34e0:	490c      	ldr	r1, [pc, #48]	; (3514 <mcgpllfll_frequency+0x44>)
    34e2:	4b0d      	ldr	r3, [pc, #52]	; (3518 <mcgpllfll_frequency+0x48>)
    34e4:	5858      	ldr	r0, [r3, r1]
    34e6:	490d      	ldr	r1, [pc, #52]	; (351c <mcgpllfll_frequency+0x4c>)
    34e8:	0f00      	lsrs	r0, r0, #28
    34ea:	6809      	ldr	r1, [r1, #0]
    34ec:	3001      	adds	r0, #1
    34ee:	4348      	muls	r0, r1
    34f0:	7951      	ldrb	r1, [r2, #5]
    34f2:	4a0b      	ldr	r2, [pc, #44]	; (3520 <mcgpllfll_frequency+0x50>)
    34f4:	0649      	lsls	r1, r1, #25
    34f6:	d404      	bmi.n	3502 <mcgpllfll_frequency+0x32>
    34f8:	5899      	ldr	r1, [r3, r2]
    34fa:	4c0a      	ldr	r4, [pc, #40]	; (3524 <mcgpllfll_frequency+0x54>)
    34fc:	4021      	ands	r1, r4
    34fe:	5099      	str	r1, [r3, r2]
    3500:	bd10      	pop	{r4, pc}
    3502:	2180      	movs	r1, #128	; 0x80
    3504:	589c      	ldr	r4, [r3, r2]
    3506:	0249      	lsls	r1, r1, #9
    3508:	4321      	orrs	r1, r4
    350a:	5099      	str	r1, [r3, r2]
    350c:	0840      	lsrs	r0, r0, #1
    350e:	e7f7      	b.n	3500 <mcgpllfll_frequency+0x30>
    3510:	40064000 	.word	0x40064000
    3514:	00001044 	.word	0x00001044
    3518:	40047000 	.word	0x40047000
    351c:	1ffff0e0 	.word	0x1ffff0e0
    3520:	00001004 	.word	0x00001004
    3524:	fffeffff 	.word	0xfffeffff

00003528 <uart_irq>:
    3528:	b570      	push	{r4, r5, r6, lr}
    352a:	4d0a      	ldr	r5, [pc, #40]	; (3554 <uart_irq+0x2c>)
    352c:	008c      	lsls	r4, r1, #2
    352e:	0006      	movs	r6, r0
    3530:	5960      	ldr	r0, [r4, r5]
    3532:	2800      	cmp	r0, #0
    3534:	d00d      	beq.n	3552 <uart_irq+0x2a>
    3536:	b273      	sxtb	r3, r6
    3538:	2b00      	cmp	r3, #0
    353a:	da03      	bge.n	3544 <uart_irq+0x1c>
    353c:	4b06      	ldr	r3, [pc, #24]	; (3558 <uart_irq+0x30>)
    353e:	2101      	movs	r1, #1
    3540:	681b      	ldr	r3, [r3, #0]
    3542:	4798      	blx	r3
    3544:	06b3      	lsls	r3, r6, #26
    3546:	d504      	bpl.n	3552 <uart_irq+0x2a>
    3548:	4b03      	ldr	r3, [pc, #12]	; (3558 <uart_irq+0x30>)
    354a:	2100      	movs	r1, #0
    354c:	681b      	ldr	r3, [r3, #0]
    354e:	5928      	ldr	r0, [r5, r4]
    3550:	4798      	blx	r3
    3552:	bd70      	pop	{r4, r5, r6, pc}
    3554:	20000840 	.word	0x20000840
    3558:	2000083c 	.word	0x2000083c

0000355c <uart1_irq>:
    355c:	b510      	push	{r4, lr}
    355e:	4b03      	ldr	r3, [pc, #12]	; (356c <uart1_irq+0x10>)
    3560:	2101      	movs	r1, #1
    3562:	7918      	ldrb	r0, [r3, #4]
    3564:	b2c0      	uxtb	r0, r0
    3566:	f7ff ffdf 	bl	3528 <uart_irq>
    356a:	bd10      	pop	{r4, pc}
    356c:	4006b000 	.word	0x4006b000

00003570 <uart2_irq>:
    3570:	b510      	push	{r4, lr}
    3572:	4b03      	ldr	r3, [pc, #12]	; (3580 <uart2_irq+0x10>)
    3574:	2102      	movs	r1, #2
    3576:	7918      	ldrb	r0, [r3, #4]
    3578:	b2c0      	uxtb	r0, r0
    357a:	f7ff ffd5 	bl	3528 <uart_irq>
    357e:	bd10      	pop	{r4, pc}
    3580:	4006c000 	.word	0x4006c000

00003584 <uart0_irq>:
    3584:	b510      	push	{r4, lr}
    3586:	4c07      	ldr	r4, [pc, #28]	; (35a4 <uart0_irq+0x20>)
    3588:	2100      	movs	r1, #0
    358a:	7920      	ldrb	r0, [r4, #4]
    358c:	b2c0      	uxtb	r0, r0
    358e:	f7ff ffcb 	bl	3528 <uart_irq>
    3592:	2308      	movs	r3, #8
    3594:	7922      	ldrb	r2, [r4, #4]
    3596:	421a      	tst	r2, r3
    3598:	d002      	beq.n	35a0 <uart0_irq+0x1c>
    359a:	7922      	ldrb	r2, [r4, #4]
    359c:	4313      	orrs	r3, r2
    359e:	7123      	strb	r3, [r4, #4]
    35a0:	bd10      	pop	{r4, pc}
    35a2:	46c0      	nop			; (mov r8, r8)
    35a4:	4006a000 	.word	0x4006a000

000035a8 <serial_baud>:
    35a8:	b5f7      	push	{r0, r1, r2, r4, r5, r6, r7, lr}
    35aa:	000d      	movs	r5, r1
    35ac:	210c      	movs	r1, #12
    35ae:	6803      	ldr	r3, [r0, #0]
    35b0:	0006      	movs	r6, r0
    35b2:	78dc      	ldrb	r4, [r3, #3]
    35b4:	400c      	ands	r4, r1
    35b6:	9401      	str	r4, [sp, #4]
    35b8:	78da      	ldrb	r2, [r3, #3]
    35ba:	438a      	bics	r2, r1
    35bc:	70da      	strb	r2, [r3, #3]
    35be:	4a41      	ldr	r2, [pc, #260]	; (36c4 <serial_baud+0x11c>)
    35c0:	4293      	cmp	r3, r2
    35c2:	d000      	beq.n	35c6 <serial_baud+0x1e>
    35c4:	e073      	b.n	36ae <serial_baud+0x106>
    35c6:	f7ff ff83 	bl	34d0 <mcgpllfll_frequency>
    35ca:	2800      	cmp	r0, #0
    35cc:	d014      	beq.n	35f8 <serial_baud+0x50>
    35ce:	f7ff ff7f 	bl	34d0 <mcgpllfll_frequency>
    35d2:	0129      	lsls	r1, r5, #4
    35d4:	f000 fd9a 	bl	410c <__udivsi3>
    35d8:	251f      	movs	r5, #31
    35da:	6832      	ldr	r2, [r6, #0]
    35dc:	0a03      	lsrs	r3, r0, #8
    35de:	7811      	ldrb	r1, [r2, #0]
    35e0:	402b      	ands	r3, r5
    35e2:	43a9      	bics	r1, r5
    35e4:	430b      	orrs	r3, r1
    35e6:	7013      	strb	r3, [r2, #0]
    35e8:	b2c0      	uxtb	r0, r0
    35ea:	7853      	ldrb	r3, [r2, #1]
    35ec:	7050      	strb	r0, [r2, #1]
    35ee:	78d3      	ldrb	r3, [r2, #3]
    35f0:	9c01      	ldr	r4, [sp, #4]
    35f2:	431c      	orrs	r4, r3
    35f4:	70d4      	strb	r4, [r2, #3]
    35f6:	bdf7      	pop	{r0, r1, r2, r4, r5, r6, r7, pc}
    35f8:	4b33      	ldr	r3, [pc, #204]	; (36c8 <serial_baud+0x120>)
    35fa:	4a34      	ldr	r2, [pc, #208]	; (36cc <serial_baud+0x124>)
    35fc:	58d7      	ldr	r7, [r2, r3]
